Archive member included to satisfy reference by file (symbol)

d:/intel_fpga/nios2eds/bin/gnu/h-x86_64-mingw32/bin/../lib/gcc/nios2-elf/10.3.1\libgcc.a(fixsfsi.o)
                              obj/default/esp8266.o (__fixsfsi)
d:/intel_fpga/nios2eds/bin/gnu/h-x86_64-mingw32/bin/../lib/gcc/nios2-elf/10.3.1/../../../../../H-x86_64-mingw32/nios2-elf/lib\libc.a(lib_a-fflush.o)
                              obj/default/esp8266.o (fflush)
d:/intel_fpga/nios2eds/bin/gnu/h-x86_64-mingw32/bin/../lib/gcc/nios2-elf/10.3.1/../../../../../H-x86_64-mingw32/nios2-elf/lib\libc.a(lib_a-fgetc.o)
                              obj/default/esp8266.o (fgetc)
d:/intel_fpga/nios2eds/bin/gnu/h-x86_64-mingw32/bin/../lib/gcc/nios2-elf/10.3.1/../../../../../H-x86_64-mingw32/nios2-elf/lib\libc.a(lib_a-fgets.o)
                              obj/default/esp8266.o (fgets)
d:/intel_fpga/nios2eds/bin/gnu/h-x86_64-mingw32/bin/../lib/gcc/nios2-elf/10.3.1/../../../../../H-x86_64-mingw32/nios2-elf/lib\libc.a(lib_a-fileno.o)
                              obj/default/esp8266.o (fileno)
d:/intel_fpga/nios2eds/bin/gnu/h-x86_64-mingw32/bin/../lib/gcc/nios2-elf/10.3.1/../../../../../H-x86_64-mingw32/nios2-elf/lib\libc.a(lib_a-findfp.o)
                              d:/intel_fpga/nios2eds/bin/gnu/h-x86_64-mingw32/bin/../lib/gcc/nios2-elf/10.3.1/../../../../../H-x86_64-mingw32/nios2-elf/lib\libc.a(lib_a-fflush.o) (__sinit)
d:/intel_fpga/nios2eds/bin/gnu/h-x86_64-mingw32/bin/../lib/gcc/nios2-elf/10.3.1/../../../../../H-x86_64-mingw32/nios2-elf/lib\libc.a(lib_a-fopen.o)
                              obj/default/esp8266.o (fopen)
d:/intel_fpga/nios2eds/bin/gnu/h-x86_64-mingw32/bin/../lib/gcc/nios2-elf/10.3.1/../../../../../H-x86_64-mingw32/nios2-elf/lib\libc.a(lib_a-fprintf.o)
                              obj/default/esp8266.o (fprintf)
d:/intel_fpga/nios2eds/bin/gnu/h-x86_64-mingw32/bin/../lib/gcc/nios2-elf/10.3.1/../../../../../H-x86_64-mingw32/nios2-elf/lib\libc.a(lib_a-freer.o)
                              d:/intel_fpga/nios2eds/bin/gnu/h-x86_64-mingw32/bin/../lib/gcc/nios2-elf/10.3.1/../../../../../H-x86_64-mingw32/nios2-elf/lib\libc.a(lib_a-fflush.o) (_free_r)
d:/intel_fpga/nios2eds/bin/gnu/h-x86_64-mingw32/bin/../lib/gcc/nios2-elf/10.3.1/../../../../../H-x86_64-mingw32/nios2-elf/lib\libc.a(lib_a-fseek.o)
                              d:/intel_fpga/nios2eds/bin/gnu/h-x86_64-mingw32/bin/../lib/gcc/nios2-elf/10.3.1/../../../../../H-x86_64-mingw32/nios2-elf/lib\libc.a(lib_a-fopen.o) (_fseek_r)
d:/intel_fpga/nios2eds/bin/gnu/h-x86_64-mingw32/bin/../lib/gcc/nios2-elf/10.3.1/../../../../../H-x86_64-mingw32/nios2-elf/lib\libc.a(lib_a-fseeko.o)
                              d:/intel_fpga/nios2eds/bin/gnu/h-x86_64-mingw32/bin/../lib/gcc/nios2-elf/10.3.1/../../../../../H-x86_64-mingw32/nios2-elf/lib\libc.a(lib_a-fseek.o) (_fseeko_r)
d:/intel_fpga/nios2eds/bin/gnu/h-x86_64-mingw32/bin/../lib/gcc/nios2-elf/10.3.1/../../../../../H-x86_64-mingw32/nios2-elf/lib\libc.a(lib_a-fstatr.o)
                              d:/intel_fpga/nios2eds/bin/gnu/h-x86_64-mingw32/bin/../lib/gcc/nios2-elf/10.3.1/../../../../../H-x86_64-mingw32/nios2-elf/lib\libc.a(lib_a-fseeko.o) (_fstat_r)
d:/intel_fpga/nios2eds/bin/gnu/h-x86_64-mingw32/bin/../lib/gcc/nios2-elf/10.3.1/../../../../../H-x86_64-mingw32/nios2-elf/lib\libc.a(lib_a-fwalk.o)
                              d:/intel_fpga/nios2eds/bin/gnu/h-x86_64-mingw32/bin/../lib/gcc/nios2-elf/10.3.1/../../../../../H-x86_64-mingw32/nios2-elf/lib\libc.a(lib_a-findfp.o) (_fwalk)
d:/intel_fpga/nios2eds/bin/gnu/h-x86_64-mingw32/bin/../lib/gcc/nios2-elf/10.3.1/../../../../../H-x86_64-mingw32/nios2-elf/lib\libc.a(lib_a-impure.o)
                              d:/intel_fpga/nios2eds/bin/gnu/h-x86_64-mingw32/bin/../lib/gcc/nios2-elf/10.3.1/../../../../../H-x86_64-mingw32/nios2-elf/lib\libc.a(lib_a-fflush.o) (_global_impure_ptr)
d:/intel_fpga/nios2eds/bin/gnu/h-x86_64-mingw32/bin/../lib/gcc/nios2-elf/10.3.1/../../../../../H-x86_64-mingw32/nios2-elf/lib\libc.a(lib_a-int_errno.o)
                              d:/intel_fpga/nios2eds/bin/gnu/h-x86_64-mingw32/bin/../lib/gcc/nios2-elf/10.3.1/../../../../../H-x86_64-mingw32/nios2-elf/lib\libc.a(lib_a-fstatr.o) (errno)
d:/intel_fpga/nios2eds/bin/gnu/h-x86_64-mingw32/bin/../lib/gcc/nios2-elf/10.3.1/../../../../../H-x86_64-mingw32/nios2-elf/lib\libc.a(lib_a-makebuf.o)
                              d:/intel_fpga/nios2eds/bin/gnu/h-x86_64-mingw32/bin/../lib/gcc/nios2-elf/10.3.1/../../../../../H-x86_64-mingw32/nios2-elf/lib\libc.a(lib_a-fseeko.o) (__smakebuf_r)
d:/intel_fpga/nios2eds/bin/gnu/h-x86_64-mingw32/bin/../lib/gcc/nios2-elf/10.3.1/../../../../../H-x86_64-mingw32/nios2-elf/lib\libc.a(lib_a-malloc.o)
                              obj/default/esp8266.o (malloc)
d:/intel_fpga/nios2eds/bin/gnu/h-x86_64-mingw32/bin/../lib/gcc/nios2-elf/10.3.1/../../../../../H-x86_64-mingw32/nios2-elf/lib\libc.a(lib_a-mallocr.o)
                              d:/intel_fpga/nios2eds/bin/gnu/h-x86_64-mingw32/bin/../lib/gcc/nios2-elf/10.3.1/../../../../../H-x86_64-mingw32/nios2-elf/lib\libc.a(lib_a-findfp.o) (_malloc_r)
d:/intel_fpga/nios2eds/bin/gnu/h-x86_64-mingw32/bin/../lib/gcc/nios2-elf/10.3.1/../../../../../H-x86_64-mingw32/nios2-elf/lib\libc.a(lib_a-memchr.o)
                              d:/intel_fpga/nios2eds/bin/gnu/h-x86_64-mingw32/bin/../lib/gcc/nios2-elf/10.3.1/../../../../../H-x86_64-mingw32/nios2-elf/lib\libc.a(lib_a-fgets.o) (memchr)
d:/intel_fpga/nios2eds/bin/gnu/h-x86_64-mingw32/bin/../lib/gcc/nios2-elf/10.3.1/../../../../../H-x86_64-mingw32/nios2-elf/lib\libc.a(lib_a-memcpy.o)
                              obj/default/esp8266.o (memcpy)
d:/intel_fpga/nios2eds/bin/gnu/h-x86_64-mingw32/bin/../lib/gcc/nios2-elf/10.3.1/../../../../../H-x86_64-mingw32/nios2-elf/lib\libc.a(lib_a-memset.o)
                              d:/intel_fpga/nios2eds/bin/gnu/h-x86_64-mingw32/bin/../lib/gcc/nios2-elf/10.3.1/../../../../../H-x86_64-mingw32/nios2-elf/lib\libc.a(lib_a-findfp.o) (memset)
d:/intel_fpga/nios2eds/bin/gnu/h-x86_64-mingw32/bin/../lib/gcc/nios2-elf/10.3.1/../../../../../H-x86_64-mingw32/nios2-elf/lib\libc.a(lib_a-openr.o)
                              d:/intel_fpga/nios2eds/bin/gnu/h-x86_64-mingw32/bin/../lib/gcc/nios2-elf/10.3.1/../../../../../H-x86_64-mingw32/nios2-elf/lib\libc.a(lib_a-fopen.o) (_open_r)
d:/intel_fpga/nios2eds/bin/gnu/h-x86_64-mingw32/bin/../lib/gcc/nios2-elf/10.3.1/../../../../../H-x86_64-mingw32/nios2-elf/lib\libc.a(lib_a-printf.o)
                              obj/default/esp8266.o (printf)
d:/intel_fpga/nios2eds/bin/gnu/h-x86_64-mingw32/bin/../lib/gcc/nios2-elf/10.3.1/../../../../../H-x86_64-mingw32/nios2-elf/lib\libc.a(lib_a-puts.o)
                              obj/default/esp8266.o (puts)
d:/intel_fpga/nios2eds/bin/gnu/h-x86_64-mingw32/bin/../lib/gcc/nios2-elf/10.3.1/../../../../../H-x86_64-mingw32/nios2-elf/lib\libc.a(lib_a-refill.o)
                              d:/intel_fpga/nios2eds/bin/gnu/h-x86_64-mingw32/bin/../lib/gcc/nios2-elf/10.3.1/../../../../../H-x86_64-mingw32/nios2-elf/lib\libc.a(lib_a-fgets.o) (__srefill_r)
d:/intel_fpga/nios2eds/bin/gnu/h-x86_64-mingw32/bin/../lib/gcc/nios2-elf/10.3.1/../../../../../H-x86_64-mingw32/nios2-elf/lib\libc.a(lib_a-rget.o)
                              d:/intel_fpga/nios2eds/bin/gnu/h-x86_64-mingw32/bin/../lib/gcc/nios2-elf/10.3.1/../../../../../H-x86_64-mingw32/nios2-elf/lib\libc.a(lib_a-fgetc.o) (__srget_r)
d:/intel_fpga/nios2eds/bin/gnu/h-x86_64-mingw32/bin/../lib/gcc/nios2-elf/10.3.1/../../../../../H-x86_64-mingw32/nios2-elf/lib\libc.a(lib_a-sbrkr.o)
                              d:/intel_fpga/nios2eds/bin/gnu/h-x86_64-mingw32/bin/../lib/gcc/nios2-elf/10.3.1/../../../../../H-x86_64-mingw32/nios2-elf/lib\libc.a(lib_a-freer.o) (_sbrk_r)
d:/intel_fpga/nios2eds/bin/gnu/h-x86_64-mingw32/bin/../lib/gcc/nios2-elf/10.3.1/../../../../../H-x86_64-mingw32/nios2-elf/lib\libc.a(lib_a-sprintf.o)
                              obj/default/esp8266.o (sprintf)
d:/intel_fpga/nios2eds/bin/gnu/h-x86_64-mingw32/bin/../lib/gcc/nios2-elf/10.3.1/../../../../../H-x86_64-mingw32/nios2-elf/lib\libc.a(lib_a-sscanf.o)
                              obj/default/esp8266.o (sscanf)
d:/intel_fpga/nios2eds/bin/gnu/h-x86_64-mingw32/bin/../lib/gcc/nios2-elf/10.3.1/../../../../../H-x86_64-mingw32/nios2-elf/lib\libc.a(lib_a-stdio.o)
                              d:/intel_fpga/nios2eds/bin/gnu/h-x86_64-mingw32/bin/../lib/gcc/nios2-elf/10.3.1/../../../../../H-x86_64-mingw32/nios2-elf/lib\libc.a(lib_a-findfp.o) (__sread)
d:/intel_fpga/nios2eds/bin/gnu/h-x86_64-mingw32/bin/../lib/gcc/nios2-elf/10.3.1/../../../../../H-x86_64-mingw32/nios2-elf/lib\libc.a(lib_a-strcat.o)
                              obj/default/esp8266.o (strcat)
d:/intel_fpga/nios2eds/bin/gnu/h-x86_64-mingw32/bin/../lib/gcc/nios2-elf/10.3.1/../../../../../H-x86_64-mingw32/nios2-elf/lib\libc.a(lib_a-strchr.o)
                              obj/default/esp8266.o (strchr)
d:/intel_fpga/nios2eds/bin/gnu/h-x86_64-mingw32/bin/../lib/gcc/nios2-elf/10.3.1/../../../../../H-x86_64-mingw32/nios2-elf/lib\libc.a(lib_a-strcmp.o)
                              obj/default/esp8266.o (strcmp)
d:/intel_fpga/nios2eds/bin/gnu/h-x86_64-mingw32/bin/../lib/gcc/nios2-elf/10.3.1/../../../../../H-x86_64-mingw32/nios2-elf/lib\libc.a(lib_a-strcpy.o)
                              obj/default/esp8266.o (strcpy)
d:/intel_fpga/nios2eds/bin/gnu/h-x86_64-mingw32/bin/../lib/gcc/nios2-elf/10.3.1/../../../../../H-x86_64-mingw32/nios2-elf/lib\libc.a(lib_a-strlen.o)
                              obj/default/esp8266.o (strlen)
d:/intel_fpga/nios2eds/bin/gnu/h-x86_64-mingw32/bin/../lib/gcc/nios2-elf/10.3.1/../../../../../H-x86_64-mingw32/nios2-elf/lib\libc.a(lib_a-strstr.o)
                              obj/default/esp8266.o (strstr)
d:/intel_fpga/nios2eds/bin/gnu/h-x86_64-mingw32/bin/../lib/gcc/nios2-elf/10.3.1/../../../../../H-x86_64-mingw32/nios2-elf/lib\libc.a(lib_a-svfprintf.o)
                              d:/intel_fpga/nios2eds/bin/gnu/h-x86_64-mingw32/bin/../lib/gcc/nios2-elf/10.3.1/../../../../../H-x86_64-mingw32/nios2-elf/lib\libc.a(lib_a-sprintf.o) (___svfprintf_internal_r)
d:/intel_fpga/nios2eds/bin/gnu/h-x86_64-mingw32/bin/../lib/gcc/nios2-elf/10.3.1/../../../../../H-x86_64-mingw32/nios2-elf/lib\libc.a(lib_a-svfscanf.o)
                              d:/intel_fpga/nios2eds/bin/gnu/h-x86_64-mingw32/bin/../lib/gcc/nios2-elf/10.3.1/../../../../../H-x86_64-mingw32/nios2-elf/lib\libc.a(lib_a-sscanf.o) (__ssvfscanf_r)
d:/intel_fpga/nios2eds/bin/gnu/h-x86_64-mingw32/bin/../lib/gcc/nios2-elf/10.3.1/../../../../../H-x86_64-mingw32/nios2-elf/lib\libc.a(lib_a-vfprintf.o)
                              d:/intel_fpga/nios2eds/bin/gnu/h-x86_64-mingw32/bin/../lib/gcc/nios2-elf/10.3.1/../../../../../H-x86_64-mingw32/nios2-elf/lib\libc.a(lib_a-printf.o) (___vfprintf_internal_r)
d:/intel_fpga/nios2eds/bin/gnu/h-x86_64-mingw32/bin/../lib/gcc/nios2-elf/10.3.1/../../../../../H-x86_64-mingw32/nios2-elf/lib\libc.a(lib_a-writer.o)
                              d:/intel_fpga/nios2eds/bin/gnu/h-x86_64-mingw32/bin/../lib/gcc/nios2-elf/10.3.1/../../../../../H-x86_64-mingw32/nios2-elf/lib\libc.a(lib_a-stdio.o) (_write_r)
d:/intel_fpga/nios2eds/bin/gnu/h-x86_64-mingw32/bin/../lib/gcc/nios2-elf/10.3.1/../../../../../H-x86_64-mingw32/nios2-elf/lib\libc.a(lib_a-wsetup.o)
                              d:/intel_fpga/nios2eds/bin/gnu/h-x86_64-mingw32/bin/../lib/gcc/nios2-elf/10.3.1/../../../../../H-x86_64-mingw32/nios2-elf/lib\libc.a(lib_a-vfprintf.o) (__swsetup_r)
d:/intel_fpga/nios2eds/bin/gnu/h-x86_64-mingw32/bin/../lib/gcc/nios2-elf/10.3.1/../../../../../H-x86_64-mingw32/nios2-elf/lib\libc.a(closer.o)
                              d:/intel_fpga/nios2eds/bin/gnu/h-x86_64-mingw32/bin/../lib/gcc/nios2-elf/10.3.1/../../../../../H-x86_64-mingw32/nios2-elf/lib\libc.a(lib_a-stdio.o) (_close_r)
d:/intel_fpga/nios2eds/bin/gnu/h-x86_64-mingw32/bin/../lib/gcc/nios2-elf/10.3.1/../../../../../H-x86_64-mingw32/nios2-elf/lib\libc.a(lib_a-ctype_.o)
                              d:/intel_fpga/nios2eds/bin/gnu/h-x86_64-mingw32/bin/../lib/gcc/nios2-elf/10.3.1/../../../../../H-x86_64-mingw32/nios2-elf/lib\libc.a(lib_a-svfscanf.o) (_ctype_)
d:/intel_fpga/nios2eds/bin/gnu/h-x86_64-mingw32/bin/../lib/gcc/nios2-elf/10.3.1/../../../../../H-x86_64-mingw32/nios2-elf/lib\libc.a(lib_a-dtoa.o)
                              d:/intel_fpga/nios2eds/bin/gnu/h-x86_64-mingw32/bin/../lib/gcc/nios2-elf/10.3.1/../../../../../H-x86_64-mingw32/nios2-elf/lib\libc.a(lib_a-svfprintf.o) (_dtoa_r)
d:/intel_fpga/nios2eds/bin/gnu/h-x86_64-mingw32/bin/../lib/gcc/nios2-elf/10.3.1/../../../../../H-x86_64-mingw32/nios2-elf/lib\libc.a(lib_a-fclose.o)
                              d:/intel_fpga/nios2eds/bin/gnu/h-x86_64-mingw32/bin/../lib/gcc/nios2-elf/10.3.1/../../../../../H-x86_64-mingw32/nios2-elf/lib\libc.a(lib_a-findfp.o) (_fclose_r)
d:/intel_fpga/nios2eds/bin/gnu/h-x86_64-mingw32/bin/../lib/gcc/nios2-elf/10.3.1/../../../../../H-x86_64-mingw32/nios2-elf/lib\libc.a(lib_a-flags.o)
                              d:/intel_fpga/nios2eds/bin/gnu/h-x86_64-mingw32/bin/../lib/gcc/nios2-elf/10.3.1/../../../../../H-x86_64-mingw32/nios2-elf/lib\libc.a(lib_a-fopen.o) (__sflags)
d:/intel_fpga/nios2eds/bin/gnu/h-x86_64-mingw32/bin/../lib/gcc/nios2-elf/10.3.1/../../../../../H-x86_64-mingw32/nios2-elf/lib\libc.a(lib_a-fvwrite.o)
                              d:/intel_fpga/nios2eds/bin/gnu/h-x86_64-mingw32/bin/../lib/gcc/nios2-elf/10.3.1/../../../../../H-x86_64-mingw32/nios2-elf/lib\libc.a(lib_a-puts.o) (__sfvwrite_r)
d:/intel_fpga/nios2eds/bin/gnu/h-x86_64-mingw32/bin/../lib/gcc/nios2-elf/10.3.1/../../../../../H-x86_64-mingw32/nios2-elf/lib\libc.a(lib_a-isattyr.o)
                              d:/intel_fpga/nios2eds/bin/gnu/h-x86_64-mingw32/bin/../lib/gcc/nios2-elf/10.3.1/../../../../../H-x86_64-mingw32/nios2-elf/lib\libc.a(lib_a-makebuf.o) (_isatty_r)
d:/intel_fpga/nios2eds/bin/gnu/h-x86_64-mingw32/bin/../lib/gcc/nios2-elf/10.3.1/../../../../../H-x86_64-mingw32/nios2-elf/lib\libc.a(lib_a-iswspace.o)
                              d:/intel_fpga/nios2eds/bin/gnu/h-x86_64-mingw32/bin/../lib/gcc/nios2-elf/10.3.1/../../../../../H-x86_64-mingw32/nios2-elf/lib\libc.a(lib_a-svfscanf.o) (iswspace)
d:/intel_fpga/nios2eds/bin/gnu/h-x86_64-mingw32/bin/../lib/gcc/nios2-elf/10.3.1/../../../../../H-x86_64-mingw32/nios2-elf/lib\libc.a(lib_a-iswspace_l.o)
                              d:/intel_fpga/nios2eds/bin/gnu/h-x86_64-mingw32/bin/../lib/gcc/nios2-elf/10.3.1/../../../../../H-x86_64-mingw32/nios2-elf/lib\libc.a(lib_a-iswspace.o) (iswspace_l)
d:/intel_fpga/nios2eds/bin/gnu/h-x86_64-mingw32/bin/../lib/gcc/nios2-elf/10.3.1/../../../../../H-x86_64-mingw32/nios2-elf/lib\libc.a(lib_a-locale.o)
                              d:/intel_fpga/nios2eds/bin/gnu/h-x86_64-mingw32/bin/../lib/gcc/nios2-elf/10.3.1/../../../../../H-x86_64-mingw32/nios2-elf/lib\libc.a(lib_a-svfscanf.o) (__locale_mb_cur_max)
d:/intel_fpga/nios2eds/bin/gnu/h-x86_64-mingw32/bin/../lib/gcc/nios2-elf/10.3.1/../../../../../H-x86_64-mingw32/nios2-elf/lib\libc.a(lib_a-localeconv.o)
                              d:/intel_fpga/nios2eds/bin/gnu/h-x86_64-mingw32/bin/../lib/gcc/nios2-elf/10.3.1/../../../../../H-x86_64-mingw32/nios2-elf/lib\libc.a(lib_a-svfprintf.o) (_localeconv_r)
d:/intel_fpga/nios2eds/bin/gnu/h-x86_64-mingw32/bin/../lib/gcc/nios2-elf/10.3.1/../../../../../H-x86_64-mingw32/nios2-elf/lib\libc.a(lib_a-lseekr.o)
                              d:/intel_fpga/nios2eds/bin/gnu/h-x86_64-mingw32/bin/../lib/gcc/nios2-elf/10.3.1/../../../../../H-x86_64-mingw32/nios2-elf/lib\libc.a(lib_a-stdio.o) (_lseek_r)
d:/intel_fpga/nios2eds/bin/gnu/h-x86_64-mingw32/bin/../lib/gcc/nios2-elf/10.3.1/../../../../../H-x86_64-mingw32/nios2-elf/lib\libc.a(lib_a-mbrtowc.o)
                              d:/intel_fpga/nios2eds/bin/gnu/h-x86_64-mingw32/bin/../lib/gcc/nios2-elf/10.3.1/../../../../../H-x86_64-mingw32/nios2-elf/lib\libc.a(lib_a-svfscanf.o) (_mbrtowc_r)
d:/intel_fpga/nios2eds/bin/gnu/h-x86_64-mingw32/bin/../lib/gcc/nios2-elf/10.3.1/../../../../../H-x86_64-mingw32/nios2-elf/lib\libc.a(lib_a-mbtowc_r.o)
                              d:/intel_fpga/nios2eds/bin/gnu/h-x86_64-mingw32/bin/../lib/gcc/nios2-elf/10.3.1/../../../../../H-x86_64-mingw32/nios2-elf/lib\libc.a(lib_a-locale.o) (__ascii_mbtowc)
d:/intel_fpga/nios2eds/bin/gnu/h-x86_64-mingw32/bin/../lib/gcc/nios2-elf/10.3.1/../../../../../H-x86_64-mingw32/nios2-elf/lib\libc.a(lib_a-memcmp.o)
                              d:/intel_fpga/nios2eds/bin/gnu/h-x86_64-mingw32/bin/../lib/gcc/nios2-elf/10.3.1/../../../../../H-x86_64-mingw32/nios2-elf/lib\libc.a(lib_a-strstr.o) (memcmp)
d:/intel_fpga/nios2eds/bin/gnu/h-x86_64-mingw32/bin/../lib/gcc/nios2-elf/10.3.1/../../../../../H-x86_64-mingw32/nios2-elf/lib\libc.a(lib_a-memmove.o)
                              d:/intel_fpga/nios2eds/bin/gnu/h-x86_64-mingw32/bin/../lib/gcc/nios2-elf/10.3.1/../../../../../H-x86_64-mingw32/nios2-elf/lib\libc.a(lib_a-fvwrite.o) (memmove)
d:/intel_fpga/nios2eds/bin/gnu/h-x86_64-mingw32/bin/../lib/gcc/nios2-elf/10.3.1/../../../../../H-x86_64-mingw32/nios2-elf/lib\libc.a(lib_a-mprec.o)
                              d:/intel_fpga/nios2eds/bin/gnu/h-x86_64-mingw32/bin/../lib/gcc/nios2-elf/10.3.1/../../../../../H-x86_64-mingw32/nios2-elf/lib\libc.a(lib_a-dtoa.o) (_Balloc)
d:/intel_fpga/nios2eds/bin/gnu/h-x86_64-mingw32/bin/../lib/gcc/nios2-elf/10.3.1/../../../../../H-x86_64-mingw32/nios2-elf/lib\libc.a(lib_a-readr.o)
                              d:/intel_fpga/nios2eds/bin/gnu/h-x86_64-mingw32/bin/../lib/gcc/nios2-elf/10.3.1/../../../../../H-x86_64-mingw32/nios2-elf/lib\libc.a(lib_a-stdio.o) (_read_r)
d:/intel_fpga/nios2eds/bin/gnu/h-x86_64-mingw32/bin/../lib/gcc/nios2-elf/10.3.1/../../../../../H-x86_64-mingw32/nios2-elf/lib\libc.a(lib_a-reallocr.o)
                              d:/intel_fpga/nios2eds/bin/gnu/h-x86_64-mingw32/bin/../lib/gcc/nios2-elf/10.3.1/../../../../../H-x86_64-mingw32/nios2-elf/lib\libc.a(lib_a-fvwrite.o) (_realloc_r)
d:/intel_fpga/nios2eds/bin/gnu/h-x86_64-mingw32/bin/../lib/gcc/nios2-elf/10.3.1/../../../../../H-x86_64-mingw32/nios2-elf/lib\libc.a(lib_a-sccl.o)
                              d:/intel_fpga/nios2eds/bin/gnu/h-x86_64-mingw32/bin/../lib/gcc/nios2-elf/10.3.1/../../../../../H-x86_64-mingw32/nios2-elf/lib\libc.a(lib_a-svfscanf.o) (__sccl)
d:/intel_fpga/nios2eds/bin/gnu/h-x86_64-mingw32/bin/../lib/gcc/nios2-elf/10.3.1/../../../../../H-x86_64-mingw32/nios2-elf/lib\libc.a(lib_a-strnlen.o)
                              d:/intel_fpga/nios2eds/bin/gnu/h-x86_64-mingw32/bin/../lib/gcc/nios2-elf/10.3.1/../../../../../H-x86_64-mingw32/nios2-elf/lib\libc.a(lib_a-strstr.o) (strnlen)
d:/intel_fpga/nios2eds/bin/gnu/h-x86_64-mingw32/bin/../lib/gcc/nios2-elf/10.3.1/../../../../../H-x86_64-mingw32/nios2-elf/lib\libc.a(lib_a-strtod.o)
                              d:/intel_fpga/nios2eds/bin/gnu/h-x86_64-mingw32/bin/../lib/gcc/nios2-elf/10.3.1/../../../../../H-x86_64-mingw32/nios2-elf/lib\libc.a(lib_a-svfscanf.o) (_strtod_r)
d:/intel_fpga/nios2eds/bin/gnu/h-x86_64-mingw32/bin/../lib/gcc/nios2-elf/10.3.1/../../../../../H-x86_64-mingw32/nios2-elf/lib\libc.a(lib_a-strtol.o)
                              d:/intel_fpga/nios2eds/bin/gnu/h-x86_64-mingw32/bin/../lib/gcc/nios2-elf/10.3.1/../../../../../H-x86_64-mingw32/nios2-elf/lib\libc.a(lib_a-svfscanf.o) (_strtol_r)
d:/intel_fpga/nios2eds/bin/gnu/h-x86_64-mingw32/bin/../lib/gcc/nios2-elf/10.3.1/../../../../../H-x86_64-mingw32/nios2-elf/lib\libc.a(lib_a-strtoll.o)
                              d:/intel_fpga/nios2eds/bin/gnu/h-x86_64-mingw32/bin/../lib/gcc/nios2-elf/10.3.1/../../../../../H-x86_64-mingw32/nios2-elf/lib\libc.a(lib_a-svfscanf.o) (_strtoll_r)
d:/intel_fpga/nios2eds/bin/gnu/h-x86_64-mingw32/bin/../lib/gcc/nios2-elf/10.3.1/../../../../../H-x86_64-mingw32/nios2-elf/lib\libc.a(lib_a-strtoul.o)
                              d:/intel_fpga/nios2eds/bin/gnu/h-x86_64-mingw32/bin/../lib/gcc/nios2-elf/10.3.1/../../../../../H-x86_64-mingw32/nios2-elf/lib\libc.a(lib_a-svfscanf.o) (_strtoul_r)
d:/intel_fpga/nios2eds/bin/gnu/h-x86_64-mingw32/bin/../lib/gcc/nios2-elf/10.3.1/../../../../../H-x86_64-mingw32/nios2-elf/lib\libc.a(lib_a-strtoull.o)
                              d:/intel_fpga/nios2eds/bin/gnu/h-x86_64-mingw32/bin/../lib/gcc/nios2-elf/10.3.1/../../../../../H-x86_64-mingw32/nios2-elf/lib\libc.a(lib_a-svfscanf.o) (_strtoull_r)
d:/intel_fpga/nios2eds/bin/gnu/h-x86_64-mingw32/bin/../lib/gcc/nios2-elf/10.3.1/../../../../../H-x86_64-mingw32/nios2-elf/lib\libc.a(lib_a-svfiprintf.o)
                              d:/intel_fpga/nios2eds/bin/gnu/h-x86_64-mingw32/bin/../lib/gcc/nios2-elf/10.3.1/../../../../../H-x86_64-mingw32/nios2-elf/lib\libc.a(lib_a-svfprintf.o) (__ssprint_r)
d:/intel_fpga/nios2eds/bin/gnu/h-x86_64-mingw32/bin/../lib/gcc/nios2-elf/10.3.1/../../../../../H-x86_64-mingw32/nios2-elf/lib\libc.a(lib_a-svfiscanf.o)
                              d:/intel_fpga/nios2eds/bin/gnu/h-x86_64-mingw32/bin/../lib/gcc/nios2-elf/10.3.1/../../../../../H-x86_64-mingw32/nios2-elf/lib\libc.a(lib_a-svfscanf.o) (_sungetc_r)
d:/intel_fpga/nios2eds/bin/gnu/h-x86_64-mingw32/bin/../lib/gcc/nios2-elf/10.3.1/../../../../../H-x86_64-mingw32/nios2-elf/lib\libc.a(lib_a-ungetc.o)
                              d:/intel_fpga/nios2eds/bin/gnu/h-x86_64-mingw32/bin/../lib/gcc/nios2-elf/10.3.1/../../../../../H-x86_64-mingw32/nios2-elf/lib\libc.a(lib_a-svfiscanf.o) (__submore)
d:/intel_fpga/nios2eds/bin/gnu/h-x86_64-mingw32/bin/../lib/gcc/nios2-elf/10.3.1/../../../../../H-x86_64-mingw32/nios2-elf/lib\libc.a(lib_a-vfiprintf.o)
                              d:/intel_fpga/nios2eds/bin/gnu/h-x86_64-mingw32/bin/../lib/gcc/nios2-elf/10.3.1/../../../../../H-x86_64-mingw32/nios2-elf/lib\libc.a(lib_a-vfprintf.o) (__sprint_r)
d:/intel_fpga/nios2eds/bin/gnu/h-x86_64-mingw32/bin/../lib/gcc/nios2-elf/10.3.1/../../../../../H-x86_64-mingw32/nios2-elf/lib\libc.a(lib_a-wctomb_r.o)
                              d:/intel_fpga/nios2eds/bin/gnu/h-x86_64-mingw32/bin/../lib/gcc/nios2-elf/10.3.1/../../../../../H-x86_64-mingw32/nios2-elf/lib\libc.a(lib_a-locale.o) (__ascii_wctomb)
d:/intel_fpga/nios2eds/bin/gnu/h-x86_64-mingw32/bin/../lib/gcc/nios2-elf/10.3.1/../../../../../H-x86_64-mingw32/nios2-elf/lib\libc.a(lib_a-assert.o)
                              d:/intel_fpga/nios2eds/bin/gnu/h-x86_64-mingw32/bin/../lib/gcc/nios2-elf/10.3.1/../../../../../H-x86_64-mingw32/nios2-elf/lib\libc.a(lib_a-dtoa.o) (__assert_func)
d:/intel_fpga/nios2eds/bin/gnu/h-x86_64-mingw32/bin/../lib/gcc/nios2-elf/10.3.1/../../../../../H-x86_64-mingw32/nios2-elf/lib\libc.a(lib_a-callocr.o)
                              d:/intel_fpga/nios2eds/bin/gnu/h-x86_64-mingw32/bin/../lib/gcc/nios2-elf/10.3.1/../../../../../H-x86_64-mingw32/nios2-elf/lib\libc.a(lib_a-mprec.o) (_calloc_r)
d:/intel_fpga/nios2eds/bin/gnu/h-x86_64-mingw32/bin/../lib/gcc/nios2-elf/10.3.1/../../../../../H-x86_64-mingw32/nios2-elf/lib\libc.a(lib_a-errno.o)
                              d:/intel_fpga/nios2eds/bin/gnu/h-x86_64-mingw32/bin/../lib/gcc/nios2-elf/10.3.1/../../../../../H-x86_64-mingw32/nios2-elf/lib\libc.a(lib_a-strtol.o) (__errno)
d:/intel_fpga/nios2eds/bin/gnu/h-x86_64-mingw32/bin/../lib/gcc/nios2-elf/10.3.1/../../../../../H-x86_64-mingw32/nios2-elf/lib\libc.a(lib_a-fiprintf.o)
                              d:/intel_fpga/nios2eds/bin/gnu/h-x86_64-mingw32/bin/../lib/gcc/nios2-elf/10.3.1/../../../../../H-x86_64-mingw32/nios2-elf/lib\libc.a(lib_a-assert.o) (fiprintf)
d:/intel_fpga/nios2eds/bin/gnu/h-x86_64-mingw32/bin/../lib/gcc/nios2-elf/10.3.1/../../../../../H-x86_64-mingw32/nios2-elf/lib\libc.a(lib_a-fputwc.o)
                              d:/intel_fpga/nios2eds/bin/gnu/h-x86_64-mingw32/bin/../lib/gcc/nios2-elf/10.3.1/../../../../../H-x86_64-mingw32/nios2-elf/lib\libc.a(lib_a-vfiprintf.o) (_fputwc_r)
d:/intel_fpga/nios2eds/bin/gnu/h-x86_64-mingw32/bin/../lib/gcc/nios2-elf/10.3.1/../../../../../H-x86_64-mingw32/nios2-elf/lib\libc.a(lib_a-gdtoa-gethex.o)
                              d:/intel_fpga/nios2eds/bin/gnu/h-x86_64-mingw32/bin/../lib/gcc/nios2-elf/10.3.1/../../../../../H-x86_64-mingw32/nios2-elf/lib\libc.a(lib_a-strtod.o) (__gethex)
d:/intel_fpga/nios2eds/bin/gnu/h-x86_64-mingw32/bin/../lib/gcc/nios2-elf/10.3.1/../../../../../H-x86_64-mingw32/nios2-elf/lib\libc.a(lib_a-gdtoa-hexnan.o)
                              d:/intel_fpga/nios2eds/bin/gnu/h-x86_64-mingw32/bin/../lib/gcc/nios2-elf/10.3.1/../../../../../H-x86_64-mingw32/nios2-elf/lib\libc.a(lib_a-strtod.o) (__match)
d:/intel_fpga/nios2eds/bin/gnu/h-x86_64-mingw32/bin/../lib/gcc/nios2-elf/10.3.1/../../../../../H-x86_64-mingw32/nios2-elf/lib\libc.a(lib_a-lnumeric.o)
                              d:/intel_fpga/nios2eds/bin/gnu/h-x86_64-mingw32/bin/../lib/gcc/nios2-elf/10.3.1/../../../../../H-x86_64-mingw32/nios2-elf/lib\libc.a(lib_a-strtod.o) (_C_numeric_locale)
d:/intel_fpga/nios2eds/bin/gnu/h-x86_64-mingw32/bin/../lib/gcc/nios2-elf/10.3.1/../../../../../H-x86_64-mingw32/nios2-elf/lib\libc.a(lib_a-strncmp.o)
                              d:/intel_fpga/nios2eds/bin/gnu/h-x86_64-mingw32/bin/../lib/gcc/nios2-elf/10.3.1/../../../../../H-x86_64-mingw32/nios2-elf/lib\libc.a(lib_a-strtod.o) (strncmp)
d:/intel_fpga/nios2eds/bin/gnu/h-x86_64-mingw32/bin/../lib/gcc/nios2-elf/10.3.1/../../../../../H-x86_64-mingw32/nios2-elf/lib\libc.a(lib_a-vfiprintfr_1.o)
                              d:/intel_fpga/nios2eds/bin/gnu/h-x86_64-mingw32/bin/../lib/gcc/nios2-elf/10.3.1/../../../../../H-x86_64-mingw32/nios2-elf/lib\libc.a(lib_a-fiprintf.o) (_vfiprintf_r)
d:/intel_fpga/nios2eds/bin/gnu/h-x86_64-mingw32/bin/../lib/gcc/nios2-elf/10.3.1/../../../../../H-x86_64-mingw32/nios2-elf/lib\libc.a(lib_a-wbuf.o)
                              d:/intel_fpga/nios2eds/bin/gnu/h-x86_64-mingw32/bin/../lib/gcc/nios2-elf/10.3.1/../../../../../H-x86_64-mingw32/nios2-elf/lib\libc.a(lib_a-fputwc.o) (__swbuf_r)
d:/intel_fpga/nios2eds/bin/gnu/h-x86_64-mingw32/bin/../lib/gcc/nios2-elf/10.3.1/../../../../../H-x86_64-mingw32/nios2-elf/lib\libc.a(lib_a-wcrtomb.o)
                              d:/intel_fpga/nios2eds/bin/gnu/h-x86_64-mingw32/bin/../lib/gcc/nios2-elf/10.3.1/../../../../../H-x86_64-mingw32/nios2-elf/lib\libc.a(lib_a-fputwc.o) (_wcrtomb_r)
d:/intel_fpga/nios2eds/bin/gnu/h-x86_64-mingw32/bin/../lib/gcc/nios2-elf/10.3.1/../../../../../H-x86_64-mingw32/nios2-elf/lib\libc.a(lib_a-abort.o)
                              d:/intel_fpga/nios2eds/bin/gnu/h-x86_64-mingw32/bin/../lib/gcc/nios2-elf/10.3.1/../../../../../H-x86_64-mingw32/nios2-elf/lib\libc.a(lib_a-assert.o) (abort)
d:/intel_fpga/nios2eds/bin/gnu/h-x86_64-mingw32/bin/../lib/gcc/nios2-elf/10.3.1/../../../../../H-x86_64-mingw32/nios2-elf/lib\libc.a(lib_a-signal.o)
                              d:/intel_fpga/nios2eds/bin/gnu/h-x86_64-mingw32/bin/../lib/gcc/nios2-elf/10.3.1/../../../../../H-x86_64-mingw32/nios2-elf/lib\libc.a(lib_a-abort.o) (raise)
d:/intel_fpga/nios2eds/bin/gnu/h-x86_64-mingw32/bin/../lib/gcc/nios2-elf/10.3.1/../../../../../H-x86_64-mingw32/nios2-elf/lib\libc.a(lib_a-signalr.o)
                              d:/intel_fpga/nios2eds/bin/gnu/h-x86_64-mingw32/bin/../lib/gcc/nios2-elf/10.3.1/../../../../../H-x86_64-mingw32/nios2-elf/lib\libc.a(lib_a-signal.o) (_kill_r)
d:/intel_fpga/nios2eds/bin/gnu/h-x86_64-mingw32/bin/../lib/gcc/nios2-elf/10.3.1\libgcc.a(_muldi3.o)
                              d:/intel_fpga/nios2eds/bin/gnu/h-x86_64-mingw32/bin/../lib/gcc/nios2-elf/10.3.1/../../../../../H-x86_64-mingw32/nios2-elf/lib\libc.a(lib_a-strtoll.o) (__muldi3)
d:/intel_fpga/nios2eds/bin/gnu/h-x86_64-mingw32/bin/../lib/gcc/nios2-elf/10.3.1\libgcc.a(_fixunsdfsi.o)
                              d:/intel_fpga/nios2eds/bin/gnu/h-x86_64-mingw32/bin/../lib/gcc/nios2-elf/10.3.1/../../../../../H-x86_64-mingw32/nios2-elf/lib\libc.a(lib_a-strtod.o) (__fixunsdfsi)
d:/intel_fpga/nios2eds/bin/gnu/h-x86_64-mingw32/bin/../lib/gcc/nios2-elf/10.3.1\libgcc.a(_fixdfdi.o)
                              d:/intel_fpga/nios2eds/bin/gnu/h-x86_64-mingw32/bin/../lib/gcc/nios2-elf/10.3.1/../../../../../H-x86_64-mingw32/nios2-elf/lib\libc.a(lib_a-strtod.o) (__fixdfdi)
d:/intel_fpga/nios2eds/bin/gnu/h-x86_64-mingw32/bin/../lib/gcc/nios2-elf/10.3.1\libgcc.a(_fixunsdfdi.o)
                              d:/intel_fpga/nios2eds/bin/gnu/h-x86_64-mingw32/bin/../lib/gcc/nios2-elf/10.3.1\libgcc.a(_fixdfdi.o) (__fixunsdfdi)
d:/intel_fpga/nios2eds/bin/gnu/h-x86_64-mingw32/bin/../lib/gcc/nios2-elf/10.3.1\libgcc.a(_floatdidf.o)
                              d:/intel_fpga/nios2eds/bin/gnu/h-x86_64-mingw32/bin/../lib/gcc/nios2-elf/10.3.1/../../../../../H-x86_64-mingw32/nios2-elf/lib\libc.a(lib_a-strtod.o) (__floatdidf)
d:/intel_fpga/nios2eds/bin/gnu/h-x86_64-mingw32/bin/../lib/gcc/nios2-elf/10.3.1\libgcc.a(_udivdi3.o)
                              d:/intel_fpga/nios2eds/bin/gnu/h-x86_64-mingw32/bin/../lib/gcc/nios2-elf/10.3.1/../../../../../H-x86_64-mingw32/nios2-elf/lib\libc.a(lib_a-svfprintf.o) (__udivdi3)
d:/intel_fpga/nios2eds/bin/gnu/h-x86_64-mingw32/bin/../lib/gcc/nios2-elf/10.3.1\libgcc.a(_umoddi3.o)
                              d:/intel_fpga/nios2eds/bin/gnu/h-x86_64-mingw32/bin/../lib/gcc/nios2-elf/10.3.1/../../../../../H-x86_64-mingw32/nios2-elf/lib\libc.a(lib_a-svfprintf.o) (__umoddi3)
d:/intel_fpga/nios2eds/bin/gnu/h-x86_64-mingw32/bin/../lib/gcc/nios2-elf/10.3.1\libgcc.a(lib2-divmod.o)
                              d:/intel_fpga/nios2eds/bin/gnu/h-x86_64-mingw32/bin/../lib/gcc/nios2-elf/10.3.1/../../../../../H-x86_64-mingw32/nios2-elf/lib\libc.a(lib_a-svfprintf.o) (__divsi3)
d:/intel_fpga/nios2eds/bin/gnu/h-x86_64-mingw32/bin/../lib/gcc/nios2-elf/10.3.1\libgcc.a(lesf2.o)
                              d:/intel_fpga/nios2eds/bin/gnu/h-x86_64-mingw32/bin/../lib/gcc/nios2-elf/10.3.1/../../../../../H-x86_64-mingw32/nios2-elf/lib\libc.a(lib_a-strtod.o) (__lesf2)
d:/intel_fpga/nios2eds/bin/gnu/h-x86_64-mingw32/bin/../lib/gcc/nios2-elf/10.3.1\libgcc.a(unordsf2.o)
                              d:/intel_fpga/nios2eds/bin/gnu/h-x86_64-mingw32/bin/../lib/gcc/nios2-elf/10.3.1/../../../../../H-x86_64-mingw32/nios2-elf/lib\libc.a(lib_a-strtod.o) (__unordsf2)
d:/intel_fpga/nios2eds/bin/gnu/h-x86_64-mingw32/bin/../lib/gcc/nios2-elf/10.3.1\libgcc.a(adddf3.o)
                              d:/intel_fpga/nios2eds/bin/gnu/h-x86_64-mingw32/bin/../lib/gcc/nios2-elf/10.3.1/../../../../../H-x86_64-mingw32/nios2-elf/lib\libc.a(lib_a-dtoa.o) (__adddf3)
d:/intel_fpga/nios2eds/bin/gnu/h-x86_64-mingw32/bin/../lib/gcc/nios2-elf/10.3.1\libgcc.a(divdf3.o)
                              d:/intel_fpga/nios2eds/bin/gnu/h-x86_64-mingw32/bin/../lib/gcc/nios2-elf/10.3.1/../../../../../H-x86_64-mingw32/nios2-elf/lib\libc.a(lib_a-dtoa.o) (__divdf3)
d:/intel_fpga/nios2eds/bin/gnu/h-x86_64-mingw32/bin/../lib/gcc/nios2-elf/10.3.1\libgcc.a(eqdf2.o)
                              d:/intel_fpga/nios2eds/bin/gnu/h-x86_64-mingw32/bin/../lib/gcc/nios2-elf/10.3.1/../../../../../H-x86_64-mingw32/nios2-elf/lib\libc.a(lib_a-svfprintf.o) (__eqdf2)
d:/intel_fpga/nios2eds/bin/gnu/h-x86_64-mingw32/bin/../lib/gcc/nios2-elf/10.3.1\libgcc.a(gedf2.o)
                              d:/intel_fpga/nios2eds/bin/gnu/h-x86_64-mingw32/bin/../lib/gcc/nios2-elf/10.3.1\libgcc.a(_fixunsdfsi.o) (__gedf2)
d:/intel_fpga/nios2eds/bin/gnu/h-x86_64-mingw32/bin/../lib/gcc/nios2-elf/10.3.1\libgcc.a(ledf2.o)
                              d:/intel_fpga/nios2eds/bin/gnu/h-x86_64-mingw32/bin/../lib/gcc/nios2-elf/10.3.1/../../../../../H-x86_64-mingw32/nios2-elf/lib\libc.a(lib_a-svfprintf.o) (__ledf2)
d:/intel_fpga/nios2eds/bin/gnu/h-x86_64-mingw32/bin/../lib/gcc/nios2-elf/10.3.1\libgcc.a(muldf3.o)
                              d:/intel_fpga/nios2eds/bin/gnu/h-x86_64-mingw32/bin/../lib/gcc/nios2-elf/10.3.1/../../../../../H-x86_64-mingw32/nios2-elf/lib\libc.a(lib_a-dtoa.o) (__muldf3)
d:/intel_fpga/nios2eds/bin/gnu/h-x86_64-mingw32/bin/../lib/gcc/nios2-elf/10.3.1\libgcc.a(subdf3.o)
                              d:/intel_fpga/nios2eds/bin/gnu/h-x86_64-mingw32/bin/../lib/gcc/nios2-elf/10.3.1/../../../../../H-x86_64-mingw32/nios2-elf/lib\libc.a(lib_a-dtoa.o) (__subdf3)
d:/intel_fpga/nios2eds/bin/gnu/h-x86_64-mingw32/bin/../lib/gcc/nios2-elf/10.3.1\libgcc.a(unorddf2.o)
                              d:/intel_fpga/nios2eds/bin/gnu/h-x86_64-mingw32/bin/../lib/gcc/nios2-elf/10.3.1/../../../../../H-x86_64-mingw32/nios2-elf/lib\libc.a(lib_a-svfprintf.o) (__unorddf2)
d:/intel_fpga/nios2eds/bin/gnu/h-x86_64-mingw32/bin/../lib/gcc/nios2-elf/10.3.1\libgcc.a(fixdfsi.o)
                              d:/intel_fpga/nios2eds/bin/gnu/h-x86_64-mingw32/bin/../lib/gcc/nios2-elf/10.3.1/../../../../../H-x86_64-mingw32/nios2-elf/lib\libc.a(lib_a-dtoa.o) (__fixdfsi)
d:/intel_fpga/nios2eds/bin/gnu/h-x86_64-mingw32/bin/../lib/gcc/nios2-elf/10.3.1\libgcc.a(floatsidf.o)
                              d:/intel_fpga/nios2eds/bin/gnu/h-x86_64-mingw32/bin/../lib/gcc/nios2-elf/10.3.1/../../../../../H-x86_64-mingw32/nios2-elf/lib\libc.a(lib_a-dtoa.o) (__floatsidf)
d:/intel_fpga/nios2eds/bin/gnu/h-x86_64-mingw32/bin/../lib/gcc/nios2-elf/10.3.1\libgcc.a(floatunsidf.o)
                              d:/intel_fpga/nios2eds/bin/gnu/h-x86_64-mingw32/bin/../lib/gcc/nios2-elf/10.3.1/../../../../../H-x86_64-mingw32/nios2-elf/lib\libc.a(lib_a-dtoa.o) (__floatunsidf)
d:/intel_fpga/nios2eds/bin/gnu/h-x86_64-mingw32/bin/../lib/gcc/nios2-elf/10.3.1\libgcc.a(truncdfsf2.o)
                              d:/intel_fpga/nios2eds/bin/gnu/h-x86_64-mingw32/bin/../lib/gcc/nios2-elf/10.3.1/../../../../../H-x86_64-mingw32/nios2-elf/lib\libc.a(lib_a-svfscanf.o) (__truncdfsf2)
d:/intel_fpga/nios2eds/bin/gnu/h-x86_64-mingw32/bin/../lib/gcc/nios2-elf/10.3.1\libgcc.a(_clz.o)
                              d:/intel_fpga/nios2eds/bin/gnu/h-x86_64-mingw32/bin/../lib/gcc/nios2-elf/10.3.1\libgcc.a(_udivdi3.o) (__clz_tab)
d:/intel_fpga/nios2eds/bin/gnu/h-x86_64-mingw32/bin/../lib/gcc/nios2-elf/10.3.1\libgcc.a(_clzsi2.o)
                              d:/intel_fpga/nios2eds/bin/gnu/h-x86_64-mingw32/bin/../lib/gcc/nios2-elf/10.3.1\libgcc.a(adddf3.o) (__clzsi2)
d:/Downloads/RFS/DE10_Nano_WiFi_Web_Server/software/ewaff_server_bsp/\libhal_bsp.a(alt_close.o)
                              d:/intel_fpga/nios2eds/bin/gnu/h-x86_64-mingw32/bin/../lib/gcc/nios2-elf/10.3.1/../../../../../H-x86_64-mingw32/nios2-elf/lib\libc.a(closer.o) (close)
d:/Downloads/RFS/DE10_Nano_WiFi_Web_Server/software/ewaff_server_bsp/\libhal_bsp.a(alt_dev.o)
                              d:/Downloads/RFS/DE10_Nano_WiFi_Web_Server/software/ewaff_server_bsp/\libhal_bsp.a(alt_close.o) (alt_fd_list)
d:/Downloads/RFS/DE10_Nano_WiFi_Web_Server/software/ewaff_server_bsp/\libhal_bsp.a(alt_errno.o)
                              d:/Downloads/RFS/DE10_Nano_WiFi_Web_Server/software/ewaff_server_bsp/\libhal_bsp.a(alt_close.o) (alt_errno)
d:/Downloads/RFS/DE10_Nano_WiFi_Web_Server/software/ewaff_server_bsp/\libhal_bsp.a(alt_exit.o)
                              d:/intel_fpga/nios2eds/bin/gnu/h-x86_64-mingw32/bin/../lib/gcc/nios2-elf/10.3.1/../../../../../H-x86_64-mingw32/nios2-elf/lib\libc.a(lib_a-abort.o) (_exit)
d:/Downloads/RFS/DE10_Nano_WiFi_Web_Server/software/ewaff_server_bsp/\libhal_bsp.a(alt_fcntl.o)
                              obj/default/esp8266.o (fcntl)
d:/Downloads/RFS/DE10_Nano_WiFi_Web_Server/software/ewaff_server_bsp/\libhal_bsp.a(alt_fstat.o)
                              d:/intel_fpga/nios2eds/bin/gnu/h-x86_64-mingw32/bin/../lib/gcc/nios2-elf/10.3.1/../../../../../H-x86_64-mingw32/nios2-elf/lib\libc.a(lib_a-fstatr.o) (fstat)
d:/Downloads/RFS/DE10_Nano_WiFi_Web_Server/software/ewaff_server_bsp/\libhal_bsp.a(alt_getpid.o)
                              d:/intel_fpga/nios2eds/bin/gnu/h-x86_64-mingw32/bin/../lib/gcc/nios2-elf/10.3.1/../../../../../H-x86_64-mingw32/nios2-elf/lib\libc.a(lib_a-signalr.o) (getpid)
d:/Downloads/RFS/DE10_Nano_WiFi_Web_Server/software/ewaff_server_bsp/\libhal_bsp.a(alt_isatty.o)
                              d:/intel_fpga/nios2eds/bin/gnu/h-x86_64-mingw32/bin/../lib/gcc/nios2-elf/10.3.1/../../../../../H-x86_64-mingw32/nios2-elf/lib\libc.a(lib_a-isattyr.o) (isatty)
d:/Downloads/RFS/DE10_Nano_WiFi_Web_Server/software/ewaff_server_bsp/\libhal_bsp.a(alt_kill.o)
                              d:/intel_fpga/nios2eds/bin/gnu/h-x86_64-mingw32/bin/../lib/gcc/nios2-elf/10.3.1/../../../../../H-x86_64-mingw32/nios2-elf/lib\libc.a(lib_a-signalr.o) (kill)
d:/Downloads/RFS/DE10_Nano_WiFi_Web_Server/software/ewaff_server_bsp/\libhal_bsp.a(alt_load.o)
                              d:/Downloads/RFS/DE10_Nano_WiFi_Web_Server/software/ewaff_server_bsp//obj/HAL/src/crt0.o (alt_load)
d:/Downloads/RFS/DE10_Nano_WiFi_Web_Server/software/ewaff_server_bsp/\libhal_bsp.a(alt_lseek.o)
                              d:/intel_fpga/nios2eds/bin/gnu/h-x86_64-mingw32/bin/../lib/gcc/nios2-elf/10.3.1/../../../../../H-x86_64-mingw32/nios2-elf/lib\libc.a(lib_a-lseekr.o) (lseek)
d:/Downloads/RFS/DE10_Nano_WiFi_Web_Server/software/ewaff_server_bsp/\libhal_bsp.a(alt_main.o)
                              d:/Downloads/RFS/DE10_Nano_WiFi_Web_Server/software/ewaff_server_bsp//obj/HAL/src/crt0.o (alt_main)
d:/Downloads/RFS/DE10_Nano_WiFi_Web_Server/software/ewaff_server_bsp/\libhal_bsp.a(alt_malloc_lock.o)
                              d:/intel_fpga/nios2eds/bin/gnu/h-x86_64-mingw32/bin/../lib/gcc/nios2-elf/10.3.1/../../../../../H-x86_64-mingw32/nios2-elf/lib\libc.a(lib_a-freer.o) (__malloc_lock)
d:/Downloads/RFS/DE10_Nano_WiFi_Web_Server/software/ewaff_server_bsp/\libhal_bsp.a(alt_open.o)
                              d:/intel_fpga/nios2eds/bin/gnu/h-x86_64-mingw32/bin/../lib/gcc/nios2-elf/10.3.1/../../../../../H-x86_64-mingw32/nios2-elf/lib\libc.a(lib_a-openr.o) (open)
d:/Downloads/RFS/DE10_Nano_WiFi_Web_Server/software/ewaff_server_bsp/\libhal_bsp.a(alt_read.o)
                              d:/intel_fpga/nios2eds/bin/gnu/h-x86_64-mingw32/bin/../lib/gcc/nios2-elf/10.3.1/../../../../../H-x86_64-mingw32/nios2-elf/lib\libc.a(lib_a-readr.o) (read)
d:/Downloads/RFS/DE10_Nano_WiFi_Web_Server/software/ewaff_server_bsp/\libhal_bsp.a(alt_release_fd.o)
                              d:/Downloads/RFS/DE10_Nano_WiFi_Web_Server/software/ewaff_server_bsp/\libhal_bsp.a(alt_close.o) (alt_release_fd)
d:/Downloads/RFS/DE10_Nano_WiFi_Web_Server/software/ewaff_server_bsp/\libhal_bsp.a(alt_sbrk.o)
                              d:/intel_fpga/nios2eds/bin/gnu/h-x86_64-mingw32/bin/../lib/gcc/nios2-elf/10.3.1/../../../../../H-x86_64-mingw32/nios2-elf/lib\libc.a(lib_a-sbrkr.o) (sbrk)
d:/Downloads/RFS/DE10_Nano_WiFi_Web_Server/software/ewaff_server_bsp/\libhal_bsp.a(alt_usleep.o)
                              obj/default/esp8266.o (usleep)
d:/Downloads/RFS/DE10_Nano_WiFi_Web_Server/software/ewaff_server_bsp/\libhal_bsp.a(alt_write.o)
                              obj/default/esp8266.o (write)
d:/Downloads/RFS/DE10_Nano_WiFi_Web_Server/software/ewaff_server_bsp/\libhal_bsp.a(alt_sys_init.o)
                              d:/Downloads/RFS/DE10_Nano_WiFi_Web_Server/software/ewaff_server_bsp/\libhal_bsp.a(alt_main.o) (alt_irq_init)
d:/Downloads/RFS/DE10_Nano_WiFi_Web_Server/software/ewaff_server_bsp/\libhal_bsp.a(altera_avalon_jtag_uart_fd.o)
                              d:/Downloads/RFS/DE10_Nano_WiFi_Web_Server/software/ewaff_server_bsp/\libhal_bsp.a(alt_sys_init.o) (altera_avalon_jtag_uart_read_fd)
d:/Downloads/RFS/DE10_Nano_WiFi_Web_Server/software/ewaff_server_bsp/\libhal_bsp.a(altera_avalon_jtag_uart_init.o)
                              d:/Downloads/RFS/DE10_Nano_WiFi_Web_Server/software/ewaff_server_bsp/\libhal_bsp.a(alt_sys_init.o) (altera_avalon_jtag_uart_init)
d:/Downloads/RFS/DE10_Nano_WiFi_Web_Server/software/ewaff_server_bsp/\libhal_bsp.a(altera_avalon_jtag_uart_ioctl.o)
                              d:/Downloads/RFS/DE10_Nano_WiFi_Web_Server/software/ewaff_server_bsp/\libhal_bsp.a(altera_avalon_jtag_uart_fd.o) (altera_avalon_jtag_uart_ioctl)
d:/Downloads/RFS/DE10_Nano_WiFi_Web_Server/software/ewaff_server_bsp/\libhal_bsp.a(altera_avalon_jtag_uart_read.o)
                              d:/Downloads/RFS/DE10_Nano_WiFi_Web_Server/software/ewaff_server_bsp/\libhal_bsp.a(altera_avalon_jtag_uart_fd.o) (altera_avalon_jtag_uart_read)
d:/Downloads/RFS/DE10_Nano_WiFi_Web_Server/software/ewaff_server_bsp/\libhal_bsp.a(altera_avalon_jtag_uart_write.o)
                              d:/Downloads/RFS/DE10_Nano_WiFi_Web_Server/software/ewaff_server_bsp/\libhal_bsp.a(altera_avalon_jtag_uart_fd.o) (altera_avalon_jtag_uart_write)
d:/Downloads/RFS/DE10_Nano_WiFi_Web_Server/software/ewaff_server_bsp/\libhal_bsp.a(altera_avalon_timer_sc.o)
                              d:/Downloads/RFS/DE10_Nano_WiFi_Web_Server/software/ewaff_server_bsp/\libhal_bsp.a(alt_sys_init.o) (alt_avalon_timer_sc_init)
d:/Downloads/RFS/DE10_Nano_WiFi_Web_Server/software/ewaff_server_bsp/\libhal_bsp.a(altera_avalon_uart_fd.o)
                              d:/Downloads/RFS/DE10_Nano_WiFi_Web_Server/software/ewaff_server_bsp/\libhal_bsp.a(alt_sys_init.o) (altera_avalon_uart_read_fd)
d:/Downloads/RFS/DE10_Nano_WiFi_Web_Server/software/ewaff_server_bsp/\libhal_bsp.a(altera_avalon_uart_init.o)
                              d:/Downloads/RFS/DE10_Nano_WiFi_Web_Server/software/ewaff_server_bsp/\libhal_bsp.a(alt_sys_init.o) (altera_avalon_uart_init)
d:/Downloads/RFS/DE10_Nano_WiFi_Web_Server/software/ewaff_server_bsp/\libhal_bsp.a(altera_avalon_uart_read.o)
                              d:/Downloads/RFS/DE10_Nano_WiFi_Web_Server/software/ewaff_server_bsp/\libhal_bsp.a(altera_avalon_uart_fd.o) (altera_avalon_uart_read)
d:/Downloads/RFS/DE10_Nano_WiFi_Web_Server/software/ewaff_server_bsp/\libhal_bsp.a(altera_avalon_uart_write.o)
                              d:/Downloads/RFS/DE10_Nano_WiFi_Web_Server/software/ewaff_server_bsp/\libhal_bsp.a(altera_avalon_uart_fd.o) (altera_avalon_uart_write)
d:/Downloads/RFS/DE10_Nano_WiFi_Web_Server/software/ewaff_server_bsp/\libhal_bsp.a(alt_alarm_start.o)
                              d:/Downloads/RFS/DE10_Nano_WiFi_Web_Server/software/ewaff_server_bsp/\libhal_bsp.a(altera_avalon_jtag_uart_init.o) (alt_alarm_start)
d:/Downloads/RFS/DE10_Nano_WiFi_Web_Server/software/ewaff_server_bsp/\libhal_bsp.a(alt_busy_sleep.o)
                              d:/Downloads/RFS/DE10_Nano_WiFi_Web_Server/software/ewaff_server_bsp/\libhal_bsp.a(alt_usleep.o) (alt_busy_sleep)
d:/Downloads/RFS/DE10_Nano_WiFi_Web_Server/software/ewaff_server_bsp/\libhal_bsp.a(alt_dcache_flush_all.o)
                              d:/Downloads/RFS/DE10_Nano_WiFi_Web_Server/software/ewaff_server_bsp/\libhal_bsp.a(alt_load.o) (alt_dcache_flush_all)
d:/Downloads/RFS/DE10_Nano_WiFi_Web_Server/software/ewaff_server_bsp/\libhal_bsp.a(alt_dev_llist_insert.o)
                              d:/Downloads/RFS/DE10_Nano_WiFi_Web_Server/software/ewaff_server_bsp/\libhal_bsp.a(alt_sys_init.o) (alt_dev_llist_insert)
d:/Downloads/RFS/DE10_Nano_WiFi_Web_Server/software/ewaff_server_bsp/\libhal_bsp.a(alt_do_ctors.o)
                              d:/Downloads/RFS/DE10_Nano_WiFi_Web_Server/software/ewaff_server_bsp/\libhal_bsp.a(alt_main.o) (_do_ctors)
d:/Downloads/RFS/DE10_Nano_WiFi_Web_Server/software/ewaff_server_bsp/\libhal_bsp.a(alt_do_dtors.o)
                              d:/Downloads/RFS/DE10_Nano_WiFi_Web_Server/software/ewaff_server_bsp/\libhal_bsp.a(alt_main.o) (_do_dtors)
d:/Downloads/RFS/DE10_Nano_WiFi_Web_Server/software/ewaff_server_bsp/\libhal_bsp.a(alt_find_dev.o)
                              d:/Downloads/RFS/DE10_Nano_WiFi_Web_Server/software/ewaff_server_bsp/\libhal_bsp.a(alt_open.o) (alt_find_dev)
d:/Downloads/RFS/DE10_Nano_WiFi_Web_Server/software/ewaff_server_bsp/\libhal_bsp.a(alt_find_file.o)
                              d:/Downloads/RFS/DE10_Nano_WiFi_Web_Server/software/ewaff_server_bsp/\libhal_bsp.a(alt_open.o) (alt_find_file)
d:/Downloads/RFS/DE10_Nano_WiFi_Web_Server/software/ewaff_server_bsp/\libhal_bsp.a(alt_get_fd.o)
                              d:/Downloads/RFS/DE10_Nano_WiFi_Web_Server/software/ewaff_server_bsp/\libhal_bsp.a(alt_open.o) (alt_get_fd)
d:/Downloads/RFS/DE10_Nano_WiFi_Web_Server/software/ewaff_server_bsp/\libhal_bsp.a(alt_icache_flush_all.o)
                              d:/Downloads/RFS/DE10_Nano_WiFi_Web_Server/software/ewaff_server_bsp/\libhal_bsp.a(alt_load.o) (alt_icache_flush_all)
d:/Downloads/RFS/DE10_Nano_WiFi_Web_Server/software/ewaff_server_bsp/\libhal_bsp.a(alt_iic.o)
                              d:/Downloads/RFS/DE10_Nano_WiFi_Web_Server/software/ewaff_server_bsp/\libhal_bsp.a(altera_avalon_jtag_uart_init.o) (alt_ic_isr_register)
d:/Downloads/RFS/DE10_Nano_WiFi_Web_Server/software/ewaff_server_bsp/\libhal_bsp.a(alt_iic_isr_register.o)
                              d:/Downloads/RFS/DE10_Nano_WiFi_Web_Server/software/ewaff_server_bsp/\libhal_bsp.a(alt_iic.o) (alt_iic_isr_register)
d:/Downloads/RFS/DE10_Nano_WiFi_Web_Server/software/ewaff_server_bsp/\libhal_bsp.a(alt_io_redirect.o)
                              d:/Downloads/RFS/DE10_Nano_WiFi_Web_Server/software/ewaff_server_bsp/\libhal_bsp.a(alt_main.o) (alt_io_redirect)
d:/Downloads/RFS/DE10_Nano_WiFi_Web_Server/software/ewaff_server_bsp/\libhal_bsp.a(alt_irq_entry.o)
                              d:/Downloads/RFS/DE10_Nano_WiFi_Web_Server/software/ewaff_server_bsp/\libhal_bsp.a(alt_iic_isr_register.o) (alt_irq_entry)
d:/Downloads/RFS/DE10_Nano_WiFi_Web_Server/software/ewaff_server_bsp/\libhal_bsp.a(alt_irq_handler.o)
                              d:/Downloads/RFS/DE10_Nano_WiFi_Web_Server/software/ewaff_server_bsp/\libhal_bsp.a(alt_iic_isr_register.o) (alt_irq)
d:/Downloads/RFS/DE10_Nano_WiFi_Web_Server/software/ewaff_server_bsp/\libhal_bsp.a(alt_irq_vars.o)
                              d:/Downloads/RFS/DE10_Nano_WiFi_Web_Server/software/ewaff_server_bsp/\libhal_bsp.a(alt_iic.o) (alt_irq_active)
d:/Downloads/RFS/DE10_Nano_WiFi_Web_Server/software/ewaff_server_bsp/\libhal_bsp.a(alt_tick.o)
                              d:/Downloads/RFS/DE10_Nano_WiFi_Web_Server/software/ewaff_server_bsp/\libhal_bsp.a(altera_avalon_jtag_uart_init.o) (_alt_tick_rate)
d:/Downloads/RFS/DE10_Nano_WiFi_Web_Server/software/ewaff_server_bsp/\libhal_bsp.a(altera_nios2_gen2_irq.o)
                              d:/Downloads/RFS/DE10_Nano_WiFi_Web_Server/software/ewaff_server_bsp/\libhal_bsp.a(alt_sys_init.o) (altera_nios2_gen2_irq_init)
d:/Downloads/RFS/DE10_Nano_WiFi_Web_Server/software/ewaff_server_bsp/\libhal_bsp.a(alt_exception_entry.o)
                              d:/Downloads/RFS/DE10_Nano_WiFi_Web_Server/software/ewaff_server_bsp/\libhal_bsp.a(alt_irq_entry.o) (alt_exception)
d:/Downloads/RFS/DE10_Nano_WiFi_Web_Server/software/ewaff_server_bsp/\libhal_bsp.a(alt_icache_flush.o)
                              d:/Downloads/RFS/DE10_Nano_WiFi_Web_Server/software/ewaff_server_bsp/\libhal_bsp.a(alt_icache_flush_all.o) (alt_icache_flush)
d:/Downloads/RFS/DE10_Nano_WiFi_Web_Server/software/ewaff_server_bsp/\libhal_bsp.a(alt_instruction_exception_entry.o)
                              d:/Downloads/RFS/DE10_Nano_WiFi_Web_Server/software/ewaff_server_bsp/\libhal_bsp.a(alt_exception_entry.o) (alt_instruction_exception_entry)
d:/intel_fpga/nios2eds/bin/gnu/h-x86_64-mingw32/bin/../lib/gcc/nios2-elf/10.3.1/../../../../../H-x86_64-mingw32/nios2-elf/lib\libc.a(lib_a-atexit.o)
                              d:/Downloads/RFS/DE10_Nano_WiFi_Web_Server/software/ewaff_server_bsp/\libhal_bsp.a(alt_main.o) (atexit)
d:/intel_fpga/nios2eds/bin/gnu/h-x86_64-mingw32/bin/../lib/gcc/nios2-elf/10.3.1/../../../../../H-x86_64-mingw32/nios2-elf/lib\libc.a(lib_a-exit.o)
                              d:/Downloads/RFS/DE10_Nano_WiFi_Web_Server/software/ewaff_server_bsp/\libhal_bsp.a(alt_main.o) (exit)
d:/intel_fpga/nios2eds/bin/gnu/h-x86_64-mingw32/bin/../lib/gcc/nios2-elf/10.3.1/../../../../../H-x86_64-mingw32/nios2-elf/lib\libc.a(lib_a-__atexit.o)
                              d:/intel_fpga/nios2eds/bin/gnu/h-x86_64-mingw32/bin/../lib/gcc/nios2-elf/10.3.1/../../../../../H-x86_64-mingw32/nios2-elf/lib\libc.a(lib_a-atexit.o) (__register_exitproc)
d:/intel_fpga/nios2eds/bin/gnu/h-x86_64-mingw32/bin/../lib/gcc/nios2-elf/10.3.1/../../../../../H-x86_64-mingw32/nios2-elf/lib\libc.a(lib_a-__call_atexit.o)
                              d:/intel_fpga/nios2eds/bin/gnu/h-x86_64-mingw32/bin/../lib/gcc/nios2-elf/10.3.1/../../../../../H-x86_64-mingw32/nios2-elf/lib\libc.a(lib_a-exit.o) (__call_exitprocs)

Memory Configuration

Name             Origin             Length             Attributes
reset            0x0000000000040000 0x0000000000000020
onchip_memory2   0x0000000000040020 0x00000000000249d0
*default*        0x0000000000000000 0xffffffffffffffff

Linker script and memory map

LOAD d:/Downloads/RFS/DE10_Nano_WiFi_Web_Server/software/ewaff_server_bsp//obj/HAL/src/crt0.o
LOAD obj/default/esp8266.o
LOAD obj/default/main.o
LOAD d:/intel_fpga/nios2eds/bin/gnu/h-x86_64-mingw32/bin/../lib/gcc/nios2-elf/10.3.1/../../../../../H-x86_64-mingw32/nios2-elf/lib\libstdc++.a
LOAD d:/intel_fpga/nios2eds/bin/gnu/h-x86_64-mingw32/bin/../lib/gcc/nios2-elf/10.3.1/../../../../../H-x86_64-mingw32/nios2-elf/lib\libm.a
LOAD d:/intel_fpga/nios2eds/bin/gnu/h-x86_64-mingw32/bin/../lib/gcc/nios2-elf/10.3.1\libgcc.a
START GROUP
LOAD d:/intel_fpga/nios2eds/bin/gnu/h-x86_64-mingw32/bin/../lib/gcc/nios2-elf/10.3.1/../../../../../H-x86_64-mingw32/nios2-elf/lib\libc.a
LOAD d:/intel_fpga/nios2eds/bin/gnu/h-x86_64-mingw32/bin/../lib/gcc/nios2-elf/10.3.1\libgcc.a
LOAD d:/Downloads/RFS/DE10_Nano_WiFi_Web_Server/software/ewaff_server_bsp/\libhal_bsp.a
LOAD d:/intel_fpga/nios2eds/bin/gnu/h-x86_64-mingw32/bin/../lib/gcc/nios2-elf/10.3.1/../../../../../H-x86_64-mingw32/nios2-elf/lib\libm.a
END GROUP
LOAD d:/intel_fpga/nios2eds/bin/gnu/h-x86_64-mingw32/bin/../lib/gcc/nios2-elf/10.3.1\libgcc.a
                0x0000000000040000                __alt_mem_onchip_memory2 = 0x40000

.entry          0x0000000000040000       0x20
 *(.entry)
 .entry         0x0000000000040000       0x20 d:/Downloads/RFS/DE10_Nano_WiFi_Web_Server/software/ewaff_server_bsp//obj/HAL/src/crt0.o
                0x0000000000040000                __reset

.exceptions     0x0000000000040020      0x218
                0x0000000000040020                PROVIDE (__ram_exceptions_start = ABSOLUTE (.))
                0x0000000000040020                . = ALIGN (0x20)
 *(.irq)
 *(.exceptions.entry.label)
 .exceptions.entry.label
                0x0000000000040020        0x0 d:/Downloads/RFS/DE10_Nano_WiFi_Web_Server/software/ewaff_server_bsp/\libhal_bsp.a(alt_irq_entry.o)
                0x0000000000040020                alt_irq_entry
 .exceptions.entry.label
                0x0000000000040020        0x0 d:/Downloads/RFS/DE10_Nano_WiFi_Web_Server/software/ewaff_server_bsp/\libhal_bsp.a(alt_exception_entry.o)
                0x0000000000040020                alt_exception
 *(.exceptions.entry.user)
 *(.exceptions.entry.ecc_fatal)
 *(.exceptions.entry)
 .exceptions.entry
                0x0000000000040020       0x54 d:/Downloads/RFS/DE10_Nano_WiFi_Web_Server/software/ewaff_server_bsp/\libhal_bsp.a(alt_exception_entry.o)
 *(.exceptions.irqtest.user)
 *(.exceptions.irqtest)
 .exceptions.irqtest
                0x0000000000040074       0x10 d:/Downloads/RFS/DE10_Nano_WiFi_Web_Server/software/ewaff_server_bsp/\libhal_bsp.a(alt_irq_entry.o)
 *(.exceptions.irqhandler.user)
 *(.exceptions.irqhandler)
 .exceptions.irqhandler
                0x0000000000040084        0x4 d:/Downloads/RFS/DE10_Nano_WiFi_Web_Server/software/ewaff_server_bsp/\libhal_bsp.a(alt_irq_entry.o)
 *(.exceptions.irqreturn.user)
 *(.exceptions.irqreturn)
 .exceptions.irqreturn
                0x0000000000040088        0x4 d:/Downloads/RFS/DE10_Nano_WiFi_Web_Server/software/ewaff_server_bsp/\libhal_bsp.a(alt_irq_entry.o)
 *(.exceptions.notirq.label)
 .exceptions.notirq.label
                0x000000000004008c        0x0 d:/Downloads/RFS/DE10_Nano_WiFi_Web_Server/software/ewaff_server_bsp/\libhal_bsp.a(alt_irq_entry.o)
 *(.exceptions.notirq.user)
 *(.exceptions.notirq)
 .exceptions.notirq
                0x000000000004008c        0x8 d:/Downloads/RFS/DE10_Nano_WiFi_Web_Server/software/ewaff_server_bsp/\libhal_bsp.a(alt_exception_entry.o)
 *(.exceptions.soft.user)
 *(.exceptions.soft)
 *(.exceptions.unknown.user)
 *(.exceptions.unknown)
 .exceptions.unknown
                0x0000000000040094       0x14 d:/Downloads/RFS/DE10_Nano_WiFi_Web_Server/software/ewaff_server_bsp/\libhal_bsp.a(alt_exception_entry.o)
 *(.exceptions.exit.label)
 .exceptions.exit.label
                0x00000000000400a8        0x0 d:/Downloads/RFS/DE10_Nano_WiFi_Web_Server/software/ewaff_server_bsp/\libhal_bsp.a(alt_irq_entry.o)
 .exceptions.exit.label
                0x00000000000400a8        0x0 d:/Downloads/RFS/DE10_Nano_WiFi_Web_Server/software/ewaff_server_bsp/\libhal_bsp.a(alt_exception_entry.o)
 *(.exceptions.exit.user)
 *(.exceptions.exit)
 .exceptions.exit
                0x00000000000400a8       0x54 d:/Downloads/RFS/DE10_Nano_WiFi_Web_Server/software/ewaff_server_bsp/\libhal_bsp.a(alt_exception_entry.o)
 *(.exceptions)
 .exceptions    0x00000000000400fc       0xc8 d:/Downloads/RFS/DE10_Nano_WiFi_Web_Server/software/ewaff_server_bsp/\libhal_bsp.a(alt_irq_handler.o)
                0x00000000000400fc                alt_irq_handler
 .exceptions    0x00000000000401c4       0x74 d:/Downloads/RFS/DE10_Nano_WiFi_Web_Server/software/ewaff_server_bsp/\libhal_bsp.a(alt_instruction_exception_entry.o)
                0x00000000000401c4                alt_instruction_exception_entry
                0x0000000000040238                PROVIDE (__ram_exceptions_end = ABSOLUTE (.))
                0x0000000000040020                PROVIDE (__flash_exceptions_start = LOADADDR (.exceptions))

.text           0x0000000000040238    0x1cb3c
                [!provide]                        PROVIDE (stext = ABSOLUTE (.))
 *(.interp)
 *(.hash)
 *(.dynsym)
 *(.dynstr)
 *(.gnu.version)
 *(.gnu.version_d)
 *(.gnu.version_r)
 *(.rel.init)
 *(.rela.init)
 *(.rel.text .rel.text.* .rel.gnu.linkonce.t.*)
 *(.rela.text .rela.text.* .rela.gnu.linkonce.t.*)
 *(.rel.fini)
 *(.rela.fini)
 *(.rel.rodata .rel.rodata.* .rel.gnu.linkonce.r.*)
 *(.rela.rodata .rela.rodata.* .rela.gnu.linkonce.r.*)
 *(.rel.data .rel.data.* .rel.gnu.linkonce.d.*)
 *(.rela.data .rela.data.* .rela.gnu.linkonce.d.*)
 *(.rel.tdata .rel.tdata.* .rel.gnu.linkonce.td.*)
 *(.rela.tdata .rela.tdata.* .rela.gnu.linkonce.td.*)
 *(.rel.tbss .rel.tbss.* .rel.gnu.linkonce.tb.*)
 *(.rela.tbss .rela.tbss.* .rela.gnu.linkonce.tb.*)
 *(.rel.ctors)
 *(.rela.ctors)
 *(.rel.dtors)
 *(.rela.dtors)
 *(.rel.got)
 *(.rela.got)
 *(.rel.sdata .rel.sdata.* .rel.gnu.linkonce.s.*)
 *(.rela.sdata .rela.sdata.* .rela.gnu.linkonce.s.*)
 *(.rel.sbss .rel.sbss.* .rel.gnu.linkonce.sb.*)
 *(.rela.sbss .rela.sbss.* .rela.gnu.linkonce.sb.*)
 *(.rel.sdata2 .rel.sdata2.* .rel.gnu.linkonce.s2.*)
 *(.rela.sdata2 .rela.sdata2.* .rela.gnu.linkonce.s2.*)
 *(.rel.sbss2 .rel.sbss2.* .rel.gnu.linkonce.sb2.*)
 *(.rela.sbss2 .rela.sbss2.* .rela.gnu.linkonce.sb2.*)
 *(.rel.bss .rel.bss.* .rel.gnu.linkonce.b.*)
 *(.rela.bss .rela.bss.* .rela.gnu.linkonce.b.*)
 *(.rel.plt)
 *(.rela.plt)
 *(.rel.dyn)
 *(.init)
 *(.plt)
 *(.text .stub .text.* .gnu.linkonce.t.*)
 .text          0x0000000000040238       0x4c d:/Downloads/RFS/DE10_Nano_WiFi_Web_Server/software/ewaff_server_bsp//obj/HAL/src/crt0.o
                0x0000000000040238                _start
 .text          0x0000000000040284     0x14a0 obj/default/esp8266.o
                0x0000000000040284                set_esp8266_file_blocking
                0x000000000004032c                esp8266_init
                0x00000000000403f4                get_line_noblock
                0x000000000004048c                esp8266_send_command
                0x00000000000405dc                esp8266_send_data
                0x00000000000406fc                esp8266_dump_rx
                0x0000000000040764                http_request_parse
                0x00000000000408f4                http_response_send
                0x0000000000040ad4                led_response
                0x0000000000040c2c                fire_response
                0x0000000000040d34                fire_react
                0x000000000004101c                esp8266_listen
 .text          0x0000000000041724       0x40 obj/default/main.o
                0x0000000000041724                main
 .text          0x0000000000041764       0x70 d:/intel_fpga/nios2eds/bin/gnu/h-x86_64-mingw32/bin/../lib/gcc/nios2-elf/10.3.1\libgcc.a(fixsfsi.o)
                0x0000000000041764                __fixsfsi
 .text          0x00000000000417d4        0x0 d:/intel_fpga/nios2eds/bin/gnu/h-x86_64-mingw32/bin/../lib/gcc/nios2-elf/10.3.1/../../../../../H-x86_64-mingw32/nios2-elf/lib\libc.a(lib_a-fflush.o)
 .text.__sflush_r
                0x00000000000417d4      0x228 d:/intel_fpga/nios2eds/bin/gnu/h-x86_64-mingw32/bin/../lib/gcc/nios2-elf/10.3.1/../../../../../H-x86_64-mingw32/nios2-elf/lib\libc.a(lib_a-fflush.o)
                0x00000000000417d4                __sflush_r
 .text._fflush_r
                0x00000000000419fc       0x60 d:/intel_fpga/nios2eds/bin/gnu/h-x86_64-mingw32/bin/../lib/gcc/nios2-elf/10.3.1/../../../../../H-x86_64-mingw32/nios2-elf/lib\libc.a(lib_a-fflush.o)
                0x00000000000419fc                _fflush_r
 .text.fflush   0x0000000000041a5c       0x84 d:/intel_fpga/nios2eds/bin/gnu/h-x86_64-mingw32/bin/../lib/gcc/nios2-elf/10.3.1/../../../../../H-x86_64-mingw32/nios2-elf/lib\libc.a(lib_a-fflush.o)
                0x0000000000041a5c                fflush
 .text          0x0000000000041ae0        0x0 d:/intel_fpga/nios2eds/bin/gnu/h-x86_64-mingw32/bin/../lib/gcc/nios2-elf/10.3.1/../../../../../H-x86_64-mingw32/nios2-elf/lib\libc.a(lib_a-fgetc.o)
 .text._fgetc_r
                0x0000000000041ae0       0x7c d:/intel_fpga/nios2eds/bin/gnu/h-x86_64-mingw32/bin/../lib/gcc/nios2-elf/10.3.1/../../../../../H-x86_64-mingw32/nios2-elf/lib\libc.a(lib_a-fgetc.o)
                0x0000000000041ae0                _fgetc_r
 .text.fgetc    0x0000000000041b5c       0x90 d:/intel_fpga/nios2eds/bin/gnu/h-x86_64-mingw32/bin/../lib/gcc/nios2-elf/10.3.1/../../../../../H-x86_64-mingw32/nios2-elf/lib\libc.a(lib_a-fgetc.o)
                0x0000000000041b5c                fgetc
 .text          0x0000000000041bec        0x0 d:/intel_fpga/nios2eds/bin/gnu/h-x86_64-mingw32/bin/../lib/gcc/nios2-elf/10.3.1/../../../../../H-x86_64-mingw32/nios2-elf/lib\libc.a(lib_a-fgets.o)
 .text._fgets_r
                0x0000000000041bec      0x154 d:/intel_fpga/nios2eds/bin/gnu/h-x86_64-mingw32/bin/../lib/gcc/nios2-elf/10.3.1/../../../../../H-x86_64-mingw32/nios2-elf/lib\libc.a(lib_a-fgets.o)
                0x0000000000041bec                _fgets_r
 .text.fgets    0x0000000000041d40       0x1c d:/intel_fpga/nios2eds/bin/gnu/h-x86_64-mingw32/bin/../lib/gcc/nios2-elf/10.3.1/../../../../../H-x86_64-mingw32/nios2-elf/lib\libc.a(lib_a-fgets.o)
                0x0000000000041d40                fgets
 .text          0x0000000000041d5c        0x0 d:/intel_fpga/nios2eds/bin/gnu/h-x86_64-mingw32/bin/../lib/gcc/nios2-elf/10.3.1/../../../../../H-x86_64-mingw32/nios2-elf/lib\libc.a(lib_a-fileno.o)
 .text.fileno   0x0000000000041d5c       0x64 d:/intel_fpga/nios2eds/bin/gnu/h-x86_64-mingw32/bin/../lib/gcc/nios2-elf/10.3.1/../../../../../H-x86_64-mingw32/nios2-elf/lib\libc.a(lib_a-fileno.o)
                0x0000000000041d5c                fileno
 .text          0x0000000000041dc0        0x0 d:/intel_fpga/nios2eds/bin/gnu/h-x86_64-mingw32/bin/../lib/gcc/nios2-elf/10.3.1/../../../../../H-x86_64-mingw32/nios2-elf/lib\libc.a(lib_a-findfp.o)
 .text.__fp_lock
                0x0000000000041dc0        0x8 d:/intel_fpga/nios2eds/bin/gnu/h-x86_64-mingw32/bin/../lib/gcc/nios2-elf/10.3.1/../../../../../H-x86_64-mingw32/nios2-elf/lib\libc.a(lib_a-findfp.o)
 .text._cleanup_r
                0x0000000000041dc8        0xc d:/intel_fpga/nios2eds/bin/gnu/h-x86_64-mingw32/bin/../lib/gcc/nios2-elf/10.3.1/../../../../../H-x86_64-mingw32/nios2-elf/lib\libc.a(lib_a-findfp.o)
                0x0000000000041dc8                _cleanup_r
 .text.__fp_unlock
                0x0000000000041dd4        0x8 d:/intel_fpga/nios2eds/bin/gnu/h-x86_64-mingw32/bin/../lib/gcc/nios2-elf/10.3.1/../../../../../H-x86_64-mingw32/nios2-elf/lib\libc.a(lib_a-findfp.o)
 .text.__sinit.part.0
                0x0000000000041ddc      0x168 d:/intel_fpga/nios2eds/bin/gnu/h-x86_64-mingw32/bin/../lib/gcc/nios2-elf/10.3.1/../../../../../H-x86_64-mingw32/nios2-elf/lib\libc.a(lib_a-findfp.o)
 .text.__sfmoreglue
                0x0000000000041f44       0x68 d:/intel_fpga/nios2eds/bin/gnu/h-x86_64-mingw32/bin/../lib/gcc/nios2-elf/10.3.1/../../../../../H-x86_64-mingw32/nios2-elf/lib\libc.a(lib_a-findfp.o)
                0x0000000000041f44                __sfmoreglue
 .text.__sfp    0x0000000000041fac      0x154 d:/intel_fpga/nios2eds/bin/gnu/h-x86_64-mingw32/bin/../lib/gcc/nios2-elf/10.3.1/../../../../../H-x86_64-mingw32/nios2-elf/lib\libc.a(lib_a-findfp.o)
                0x0000000000041fac                __sfp
 .text._cleanup
                0x0000000000042100       0x14 d:/intel_fpga/nios2eds/bin/gnu/h-x86_64-mingw32/bin/../lib/gcc/nios2-elf/10.3.1/../../../../../H-x86_64-mingw32/nios2-elf/lib\libc.a(lib_a-findfp.o)
                0x0000000000042100                _cleanup
 .text.__sinit  0x0000000000042114       0x10 d:/intel_fpga/nios2eds/bin/gnu/h-x86_64-mingw32/bin/../lib/gcc/nios2-elf/10.3.1/../../../../../H-x86_64-mingw32/nios2-elf/lib\libc.a(lib_a-findfp.o)
                0x0000000000042114                __sinit
 .text.__sfp_lock_acquire
                0x0000000000042124        0x4 d:/intel_fpga/nios2eds/bin/gnu/h-x86_64-mingw32/bin/../lib/gcc/nios2-elf/10.3.1/../../../../../H-x86_64-mingw32/nios2-elf/lib\libc.a(lib_a-findfp.o)
                0x0000000000042124                __sfp_lock_acquire
 .text.__sfp_lock_release
                0x0000000000042128        0x4 d:/intel_fpga/nios2eds/bin/gnu/h-x86_64-mingw32/bin/../lib/gcc/nios2-elf/10.3.1/../../../../../H-x86_64-mingw32/nios2-elf/lib\libc.a(lib_a-findfp.o)
                0x0000000000042128                __sfp_lock_release
 .text.__sinit_lock_acquire
                0x000000000004212c        0x4 d:/intel_fpga/nios2eds/bin/gnu/h-x86_64-mingw32/bin/../lib/gcc/nios2-elf/10.3.1/../../../../../H-x86_64-mingw32/nios2-elf/lib\libc.a(lib_a-findfp.o)
                0x000000000004212c                __sinit_lock_acquire
 .text.__sinit_lock_release
                0x0000000000042130        0x4 d:/intel_fpga/nios2eds/bin/gnu/h-x86_64-mingw32/bin/../lib/gcc/nios2-elf/10.3.1/../../../../../H-x86_64-mingw32/nios2-elf/lib\libc.a(lib_a-findfp.o)
                0x0000000000042130                __sinit_lock_release
 .text.__fp_lock_all
                0x0000000000042134       0x14 d:/intel_fpga/nios2eds/bin/gnu/h-x86_64-mingw32/bin/../lib/gcc/nios2-elf/10.3.1/../../../../../H-x86_64-mingw32/nios2-elf/lib\libc.a(lib_a-findfp.o)
                0x0000000000042134                __fp_lock_all
 .text.__fp_unlock_all
                0x0000000000042148       0x14 d:/intel_fpga/nios2eds/bin/gnu/h-x86_64-mingw32/bin/../lib/gcc/nios2-elf/10.3.1/../../../../../H-x86_64-mingw32/nios2-elf/lib\libc.a(lib_a-findfp.o)
                0x0000000000042148                __fp_unlock_all
 .text          0x000000000004215c        0x0 d:/intel_fpga/nios2eds/bin/gnu/h-x86_64-mingw32/bin/../lib/gcc/nios2-elf/10.3.1/../../../../../H-x86_64-mingw32/nios2-elf/lib\libc.a(lib_a-fopen.o)
 .text._fopen_r
                0x000000000004215c       0xf0 d:/intel_fpga/nios2eds/bin/gnu/h-x86_64-mingw32/bin/../lib/gcc/nios2-elf/10.3.1/../../../../../H-x86_64-mingw32/nios2-elf/lib\libc.a(lib_a-fopen.o)
                0x000000000004215c                _fopen_r
 .text.fopen    0x000000000004224c       0x18 d:/intel_fpga/nios2eds/bin/gnu/h-x86_64-mingw32/bin/../lib/gcc/nios2-elf/10.3.1/../../../../../H-x86_64-mingw32/nios2-elf/lib\libc.a(lib_a-fopen.o)
                0x000000000004224c                fopen
 .text          0x0000000000042264        0x0 d:/intel_fpga/nios2eds/bin/gnu/h-x86_64-mingw32/bin/../lib/gcc/nios2-elf/10.3.1/../../../../../H-x86_64-mingw32/nios2-elf/lib\libc.a(lib_a-fprintf.o)
 .text._fprintf_r
                0x0000000000042264       0x28 d:/intel_fpga/nios2eds/bin/gnu/h-x86_64-mingw32/bin/../lib/gcc/nios2-elf/10.3.1/../../../../../H-x86_64-mingw32/nios2-elf/lib\libc.a(lib_a-fprintf.o)
                0x0000000000042264                _fprintf_r
 .text.fprintf  0x000000000004228c       0x24 d:/intel_fpga/nios2eds/bin/gnu/h-x86_64-mingw32/bin/../lib/gcc/nios2-elf/10.3.1/../../../../../H-x86_64-mingw32/nios2-elf/lib\libc.a(lib_a-fprintf.o)
                0x000000000004228c                fprintf
 .text          0x00000000000422b0        0x0 d:/intel_fpga/nios2eds/bin/gnu/h-x86_64-mingw32/bin/../lib/gcc/nios2-elf/10.3.1/../../../../../H-x86_64-mingw32/nios2-elf/lib\libc.a(lib_a-freer.o)
 .text._malloc_trim_r
                0x00000000000422b0      0x11c d:/intel_fpga/nios2eds/bin/gnu/h-x86_64-mingw32/bin/../lib/gcc/nios2-elf/10.3.1/../../../../../H-x86_64-mingw32/nios2-elf/lib\libc.a(lib_a-freer.o)
                0x00000000000422b0                _malloc_trim_r
 .text._free_r  0x00000000000423cc      0x2fc d:/intel_fpga/nios2eds/bin/gnu/h-x86_64-mingw32/bin/../lib/gcc/nios2-elf/10.3.1/../../../../../H-x86_64-mingw32/nios2-elf/lib\libc.a(lib_a-freer.o)
                0x00000000000423cc                _free_r
 .text          0x00000000000426c8        0x0 d:/intel_fpga/nios2eds/bin/gnu/h-x86_64-mingw32/bin/../lib/gcc/nios2-elf/10.3.1/../../../../../H-x86_64-mingw32/nios2-elf/lib\libc.a(lib_a-fseek.o)
 .text._fseek_r
                0x00000000000426c8        0x4 d:/intel_fpga/nios2eds/bin/gnu/h-x86_64-mingw32/bin/../lib/gcc/nios2-elf/10.3.1/../../../../../H-x86_64-mingw32/nios2-elf/lib\libc.a(lib_a-fseek.o)
                0x00000000000426c8                _fseek_r
 .text.fseek    0x00000000000426cc       0x1c d:/intel_fpga/nios2eds/bin/gnu/h-x86_64-mingw32/bin/../lib/gcc/nios2-elf/10.3.1/../../../../../H-x86_64-mingw32/nios2-elf/lib\libc.a(lib_a-fseek.o)
                0x00000000000426cc                fseek
 .text          0x00000000000426e8        0x0 d:/intel_fpga/nios2eds/bin/gnu/h-x86_64-mingw32/bin/../lib/gcc/nios2-elf/10.3.1/../../../../../H-x86_64-mingw32/nios2-elf/lib\libc.a(lib_a-fseeko.o)
 .text._fseeko_r
                0x00000000000426e8      0x454 d:/intel_fpga/nios2eds/bin/gnu/h-x86_64-mingw32/bin/../lib/gcc/nios2-elf/10.3.1/../../../../../H-x86_64-mingw32/nios2-elf/lib\libc.a(lib_a-fseeko.o)
                0x00000000000426e8                _fseeko_r
 .text.fseeko   0x0000000000042b3c       0x1c d:/intel_fpga/nios2eds/bin/gnu/h-x86_64-mingw32/bin/../lib/gcc/nios2-elf/10.3.1/../../../../../H-x86_64-mingw32/nios2-elf/lib\libc.a(lib_a-fseeko.o)
                0x0000000000042b3c                fseeko
 .text          0x0000000000042b58        0x0 d:/intel_fpga/nios2eds/bin/gnu/h-x86_64-mingw32/bin/../lib/gcc/nios2-elf/10.3.1/../../../../../H-x86_64-mingw32/nios2-elf/lib\libc.a(lib_a-fstatr.o)
 .text._fstat_r
                0x0000000000042b58       0x60 d:/intel_fpga/nios2eds/bin/gnu/h-x86_64-mingw32/bin/../lib/gcc/nios2-elf/10.3.1/../../../../../H-x86_64-mingw32/nios2-elf/lib\libc.a(lib_a-fstatr.o)
                0x0000000000042b58                _fstat_r
 .text          0x0000000000042bb8        0x0 d:/intel_fpga/nios2eds/bin/gnu/h-x86_64-mingw32/bin/../lib/gcc/nios2-elf/10.3.1/../../../../../H-x86_64-mingw32/nios2-elf/lib\libc.a(lib_a-fwalk.o)
 .text._fwalk   0x0000000000042bb8       0x98 d:/intel_fpga/nios2eds/bin/gnu/h-x86_64-mingw32/bin/../lib/gcc/nios2-elf/10.3.1/../../../../../H-x86_64-mingw32/nios2-elf/lib\libc.a(lib_a-fwalk.o)
                0x0000000000042bb8                _fwalk
 .text._fwalk_reent
                0x0000000000042c50       0xa8 d:/intel_fpga/nios2eds/bin/gnu/h-x86_64-mingw32/bin/../lib/gcc/nios2-elf/10.3.1/../../../../../H-x86_64-mingw32/nios2-elf/lib\libc.a(lib_a-fwalk.o)
                0x0000000000042c50                _fwalk_reent
 .text          0x0000000000042cf8        0x0 d:/intel_fpga/nios2eds/bin/gnu/h-x86_64-mingw32/bin/../lib/gcc/nios2-elf/10.3.1/../../../../../H-x86_64-mingw32/nios2-elf/lib\libc.a(lib_a-impure.o)
 .text          0x0000000000042cf8        0x0 d:/intel_fpga/nios2eds/bin/gnu/h-x86_64-mingw32/bin/../lib/gcc/nios2-elf/10.3.1/../../../../../H-x86_64-mingw32/nios2-elf/lib\libc.a(lib_a-int_errno.o)
 .text          0x0000000000042cf8        0x0 d:/intel_fpga/nios2eds/bin/gnu/h-x86_64-mingw32/bin/../lib/gcc/nios2-elf/10.3.1/../../../../../H-x86_64-mingw32/nios2-elf/lib\libc.a(lib_a-makebuf.o)
 .text.__smakebuf_r
                0x0000000000042cf8      0x1b0 d:/intel_fpga/nios2eds/bin/gnu/h-x86_64-mingw32/bin/../lib/gcc/nios2-elf/10.3.1/../../../../../H-x86_64-mingw32/nios2-elf/lib\libc.a(lib_a-makebuf.o)
                0x0000000000042cf8                __smakebuf_r
 .text.__swhatbuf_r
                0x0000000000042ea8       0x98 d:/intel_fpga/nios2eds/bin/gnu/h-x86_64-mingw32/bin/../lib/gcc/nios2-elf/10.3.1/../../../../../H-x86_64-mingw32/nios2-elf/lib\libc.a(lib_a-makebuf.o)
                0x0000000000042ea8                __swhatbuf_r
 .text          0x0000000000042f40        0x0 d:/intel_fpga/nios2eds/bin/gnu/h-x86_64-mingw32/bin/../lib/gcc/nios2-elf/10.3.1/../../../../../H-x86_64-mingw32/nios2-elf/lib\libc.a(lib_a-malloc.o)
 .text.malloc   0x0000000000042f40       0x10 d:/intel_fpga/nios2eds/bin/gnu/h-x86_64-mingw32/bin/../lib/gcc/nios2-elf/10.3.1/../../../../../H-x86_64-mingw32/nios2-elf/lib\libc.a(lib_a-malloc.o)
                0x0000000000042f40                malloc
 .text.free     0x0000000000042f50       0x10 d:/intel_fpga/nios2eds/bin/gnu/h-x86_64-mingw32/bin/../lib/gcc/nios2-elf/10.3.1/../../../../../H-x86_64-mingw32/nios2-elf/lib\libc.a(lib_a-malloc.o)
                0x0000000000042f50                free
 .text          0x0000000000042f60        0x0 d:/intel_fpga/nios2eds/bin/gnu/h-x86_64-mingw32/bin/../lib/gcc/nios2-elf/10.3.1/../../../../../H-x86_64-mingw32/nios2-elf/lib\libc.a(lib_a-mallocr.o)
 .text._malloc_r
                0x0000000000042f60      0x7e0 d:/intel_fpga/nios2eds/bin/gnu/h-x86_64-mingw32/bin/../lib/gcc/nios2-elf/10.3.1/../../../../../H-x86_64-mingw32/nios2-elf/lib\libc.a(lib_a-mallocr.o)
                0x0000000000042f60                _malloc_r
 .text          0x0000000000043740        0x0 d:/intel_fpga/nios2eds/bin/gnu/h-x86_64-mingw32/bin/../lib/gcc/nios2-elf/10.3.1/../../../../../H-x86_64-mingw32/nios2-elf/lib\libc.a(lib_a-memchr.o)
 .text.memchr   0x0000000000043740       0xd0 d:/intel_fpga/nios2eds/bin/gnu/h-x86_64-mingw32/bin/../lib/gcc/nios2-elf/10.3.1/../../../../../H-x86_64-mingw32/nios2-elf/lib\libc.a(lib_a-memchr.o)
                0x0000000000043740                memchr
 .text          0x0000000000043810        0x0 d:/intel_fpga/nios2eds/bin/gnu/h-x86_64-mingw32/bin/../lib/gcc/nios2-elf/10.3.1/../../../../../H-x86_64-mingw32/nios2-elf/lib\libc.a(lib_a-memcpy.o)
 .text.memcpy   0x0000000000043810      0x100 d:/intel_fpga/nios2eds/bin/gnu/h-x86_64-mingw32/bin/../lib/gcc/nios2-elf/10.3.1/../../../../../H-x86_64-mingw32/nios2-elf/lib\libc.a(lib_a-memcpy.o)
                0x0000000000043810                memcpy
 .text          0x0000000000043910        0x0 d:/intel_fpga/nios2eds/bin/gnu/h-x86_64-mingw32/bin/../lib/gcc/nios2-elf/10.3.1/../../../../../H-x86_64-mingw32/nios2-elf/lib\libc.a(lib_a-memset.o)
 .text.memset   0x0000000000043910       0xf0 d:/intel_fpga/nios2eds/bin/gnu/h-x86_64-mingw32/bin/../lib/gcc/nios2-elf/10.3.1/../../../../../H-x86_64-mingw32/nios2-elf/lib\libc.a(lib_a-memset.o)
                0x0000000000043910                memset
 .text          0x0000000000043a00        0x0 d:/intel_fpga/nios2eds/bin/gnu/h-x86_64-mingw32/bin/../lib/gcc/nios2-elf/10.3.1/../../../../../H-x86_64-mingw32/nios2-elf/lib\libc.a(lib_a-openr.o)
 .text._open_r  0x0000000000043a00       0x64 d:/intel_fpga/nios2eds/bin/gnu/h-x86_64-mingw32/bin/../lib/gcc/nios2-elf/10.3.1/../../../../../H-x86_64-mingw32/nios2-elf/lib\libc.a(lib_a-openr.o)
                0x0000000000043a00                _open_r
 .text          0x0000000000043a64        0x0 d:/intel_fpga/nios2eds/bin/gnu/h-x86_64-mingw32/bin/../lib/gcc/nios2-elf/10.3.1/../../../../../H-x86_64-mingw32/nios2-elf/lib\libc.a(lib_a-printf.o)
 .text._printf_r
                0x0000000000043a64       0x30 d:/intel_fpga/nios2eds/bin/gnu/h-x86_64-mingw32/bin/../lib/gcc/nios2-elf/10.3.1/../../../../../H-x86_64-mingw32/nios2-elf/lib\libc.a(lib_a-printf.o)
                0x0000000000043a64                _printf_r
 .text.printf   0x0000000000043a94       0x38 d:/intel_fpga/nios2eds/bin/gnu/h-x86_64-mingw32/bin/../lib/gcc/nios2-elf/10.3.1/../../../../../H-x86_64-mingw32/nios2-elf/lib\libc.a(lib_a-printf.o)
                0x0000000000043a94                printf
 .text          0x0000000000043acc        0x0 d:/intel_fpga/nios2eds/bin/gnu/h-x86_64-mingw32/bin/../lib/gcc/nios2-elf/10.3.1/../../../../../H-x86_64-mingw32/nios2-elf/lib\libc.a(lib_a-puts.o)
 .text._puts_r  0x0000000000043acc       0xcc d:/intel_fpga/nios2eds/bin/gnu/h-x86_64-mingw32/bin/../lib/gcc/nios2-elf/10.3.1/../../../../../H-x86_64-mingw32/nios2-elf/lib\libc.a(lib_a-puts.o)
                0x0000000000043acc                _puts_r
 .text.puts     0x0000000000043b98       0x10 d:/intel_fpga/nios2eds/bin/gnu/h-x86_64-mingw32/bin/../lib/gcc/nios2-elf/10.3.1/../../../../../H-x86_64-mingw32/nios2-elf/lib\libc.a(lib_a-puts.o)
                0x0000000000043b98                puts
 .text          0x0000000000043ba8        0x0 d:/intel_fpga/nios2eds/bin/gnu/h-x86_64-mingw32/bin/../lib/gcc/nios2-elf/10.3.1/../../../../../H-x86_64-mingw32/nios2-elf/lib\libc.a(lib_a-refill.o)
 .text.lflush   0x0000000000043ba8       0x1c d:/intel_fpga/nios2eds/bin/gnu/h-x86_64-mingw32/bin/../lib/gcc/nios2-elf/10.3.1/../../../../../H-x86_64-mingw32/nios2-elf/lib\libc.a(lib_a-refill.o)
 .text.__srefill_r
                0x0000000000043bc4      0x1cc d:/intel_fpga/nios2eds/bin/gnu/h-x86_64-mingw32/bin/../lib/gcc/nios2-elf/10.3.1/../../../../../H-x86_64-mingw32/nios2-elf/lib\libc.a(lib_a-refill.o)
                0x0000000000043bc4                __srefill_r
 .text          0x0000000000043d90        0x0 d:/intel_fpga/nios2eds/bin/gnu/h-x86_64-mingw32/bin/../lib/gcc/nios2-elf/10.3.1/../../../../../H-x86_64-mingw32/nios2-elf/lib\libc.a(lib_a-rget.o)
 .text.__srget_r
                0x0000000000043d90       0x74 d:/intel_fpga/nios2eds/bin/gnu/h-x86_64-mingw32/bin/../lib/gcc/nios2-elf/10.3.1/../../../../../H-x86_64-mingw32/nios2-elf/lib\libc.a(lib_a-rget.o)
                0x0000000000043d90                __srget_r
 .text.__srget  0x0000000000043e04       0x7c d:/intel_fpga/nios2eds/bin/gnu/h-x86_64-mingw32/bin/../lib/gcc/nios2-elf/10.3.1/../../../../../H-x86_64-mingw32/nios2-elf/lib\libc.a(lib_a-rget.o)
                0x0000000000043e04                __srget
 .text          0x0000000000043e80        0x0 d:/intel_fpga/nios2eds/bin/gnu/h-x86_64-mingw32/bin/../lib/gcc/nios2-elf/10.3.1/../../../../../H-x86_64-mingw32/nios2-elf/lib\libc.a(lib_a-sbrkr.o)
 .text._sbrk_r  0x0000000000043e80       0x58 d:/intel_fpga/nios2eds/bin/gnu/h-x86_64-mingw32/bin/../lib/gcc/nios2-elf/10.3.1/../../../../../H-x86_64-mingw32/nios2-elf/lib\libc.a(lib_a-sbrkr.o)
                0x0000000000043e80                _sbrk_r
 .text          0x0000000000043ed8        0x0 d:/intel_fpga/nios2eds/bin/gnu/h-x86_64-mingw32/bin/../lib/gcc/nios2-elf/10.3.1/../../../../../H-x86_64-mingw32/nios2-elf/lib\libc.a(lib_a-sprintf.o)
 .text._sprintf_r
                0x0000000000043ed8       0x54 d:/intel_fpga/nios2eds/bin/gnu/h-x86_64-mingw32/bin/../lib/gcc/nios2-elf/10.3.1/../../../../../H-x86_64-mingw32/nios2-elf/lib\libc.a(lib_a-sprintf.o)
                0x0000000000043ed8                _sprintf_r
 .text.sprintf  0x0000000000043f2c       0x64 d:/intel_fpga/nios2eds/bin/gnu/h-x86_64-mingw32/bin/../lib/gcc/nios2-elf/10.3.1/../../../../../H-x86_64-mingw32/nios2-elf/lib\libc.a(lib_a-sprintf.o)
                0x0000000000043f2c                sprintf
 .text          0x0000000000043f90        0x0 d:/intel_fpga/nios2eds/bin/gnu/h-x86_64-mingw32/bin/../lib/gcc/nios2-elf/10.3.1/../../../../../H-x86_64-mingw32/nios2-elf/lib\libc.a(lib_a-sscanf.o)
 .text.sscanf   0x0000000000043f90       0x78 d:/intel_fpga/nios2eds/bin/gnu/h-x86_64-mingw32/bin/../lib/gcc/nios2-elf/10.3.1/../../../../../H-x86_64-mingw32/nios2-elf/lib\libc.a(lib_a-sscanf.o)
                0x0000000000043f90                sscanf
 .text._sscanf_r
                0x0000000000044008       0x80 d:/intel_fpga/nios2eds/bin/gnu/h-x86_64-mingw32/bin/../lib/gcc/nios2-elf/10.3.1/../../../../../H-x86_64-mingw32/nios2-elf/lib\libc.a(lib_a-sscanf.o)
                0x0000000000044008                _sscanf_r
 .text          0x0000000000044088        0x0 d:/intel_fpga/nios2eds/bin/gnu/h-x86_64-mingw32/bin/../lib/gcc/nios2-elf/10.3.1/../../../../../H-x86_64-mingw32/nios2-elf/lib\libc.a(lib_a-stdio.o)
 .text.__sread  0x0000000000044088       0x54 d:/intel_fpga/nios2eds/bin/gnu/h-x86_64-mingw32/bin/../lib/gcc/nios2-elf/10.3.1/../../../../../H-x86_64-mingw32/nios2-elf/lib\libc.a(lib_a-stdio.o)
                0x0000000000044088                __sread
 .text.__seofread
                0x00000000000440dc        0x8 d:/intel_fpga/nios2eds/bin/gnu/h-x86_64-mingw32/bin/../lib/gcc/nios2-elf/10.3.1/../../../../../H-x86_64-mingw32/nios2-elf/lib\libc.a(lib_a-stdio.o)
                0x00000000000440dc                __seofread
 .text.__swrite
                0x00000000000440e4       0x80 d:/intel_fpga/nios2eds/bin/gnu/h-x86_64-mingw32/bin/../lib/gcc/nios2-elf/10.3.1/../../../../../H-x86_64-mingw32/nios2-elf/lib\libc.a(lib_a-stdio.o)
                0x00000000000440e4                __swrite
 .text.__sseek  0x0000000000044164       0x5c d:/intel_fpga/nios2eds/bin/gnu/h-x86_64-mingw32/bin/../lib/gcc/nios2-elf/10.3.1/../../../../../H-x86_64-mingw32/nios2-elf/lib\libc.a(lib_a-stdio.o)
                0x0000000000044164                __sseek
 .text.__sclose
                0x00000000000441c0        0x8 d:/intel_fpga/nios2eds/bin/gnu/h-x86_64-mingw32/bin/../lib/gcc/nios2-elf/10.3.1/../../../../../H-x86_64-mingw32/nios2-elf/lib\libc.a(lib_a-stdio.o)
                0x00000000000441c0                __sclose
 .text          0x00000000000441c8        0x0 d:/intel_fpga/nios2eds/bin/gnu/h-x86_64-mingw32/bin/../lib/gcc/nios2-elf/10.3.1/../../../../../H-x86_64-mingw32/nios2-elf/lib\libc.a(lib_a-strcat.o)
 .text.strcat   0x00000000000441c8       0x8c d:/intel_fpga/nios2eds/bin/gnu/h-x86_64-mingw32/bin/../lib/gcc/nios2-elf/10.3.1/../../../../../H-x86_64-mingw32/nios2-elf/lib\libc.a(lib_a-strcat.o)
                0x00000000000441c8                strcat
 .text          0x0000000000044254        0x0 d:/intel_fpga/nios2eds/bin/gnu/h-x86_64-mingw32/bin/../lib/gcc/nios2-elf/10.3.1/../../../../../H-x86_64-mingw32/nios2-elf/lib\libc.a(lib_a-strchr.o)
 .text.strchr   0x0000000000044254      0x15c d:/intel_fpga/nios2eds/bin/gnu/h-x86_64-mingw32/bin/../lib/gcc/nios2-elf/10.3.1/../../../../../H-x86_64-mingw32/nios2-elf/lib\libc.a(lib_a-strchr.o)
                0x0000000000044254                strchr
 .text          0x00000000000443b0        0x0 d:/intel_fpga/nios2eds/bin/gnu/h-x86_64-mingw32/bin/../lib/gcc/nios2-elf/10.3.1/../../../../../H-x86_64-mingw32/nios2-elf/lib\libc.a(lib_a-strcmp.o)
 .text.strcmp   0x00000000000443b0       0xb8 d:/intel_fpga/nios2eds/bin/gnu/h-x86_64-mingw32/bin/../lib/gcc/nios2-elf/10.3.1/../../../../../H-x86_64-mingw32/nios2-elf/lib\libc.a(lib_a-strcmp.o)
                0x00000000000443b0                strcmp
 .text          0x0000000000044468        0x0 d:/intel_fpga/nios2eds/bin/gnu/h-x86_64-mingw32/bin/../lib/gcc/nios2-elf/10.3.1/../../../../../H-x86_64-mingw32/nios2-elf/lib\libc.a(lib_a-strcpy.o)
 .text.strcpy   0x0000000000044468       0x8c d:/intel_fpga/nios2eds/bin/gnu/h-x86_64-mingw32/bin/../lib/gcc/nios2-elf/10.3.1/../../../../../H-x86_64-mingw32/nios2-elf/lib\libc.a(lib_a-strcpy.o)
                0x0000000000044468                strcpy
 .text          0x00000000000444f4        0x0 d:/intel_fpga/nios2eds/bin/gnu/h-x86_64-mingw32/bin/../lib/gcc/nios2-elf/10.3.1/../../../../../H-x86_64-mingw32/nios2-elf/lib\libc.a(lib_a-strlen.o)
 .text.strlen   0x00000000000444f4       0x98 d:/intel_fpga/nios2eds/bin/gnu/h-x86_64-mingw32/bin/../lib/gcc/nios2-elf/10.3.1/../../../../../H-x86_64-mingw32/nios2-elf/lib\libc.a(lib_a-strlen.o)
                0x00000000000444f4                strlen
 .text          0x000000000004458c        0x0 d:/intel_fpga/nios2eds/bin/gnu/h-x86_64-mingw32/bin/../lib/gcc/nios2-elf/10.3.1/../../../../../H-x86_64-mingw32/nios2-elf/lib\libc.a(lib_a-strstr.o)
 .text.two_way_long_needle
                0x000000000004458c      0x3f8 d:/intel_fpga/nios2eds/bin/gnu/h-x86_64-mingw32/bin/../lib/gcc/nios2-elf/10.3.1/../../../../../H-x86_64-mingw32/nios2-elf/lib\libc.a(lib_a-strstr.o)
 .text.strstr   0x0000000000044984      0x27c d:/intel_fpga/nios2eds/bin/gnu/h-x86_64-mingw32/bin/../lib/gcc/nios2-elf/10.3.1/../../../../../H-x86_64-mingw32/nios2-elf/lib\libc.a(lib_a-strstr.o)
                0x0000000000044984                strstr
 .text          0x0000000000044c00        0x0 d:/intel_fpga/nios2eds/bin/gnu/h-x86_64-mingw32/bin/../lib/gcc/nios2-elf/10.3.1/../../../../../H-x86_64-mingw32/nios2-elf/lib\libc.a(lib_a-svfprintf.o)
 .text.___svfprintf_internal_r
                0x0000000000044c00     0x1f90 d:/intel_fpga/nios2eds/bin/gnu/h-x86_64-mingw32/bin/../lib/gcc/nios2-elf/10.3.1/../../../../../H-x86_64-mingw32/nios2-elf/lib\libc.a(lib_a-svfprintf.o)
                0x0000000000044c00                ___svfprintf_internal_r
 .text          0x0000000000046b90        0x0 d:/intel_fpga/nios2eds/bin/gnu/h-x86_64-mingw32/bin/../lib/gcc/nios2-elf/10.3.1/../../../../../H-x86_64-mingw32/nios2-elf/lib\libc.a(lib_a-svfscanf.o)
 .text.__ssvfscanf_r
                0x0000000000046b90     0x18d0 d:/intel_fpga/nios2eds/bin/gnu/h-x86_64-mingw32/bin/../lib/gcc/nios2-elf/10.3.1/../../../../../H-x86_64-mingw32/nios2-elf/lib\libc.a(lib_a-svfscanf.o)
                0x0000000000046b90                __ssvfscanf_r
 .text          0x0000000000048460        0x0 d:/intel_fpga/nios2eds/bin/gnu/h-x86_64-mingw32/bin/../lib/gcc/nios2-elf/10.3.1/../../../../../H-x86_64-mingw32/nios2-elf/lib\libc.a(lib_a-vfprintf.o)
 .text.___vfprintf_internal_r
                0x0000000000048460     0x2008 d:/intel_fpga/nios2eds/bin/gnu/h-x86_64-mingw32/bin/../lib/gcc/nios2-elf/10.3.1/../../../../../H-x86_64-mingw32/nios2-elf/lib\libc.a(lib_a-vfprintf.o)
                0x0000000000048460                ___vfprintf_internal_r
 .text.__vfprintf_internal
                0x000000000004a468       0x1c d:/intel_fpga/nios2eds/bin/gnu/h-x86_64-mingw32/bin/../lib/gcc/nios2-elf/10.3.1/../../../../../H-x86_64-mingw32/nios2-elf/lib\libc.a(lib_a-vfprintf.o)
                0x000000000004a468                __vfprintf_internal
 .text.__sbprintf
                0x000000000004a484       0xc0 d:/intel_fpga/nios2eds/bin/gnu/h-x86_64-mingw32/bin/../lib/gcc/nios2-elf/10.3.1/../../../../../H-x86_64-mingw32/nios2-elf/lib\libc.a(lib_a-vfprintf.o)
 .text          0x000000000004a544        0x0 d:/intel_fpga/nios2eds/bin/gnu/h-x86_64-mingw32/bin/../lib/gcc/nios2-elf/10.3.1/../../../../../H-x86_64-mingw32/nios2-elf/lib\libc.a(lib_a-writer.o)
 .text._write_r
                0x000000000004a544       0x64 d:/intel_fpga/nios2eds/bin/gnu/h-x86_64-mingw32/bin/../lib/gcc/nios2-elf/10.3.1/../../../../../H-x86_64-mingw32/nios2-elf/lib\libc.a(lib_a-writer.o)
                0x000000000004a544                _write_r
 .text          0x000000000004a5a8        0x0 d:/intel_fpga/nios2eds/bin/gnu/h-x86_64-mingw32/bin/../lib/gcc/nios2-elf/10.3.1/../../../../../H-x86_64-mingw32/nios2-elf/lib\libc.a(lib_a-wsetup.o)
 .text.__swsetup_r
                0x000000000004a5a8      0x164 d:/intel_fpga/nios2eds/bin/gnu/h-x86_64-mingw32/bin/../lib/gcc/nios2-elf/10.3.1/../../../../../H-x86_64-mingw32/nios2-elf/lib\libc.a(lib_a-wsetup.o)
                0x000000000004a5a8                __swsetup_r
 .text          0x000000000004a70c        0x0 d:/intel_fpga/nios2eds/bin/gnu/h-x86_64-mingw32/bin/../lib/gcc/nios2-elf/10.3.1/../../../../../H-x86_64-mingw32/nios2-elf/lib\libc.a(closer.o)
 .text._close_r
                0x000000000004a70c       0x58 d:/intel_fpga/nios2eds/bin/gnu/h-x86_64-mingw32/bin/../lib/gcc/nios2-elf/10.3.1/../../../../../H-x86_64-mingw32/nios2-elf/lib\libc.a(closer.o)
                0x000000000004a70c                _close_r
 .text          0x000000000004a764        0x0 d:/intel_fpga/nios2eds/bin/gnu/h-x86_64-mingw32/bin/../lib/gcc/nios2-elf/10.3.1/../../../../../H-x86_64-mingw32/nios2-elf/lib\libc.a(lib_a-ctype_.o)
 .text          0x000000000004a764        0x0 d:/intel_fpga/nios2eds/bin/gnu/h-x86_64-mingw32/bin/../lib/gcc/nios2-elf/10.3.1/../../../../../H-x86_64-mingw32/nios2-elf/lib\libc.a(lib_a-dtoa.o)
 .text.quorem   0x000000000004a764      0x1fc d:/intel_fpga/nios2eds/bin/gnu/h-x86_64-mingw32/bin/../lib/gcc/nios2-elf/10.3.1/../../../../../H-x86_64-mingw32/nios2-elf/lib\libc.a(lib_a-dtoa.o)
 .text._dtoa_r  0x000000000004a960     0x1748 d:/intel_fpga/nios2eds/bin/gnu/h-x86_64-mingw32/bin/../lib/gcc/nios2-elf/10.3.1/../../../../../H-x86_64-mingw32/nios2-elf/lib\libc.a(lib_a-dtoa.o)
                0x000000000004a960                _dtoa_r
 .text          0x000000000004c0a8        0x0 d:/intel_fpga/nios2eds/bin/gnu/h-x86_64-mingw32/bin/../lib/gcc/nios2-elf/10.3.1/../../../../../H-x86_64-mingw32/nios2-elf/lib\libc.a(lib_a-fclose.o)
 .text._fclose_r.part.0
                0x000000000004c0a8       0xc0 d:/intel_fpga/nios2eds/bin/gnu/h-x86_64-mingw32/bin/../lib/gcc/nios2-elf/10.3.1/../../../../../H-x86_64-mingw32/nios2-elf/lib\libc.a(lib_a-fclose.o)
 .text._fclose_r
                0x000000000004c168       0x70 d:/intel_fpga/nios2eds/bin/gnu/h-x86_64-mingw32/bin/../lib/gcc/nios2-elf/10.3.1/../../../../../H-x86_64-mingw32/nios2-elf/lib\libc.a(lib_a-fclose.o)
                0x000000000004c168                _fclose_r
 .text.fclose   0x000000000004c1d8       0x70 d:/intel_fpga/nios2eds/bin/gnu/h-x86_64-mingw32/bin/../lib/gcc/nios2-elf/10.3.1/../../../../../H-x86_64-mingw32/nios2-elf/lib\libc.a(lib_a-fclose.o)
                0x000000000004c1d8                fclose
 .text          0x000000000004c248        0x0 d:/intel_fpga/nios2eds/bin/gnu/h-x86_64-mingw32/bin/../lib/gcc/nios2-elf/10.3.1/../../../../../H-x86_64-mingw32/nios2-elf/lib\libc.a(lib_a-flags.o)
 .text.__sflags
                0x000000000004c248       0xb8 d:/intel_fpga/nios2eds/bin/gnu/h-x86_64-mingw32/bin/../lib/gcc/nios2-elf/10.3.1/../../../../../H-x86_64-mingw32/nios2-elf/lib\libc.a(lib_a-flags.o)
                0x000000000004c248                __sflags
 .text          0x000000000004c300        0x0 d:/intel_fpga/nios2eds/bin/gnu/h-x86_64-mingw32/bin/../lib/gcc/nios2-elf/10.3.1/../../../../../H-x86_64-mingw32/nios2-elf/lib\libc.a(lib_a-fvwrite.o)
 .text.__sfvwrite_r
                0x000000000004c300      0x484 d:/intel_fpga/nios2eds/bin/gnu/h-x86_64-mingw32/bin/../lib/gcc/nios2-elf/10.3.1/../../../../../H-x86_64-mingw32/nios2-elf/lib\libc.a(lib_a-fvwrite.o)
                0x000000000004c300                __sfvwrite_r
 .text          0x000000000004c784        0x0 d:/intel_fpga/nios2eds/bin/gnu/h-x86_64-mingw32/bin/../lib/gcc/nios2-elf/10.3.1/../../../../../H-x86_64-mingw32/nios2-elf/lib\libc.a(lib_a-isattyr.o)
 .text._isatty_r
                0x000000000004c784       0x58 d:/intel_fpga/nios2eds/bin/gnu/h-x86_64-mingw32/bin/../lib/gcc/nios2-elf/10.3.1/../../../../../H-x86_64-mingw32/nios2-elf/lib\libc.a(lib_a-isattyr.o)
                0x000000000004c784                _isatty_r
 .text          0x000000000004c7dc        0x0 d:/intel_fpga/nios2eds/bin/gnu/h-x86_64-mingw32/bin/../lib/gcc/nios2-elf/10.3.1/../../../../../H-x86_64-mingw32/nios2-elf/lib\libc.a(lib_a-iswspace.o)
 .text.iswspace
                0x000000000004c7dc        0x8 d:/intel_fpga/nios2eds/bin/gnu/h-x86_64-mingw32/bin/../lib/gcc/nios2-elf/10.3.1/../../../../../H-x86_64-mingw32/nios2-elf/lib\libc.a(lib_a-iswspace.o)
                0x000000000004c7dc                iswspace
 .text          0x000000000004c7e4        0x0 d:/intel_fpga/nios2eds/bin/gnu/h-x86_64-mingw32/bin/../lib/gcc/nios2-elf/10.3.1/../../../../../H-x86_64-mingw32/nios2-elf/lib\libc.a(lib_a-iswspace_l.o)
 .text.iswspace_l
                0x000000000004c7e4       0x24 d:/intel_fpga/nios2eds/bin/gnu/h-x86_64-mingw32/bin/../lib/gcc/nios2-elf/10.3.1/../../../../../H-x86_64-mingw32/nios2-elf/lib\libc.a(lib_a-iswspace_l.o)
                0x000000000004c7e4                iswspace_l
 .text          0x000000000004c808        0x0 d:/intel_fpga/nios2eds/bin/gnu/h-x86_64-mingw32/bin/../lib/gcc/nios2-elf/10.3.1/../../../../../H-x86_64-mingw32/nios2-elf/lib\libc.a(lib_a-locale.o)
 .text._setlocale_r
                0x000000000004c808       0x74 d:/intel_fpga/nios2eds/bin/gnu/h-x86_64-mingw32/bin/../lib/gcc/nios2-elf/10.3.1/../../../../../H-x86_64-mingw32/nios2-elf/lib\libc.a(lib_a-locale.o)
                0x000000000004c808                _setlocale_r
 .text.__locale_mb_cur_max
                0x000000000004c87c        0xc d:/intel_fpga/nios2eds/bin/gnu/h-x86_64-mingw32/bin/../lib/gcc/nios2-elf/10.3.1/../../../../../H-x86_64-mingw32/nios2-elf/lib\libc.a(lib_a-locale.o)
                0x000000000004c87c                __locale_mb_cur_max
 .text.setlocale
                0x000000000004c888       0x74 d:/intel_fpga/nios2eds/bin/gnu/h-x86_64-mingw32/bin/../lib/gcc/nios2-elf/10.3.1/../../../../../H-x86_64-mingw32/nios2-elf/lib\libc.a(lib_a-locale.o)
                0x000000000004c888                setlocale
 .text          0x000000000004c8fc        0x0 d:/intel_fpga/nios2eds/bin/gnu/h-x86_64-mingw32/bin/../lib/gcc/nios2-elf/10.3.1/../../../../../H-x86_64-mingw32/nios2-elf/lib\libc.a(lib_a-localeconv.o)
 .text.__localeconv_l
                0x000000000004c8fc        0x8 d:/intel_fpga/nios2eds/bin/gnu/h-x86_64-mingw32/bin/../lib/gcc/nios2-elf/10.3.1/../../../../../H-x86_64-mingw32/nios2-elf/lib\libc.a(lib_a-localeconv.o)
                0x000000000004c8fc                __localeconv_l
 .text._localeconv_r
                0x000000000004c904        0xc d:/intel_fpga/nios2eds/bin/gnu/h-x86_64-mingw32/bin/../lib/gcc/nios2-elf/10.3.1/../../../../../H-x86_64-mingw32/nios2-elf/lib\libc.a(lib_a-localeconv.o)
                0x000000000004c904                _localeconv_r
 .text.localeconv
                0x000000000004c910        0xc d:/intel_fpga/nios2eds/bin/gnu/h-x86_64-mingw32/bin/../lib/gcc/nios2-elf/10.3.1/../../../../../H-x86_64-mingw32/nios2-elf/lib\libc.a(lib_a-localeconv.o)
                0x000000000004c910                localeconv
 .text          0x000000000004c91c        0x0 d:/intel_fpga/nios2eds/bin/gnu/h-x86_64-mingw32/bin/../lib/gcc/nios2-elf/10.3.1/../../../../../H-x86_64-mingw32/nios2-elf/lib\libc.a(lib_a-lseekr.o)
 .text._lseek_r
                0x000000000004c91c       0x64 d:/intel_fpga/nios2eds/bin/gnu/h-x86_64-mingw32/bin/../lib/gcc/nios2-elf/10.3.1/../../../../../H-x86_64-mingw32/nios2-elf/lib\libc.a(lib_a-lseekr.o)
                0x000000000004c91c                _lseek_r
 .text          0x000000000004c980        0x0 d:/intel_fpga/nios2eds/bin/gnu/h-x86_64-mingw32/bin/../lib/gcc/nios2-elf/10.3.1/../../../../../H-x86_64-mingw32/nios2-elf/lib\libc.a(lib_a-mbrtowc.o)
 .text._mbrtowc_r
                0x000000000004c980       0x7c d:/intel_fpga/nios2eds/bin/gnu/h-x86_64-mingw32/bin/../lib/gcc/nios2-elf/10.3.1/../../../../../H-x86_64-mingw32/nios2-elf/lib\libc.a(lib_a-mbrtowc.o)
                0x000000000004c980                _mbrtowc_r
 .text.mbrtowc  0x000000000004c9fc       0x90 d:/intel_fpga/nios2eds/bin/gnu/h-x86_64-mingw32/bin/../lib/gcc/nios2-elf/10.3.1/../../../../../H-x86_64-mingw32/nios2-elf/lib\libc.a(lib_a-mbrtowc.o)
                0x000000000004c9fc                mbrtowc
 .text          0x000000000004ca8c        0x0 d:/intel_fpga/nios2eds/bin/gnu/h-x86_64-mingw32/bin/../lib/gcc/nios2-elf/10.3.1/../../../../../H-x86_64-mingw32/nios2-elf/lib\libc.a(lib_a-mbtowc_r.o)
 .text._mbtowc_r
                0x000000000004ca8c        0xc d:/intel_fpga/nios2eds/bin/gnu/h-x86_64-mingw32/bin/../lib/gcc/nios2-elf/10.3.1/../../../../../H-x86_64-mingw32/nios2-elf/lib\libc.a(lib_a-mbtowc_r.o)
                0x000000000004ca8c                _mbtowc_r
 .text.__ascii_mbtowc
                0x000000000004ca98       0x44 d:/intel_fpga/nios2eds/bin/gnu/h-x86_64-mingw32/bin/../lib/gcc/nios2-elf/10.3.1/../../../../../H-x86_64-mingw32/nios2-elf/lib\libc.a(lib_a-mbtowc_r.o)
                0x000000000004ca98                __ascii_mbtowc
 .text          0x000000000004cadc        0x0 d:/intel_fpga/nios2eds/bin/gnu/h-x86_64-mingw32/bin/../lib/gcc/nios2-elf/10.3.1/../../../../../H-x86_64-mingw32/nios2-elf/lib\libc.a(lib_a-memcmp.o)
 .text.memcmp   0x000000000004cadc       0x78 d:/intel_fpga/nios2eds/bin/gnu/h-x86_64-mingw32/bin/../lib/gcc/nios2-elf/10.3.1/../../../../../H-x86_64-mingw32/nios2-elf/lib\libc.a(lib_a-memcmp.o)
                0x000000000004cadc                memcmp
 .text          0x000000000004cb54        0x0 d:/intel_fpga/nios2eds/bin/gnu/h-x86_64-mingw32/bin/../lib/gcc/nios2-elf/10.3.1/../../../../../H-x86_64-mingw32/nios2-elf/lib\libc.a(lib_a-memmove.o)
 .text.memmove  0x000000000004cb54      0x12c d:/intel_fpga/nios2eds/bin/gnu/h-x86_64-mingw32/bin/../lib/gcc/nios2-elf/10.3.1/../../../../../H-x86_64-mingw32/nios2-elf/lib\libc.a(lib_a-memmove.o)
                0x000000000004cb54                memmove
 .text          0x000000000004cc80        0x0 d:/intel_fpga/nios2eds/bin/gnu/h-x86_64-mingw32/bin/../lib/gcc/nios2-elf/10.3.1/../../../../../H-x86_64-mingw32/nios2-elf/lib\libc.a(lib_a-mprec.o)
 .text._Balloc  0x000000000004cc80       0xa4 d:/intel_fpga/nios2eds/bin/gnu/h-x86_64-mingw32/bin/../lib/gcc/nios2-elf/10.3.1/../../../../../H-x86_64-mingw32/nios2-elf/lib\libc.a(lib_a-mprec.o)
                0x000000000004cc80                _Balloc
 .text._Bfree   0x000000000004cd24       0x24 d:/intel_fpga/nios2eds/bin/gnu/h-x86_64-mingw32/bin/../lib/gcc/nios2-elf/10.3.1/../../../../../H-x86_64-mingw32/nios2-elf/lib\libc.a(lib_a-mprec.o)
                0x000000000004cd24                _Bfree
 .text.__multadd
                0x000000000004cd48      0x138 d:/intel_fpga/nios2eds/bin/gnu/h-x86_64-mingw32/bin/../lib/gcc/nios2-elf/10.3.1/../../../../../H-x86_64-mingw32/nios2-elf/lib\libc.a(lib_a-mprec.o)
                0x000000000004cd48                __multadd
 .text.__s2b    0x000000000004ce80      0x138 d:/intel_fpga/nios2eds/bin/gnu/h-x86_64-mingw32/bin/../lib/gcc/nios2-elf/10.3.1/../../../../../H-x86_64-mingw32/nios2-elf/lib\libc.a(lib_a-mprec.o)
                0x000000000004ce80                __s2b
 .text.__hi0bits
                0x000000000004cfb8       0x64 d:/intel_fpga/nios2eds/bin/gnu/h-x86_64-mingw32/bin/../lib/gcc/nios2-elf/10.3.1/../../../../../H-x86_64-mingw32/nios2-elf/lib\libc.a(lib_a-mprec.o)
                0x000000000004cfb8                __hi0bits
 .text.__lo0bits
                0x000000000004d01c       0xb0 d:/intel_fpga/nios2eds/bin/gnu/h-x86_64-mingw32/bin/../lib/gcc/nios2-elf/10.3.1/../../../../../H-x86_64-mingw32/nios2-elf/lib\libc.a(lib_a-mprec.o)
                0x000000000004d01c                __lo0bits
 .text.__i2b    0x000000000004d0cc       0xb0 d:/intel_fpga/nios2eds/bin/gnu/h-x86_64-mingw32/bin/../lib/gcc/nios2-elf/10.3.1/../../../../../H-x86_64-mingw32/nios2-elf/lib\libc.a(lib_a-mprec.o)
                0x000000000004d0cc                __i2b
 .text.__multiply
                0x000000000004d17c      0x254 d:/intel_fpga/nios2eds/bin/gnu/h-x86_64-mingw32/bin/../lib/gcc/nios2-elf/10.3.1/../../../../../H-x86_64-mingw32/nios2-elf/lib\libc.a(lib_a-mprec.o)
                0x000000000004d17c                __multiply
 .text.__pow5mult
                0x000000000004d3d0      0x148 d:/intel_fpga/nios2eds/bin/gnu/h-x86_64-mingw32/bin/../lib/gcc/nios2-elf/10.3.1/../../../../../H-x86_64-mingw32/nios2-elf/lib\libc.a(lib_a-mprec.o)
                0x000000000004d3d0                __pow5mult
 .text.__lshift
                0x000000000004d518      0x188 d:/intel_fpga/nios2eds/bin/gnu/h-x86_64-mingw32/bin/../lib/gcc/nios2-elf/10.3.1/../../../../../H-x86_64-mingw32/nios2-elf/lib\libc.a(lib_a-mprec.o)
                0x000000000004d518                __lshift
 .text.__mcmp   0x000000000004d6a0       0x58 d:/intel_fpga/nios2eds/bin/gnu/h-x86_64-mingw32/bin/../lib/gcc/nios2-elf/10.3.1/../../../../../H-x86_64-mingw32/nios2-elf/lib\libc.a(lib_a-mprec.o)
                0x000000000004d6a0                __mcmp
 .text.__mdiff  0x000000000004d6f8      0x22c d:/intel_fpga/nios2eds/bin/gnu/h-x86_64-mingw32/bin/../lib/gcc/nios2-elf/10.3.1/../../../../../H-x86_64-mingw32/nios2-elf/lib\libc.a(lib_a-mprec.o)
                0x000000000004d6f8                __mdiff
 .text.__ulp    0x000000000004d924       0x5c d:/intel_fpga/nios2eds/bin/gnu/h-x86_64-mingw32/bin/../lib/gcc/nios2-elf/10.3.1/../../../../../H-x86_64-mingw32/nios2-elf/lib\libc.a(lib_a-mprec.o)
                0x000000000004d924                __ulp
 .text.__b2d    0x000000000004d980      0x108 d:/intel_fpga/nios2eds/bin/gnu/h-x86_64-mingw32/bin/../lib/gcc/nios2-elf/10.3.1/../../../../../H-x86_64-mingw32/nios2-elf/lib\libc.a(lib_a-mprec.o)
                0x000000000004d980                __b2d
 .text.__d2b    0x000000000004da88      0x164 d:/intel_fpga/nios2eds/bin/gnu/h-x86_64-mingw32/bin/../lib/gcc/nios2-elf/10.3.1/../../../../../H-x86_64-mingw32/nios2-elf/lib\libc.a(lib_a-mprec.o)
                0x000000000004da88                __d2b
 .text.__ratio  0x000000000004dbec       0xa8 d:/intel_fpga/nios2eds/bin/gnu/h-x86_64-mingw32/bin/../lib/gcc/nios2-elf/10.3.1/../../../../../H-x86_64-mingw32/nios2-elf/lib\libc.a(lib_a-mprec.o)
                0x000000000004dbec                __ratio
 .text._mprec_log10
                0x000000000004dc94       0x70 d:/intel_fpga/nios2eds/bin/gnu/h-x86_64-mingw32/bin/../lib/gcc/nios2-elf/10.3.1/../../../../../H-x86_64-mingw32/nios2-elf/lib\libc.a(lib_a-mprec.o)
                0x000000000004dc94                _mprec_log10
 .text.__copybits
                0x000000000004dd04       0x7c d:/intel_fpga/nios2eds/bin/gnu/h-x86_64-mingw32/bin/../lib/gcc/nios2-elf/10.3.1/../../../../../H-x86_64-mingw32/nios2-elf/lib\libc.a(lib_a-mprec.o)
                0x000000000004dd04                __copybits
 .text.__any_on
                0x000000000004dd80       0x60 d:/intel_fpga/nios2eds/bin/gnu/h-x86_64-mingw32/bin/../lib/gcc/nios2-elf/10.3.1/../../../../../H-x86_64-mingw32/nios2-elf/lib\libc.a(lib_a-mprec.o)
                0x000000000004dd80                __any_on
 .text          0x000000000004dde0        0x0 d:/intel_fpga/nios2eds/bin/gnu/h-x86_64-mingw32/bin/../lib/gcc/nios2-elf/10.3.1/../../../../../H-x86_64-mingw32/nios2-elf/lib\libc.a(lib_a-readr.o)
 .text._read_r  0x000000000004dde0       0x64 d:/intel_fpga/nios2eds/bin/gnu/h-x86_64-mingw32/bin/../lib/gcc/nios2-elf/10.3.1/../../../../../H-x86_64-mingw32/nios2-elf/lib\libc.a(lib_a-readr.o)
                0x000000000004dde0                _read_r
 .text          0x000000000004de44        0x0 d:/intel_fpga/nios2eds/bin/gnu/h-x86_64-mingw32/bin/../lib/gcc/nios2-elf/10.3.1/../../../../../H-x86_64-mingw32/nios2-elf/lib\libc.a(lib_a-reallocr.o)
 .text._realloc_r
                0x000000000004de44      0x53c d:/intel_fpga/nios2eds/bin/gnu/h-x86_64-mingw32/bin/../lib/gcc/nios2-elf/10.3.1/../../../../../H-x86_64-mingw32/nios2-elf/lib\libc.a(lib_a-reallocr.o)
                0x000000000004de44                _realloc_r
 .text          0x000000000004e380        0x0 d:/intel_fpga/nios2eds/bin/gnu/h-x86_64-mingw32/bin/../lib/gcc/nios2-elf/10.3.1/../../../../../H-x86_64-mingw32/nios2-elf/lib\libc.a(lib_a-sccl.o)
 .text.__sccl   0x000000000004e380      0x144 d:/intel_fpga/nios2eds/bin/gnu/h-x86_64-mingw32/bin/../lib/gcc/nios2-elf/10.3.1/../../../../../H-x86_64-mingw32/nios2-elf/lib\libc.a(lib_a-sccl.o)
                0x000000000004e380                __sccl
 .text          0x000000000004e4c4        0x0 d:/intel_fpga/nios2eds/bin/gnu/h-x86_64-mingw32/bin/../lib/gcc/nios2-elf/10.3.1/../../../../../H-x86_64-mingw32/nios2-elf/lib\libc.a(lib_a-strnlen.o)
 .text.strnlen  0x000000000004e4c4       0x38 d:/intel_fpga/nios2eds/bin/gnu/h-x86_64-mingw32/bin/../lib/gcc/nios2-elf/10.3.1/../../../../../H-x86_64-mingw32/nios2-elf/lib\libc.a(lib_a-strnlen.o)
                0x000000000004e4c4                strnlen
 .text          0x000000000004e4fc        0x0 d:/intel_fpga/nios2eds/bin/gnu/h-x86_64-mingw32/bin/../lib/gcc/nios2-elf/10.3.1/../../../../../H-x86_64-mingw32/nios2-elf/lib\libc.a(lib_a-strtod.o)
 .text._strtod_l
                0x000000000004e4fc     0x15dc d:/intel_fpga/nios2eds/bin/gnu/h-x86_64-mingw32/bin/../lib/gcc/nios2-elf/10.3.1/../../../../../H-x86_64-mingw32/nios2-elf/lib\libc.a(lib_a-strtod.o)
                0x000000000004e4fc                _strtod_l
 .text._strtod_r
                0x000000000004fad8        0xc d:/intel_fpga/nios2eds/bin/gnu/h-x86_64-mingw32/bin/../lib/gcc/nios2-elf/10.3.1/../../../../../H-x86_64-mingw32/nios2-elf/lib\libc.a(lib_a-strtod.o)
                0x000000000004fad8                _strtod_r
 .text.strtod_l
                0x000000000004fae4       0x1c d:/intel_fpga/nios2eds/bin/gnu/h-x86_64-mingw32/bin/../lib/gcc/nios2-elf/10.3.1/../../../../../H-x86_64-mingw32/nios2-elf/lib\libc.a(lib_a-strtod.o)
                0x000000000004fae4                strtod_l
 .text.strtod   0x000000000004fb00       0x20 d:/intel_fpga/nios2eds/bin/gnu/h-x86_64-mingw32/bin/../lib/gcc/nios2-elf/10.3.1/../../../../../H-x86_64-mingw32/nios2-elf/lib\libc.a(lib_a-strtod.o)
                0x000000000004fb00                strtod
 .text.strtof_l
                0x000000000004fb20      0x120 d:/intel_fpga/nios2eds/bin/gnu/h-x86_64-mingw32/bin/../lib/gcc/nios2-elf/10.3.1/../../../../../H-x86_64-mingw32/nios2-elf/lib\libc.a(lib_a-strtod.o)
                0x000000000004fb20                strtof_l
 .text.strtof   0x000000000004fc40      0x124 d:/intel_fpga/nios2eds/bin/gnu/h-x86_64-mingw32/bin/../lib/gcc/nios2-elf/10.3.1/../../../../../H-x86_64-mingw32/nios2-elf/lib\libc.a(lib_a-strtod.o)
                0x000000000004fc40                strtof
 .text          0x000000000004fd64        0x0 d:/intel_fpga/nios2eds/bin/gnu/h-x86_64-mingw32/bin/../lib/gcc/nios2-elf/10.3.1/../../../../../H-x86_64-mingw32/nios2-elf/lib\libc.a(lib_a-strtol.o)
 .text._strtol_l.part.0
                0x000000000004fd64      0x21c d:/intel_fpga/nios2eds/bin/gnu/h-x86_64-mingw32/bin/../lib/gcc/nios2-elf/10.3.1/../../../../../H-x86_64-mingw32/nios2-elf/lib\libc.a(lib_a-strtol.o)
 .text._strtol_r
                0x000000000004ff80       0x38 d:/intel_fpga/nios2eds/bin/gnu/h-x86_64-mingw32/bin/../lib/gcc/nios2-elf/10.3.1/../../../../../H-x86_64-mingw32/nios2-elf/lib\libc.a(lib_a-strtol.o)
                0x000000000004ff80                _strtol_r
 .text.strtol_l
                0x000000000004ffb8       0x50 d:/intel_fpga/nios2eds/bin/gnu/h-x86_64-mingw32/bin/../lib/gcc/nios2-elf/10.3.1/../../../../../H-x86_64-mingw32/nios2-elf/lib\libc.a(lib_a-strtol.o)
                0x000000000004ffb8                strtol_l
 .text.strtol   0x0000000000050008       0x50 d:/intel_fpga/nios2eds/bin/gnu/h-x86_64-mingw32/bin/../lib/gcc/nios2-elf/10.3.1/../../../../../H-x86_64-mingw32/nios2-elf/lib\libc.a(lib_a-strtol.o)
                0x0000000000050008                strtol
 .text          0x0000000000050058        0x0 d:/intel_fpga/nios2eds/bin/gnu/h-x86_64-mingw32/bin/../lib/gcc/nios2-elf/10.3.1/../../../../../H-x86_64-mingw32/nios2-elf/lib\libc.a(lib_a-strtoll.o)
 .text._strtoll_l.constprop.0
                0x0000000000050058      0x2cc d:/intel_fpga/nios2eds/bin/gnu/h-x86_64-mingw32/bin/../lib/gcc/nios2-elf/10.3.1/../../../../../H-x86_64-mingw32/nios2-elf/lib\libc.a(lib_a-strtoll.o)
 .text._strtoll_r
                0x0000000000050324        0x4 d:/intel_fpga/nios2eds/bin/gnu/h-x86_64-mingw32/bin/../lib/gcc/nios2-elf/10.3.1/../../../../../H-x86_64-mingw32/nios2-elf/lib\libc.a(lib_a-strtoll.o)
                0x0000000000050324                _strtoll_r
 .text.strtoll_l
                0x0000000000050328       0x1c d:/intel_fpga/nios2eds/bin/gnu/h-x86_64-mingw32/bin/../lib/gcc/nios2-elf/10.3.1/../../../../../H-x86_64-mingw32/nios2-elf/lib\libc.a(lib_a-strtoll.o)
                0x0000000000050328                strtoll_l
 .text.strtoll  0x0000000000050344       0x1c d:/intel_fpga/nios2eds/bin/gnu/h-x86_64-mingw32/bin/../lib/gcc/nios2-elf/10.3.1/../../../../../H-x86_64-mingw32/nios2-elf/lib\libc.a(lib_a-strtoll.o)
                0x0000000000050344                strtoll
 .text          0x0000000000050360        0x0 d:/intel_fpga/nios2eds/bin/gnu/h-x86_64-mingw32/bin/../lib/gcc/nios2-elf/10.3.1/../../../../../H-x86_64-mingw32/nios2-elf/lib\libc.a(lib_a-strtoul.o)
 .text._strtoul_l.constprop.0
                0x0000000000050360      0x248 d:/intel_fpga/nios2eds/bin/gnu/h-x86_64-mingw32/bin/../lib/gcc/nios2-elf/10.3.1/../../../../../H-x86_64-mingw32/nios2-elf/lib\libc.a(lib_a-strtoul.o)
 .text._strtoul_r
                0x00000000000505a8        0x4 d:/intel_fpga/nios2eds/bin/gnu/h-x86_64-mingw32/bin/../lib/gcc/nios2-elf/10.3.1/../../../../../H-x86_64-mingw32/nios2-elf/lib\libc.a(lib_a-strtoul.o)
                0x00000000000505a8                _strtoul_r
 .text.strtoul_l
                0x00000000000505ac       0x1c d:/intel_fpga/nios2eds/bin/gnu/h-x86_64-mingw32/bin/../lib/gcc/nios2-elf/10.3.1/../../../../../H-x86_64-mingw32/nios2-elf/lib\libc.a(lib_a-strtoul.o)
                0x00000000000505ac                strtoul_l
 .text.strtoul  0x00000000000505c8       0x1c d:/intel_fpga/nios2eds/bin/gnu/h-x86_64-mingw32/bin/../lib/gcc/nios2-elf/10.3.1/../../../../../H-x86_64-mingw32/nios2-elf/lib\libc.a(lib_a-strtoul.o)
                0x00000000000505c8                strtoul
 .text          0x00000000000505e4        0x0 d:/intel_fpga/nios2eds/bin/gnu/h-x86_64-mingw32/bin/../lib/gcc/nios2-elf/10.3.1/../../../../../H-x86_64-mingw32/nios2-elf/lib\libc.a(lib_a-strtoull.o)
 .text._strtoull_l.constprop.0
                0x00000000000505e4      0x318 d:/intel_fpga/nios2eds/bin/gnu/h-x86_64-mingw32/bin/../lib/gcc/nios2-elf/10.3.1/../../../../../H-x86_64-mingw32/nios2-elf/lib\libc.a(lib_a-strtoull.o)
 .text._strtoull_r
                0x00000000000508fc        0x4 d:/intel_fpga/nios2eds/bin/gnu/h-x86_64-mingw32/bin/../lib/gcc/nios2-elf/10.3.1/../../../../../H-x86_64-mingw32/nios2-elf/lib\libc.a(lib_a-strtoull.o)
                0x00000000000508fc                _strtoull_r
 .text.strtoull_l
                0x0000000000050900       0x1c d:/intel_fpga/nios2eds/bin/gnu/h-x86_64-mingw32/bin/../lib/gcc/nios2-elf/10.3.1/../../../../../H-x86_64-mingw32/nios2-elf/lib\libc.a(lib_a-strtoull.o)
                0x0000000000050900                strtoull_l
 .text.strtoull
                0x000000000005091c       0x1c d:/intel_fpga/nios2eds/bin/gnu/h-x86_64-mingw32/bin/../lib/gcc/nios2-elf/10.3.1/../../../../../H-x86_64-mingw32/nios2-elf/lib\libc.a(lib_a-strtoull.o)
                0x000000000005091c                strtoull
 .text          0x0000000000050938        0x0 d:/intel_fpga/nios2eds/bin/gnu/h-x86_64-mingw32/bin/../lib/gcc/nios2-elf/10.3.1/../../../../../H-x86_64-mingw32/nios2-elf/lib\libc.a(lib_a-svfiprintf.o)
 .text.__ssprint_r
                0x0000000000050938      0x1c0 d:/intel_fpga/nios2eds/bin/gnu/h-x86_64-mingw32/bin/../lib/gcc/nios2-elf/10.3.1/../../../../../H-x86_64-mingw32/nios2-elf/lib\libc.a(lib_a-svfiprintf.o)
                0x0000000000050938                __ssprint_r
 .text.___svfiprintf_internal_r
                0x0000000000050af8      0xfe4 d:/intel_fpga/nios2eds/bin/gnu/h-x86_64-mingw32/bin/../lib/gcc/nios2-elf/10.3.1/../../../../../H-x86_64-mingw32/nios2-elf/lib\libc.a(lib_a-svfiprintf.o)
                0x0000000000050af8                ___svfiprintf_internal_r
 .text          0x0000000000051adc        0x0 d:/intel_fpga/nios2eds/bin/gnu/h-x86_64-mingw32/bin/../lib/gcc/nios2-elf/10.3.1/../../../../../H-x86_64-mingw32/nios2-elf/lib\libc.a(lib_a-svfiscanf.o)
 .text._sungetc_r
                0x0000000000051adc       0xf0 d:/intel_fpga/nios2eds/bin/gnu/h-x86_64-mingw32/bin/../lib/gcc/nios2-elf/10.3.1/../../../../../H-x86_64-mingw32/nios2-elf/lib\libc.a(lib_a-svfiscanf.o)
                0x0000000000051adc                _sungetc_r
 .text.__ssrefill_r
                0x0000000000051bcc       0x70 d:/intel_fpga/nios2eds/bin/gnu/h-x86_64-mingw32/bin/../lib/gcc/nios2-elf/10.3.1/../../../../../H-x86_64-mingw32/nios2-elf/lib\libc.a(lib_a-svfiscanf.o)
                0x0000000000051bcc                __ssrefill_r
 .text._sfread_r
                0x0000000000051c3c      0x148 d:/intel_fpga/nios2eds/bin/gnu/h-x86_64-mingw32/bin/../lib/gcc/nios2-elf/10.3.1/../../../../../H-x86_64-mingw32/nios2-elf/lib\libc.a(lib_a-svfiscanf.o)
                0x0000000000051c3c                _sfread_r
 .text.__ssvfiscanf_r
                0x0000000000051d84     0x1530 d:/intel_fpga/nios2eds/bin/gnu/h-x86_64-mingw32/bin/../lib/gcc/nios2-elf/10.3.1/../../../../../H-x86_64-mingw32/nios2-elf/lib\libc.a(lib_a-svfiscanf.o)
                0x0000000000051d84                __ssvfiscanf_r
 .text          0x00000000000532b4        0x0 d:/intel_fpga/nios2eds/bin/gnu/h-x86_64-mingw32/bin/../lib/gcc/nios2-elf/10.3.1/../../../../../H-x86_64-mingw32/nios2-elf/lib\libc.a(lib_a-ungetc.o)
 .text.__submore
                0x00000000000532b4       0xc8 d:/intel_fpga/nios2eds/bin/gnu/h-x86_64-mingw32/bin/../lib/gcc/nios2-elf/10.3.1/../../../../../H-x86_64-mingw32/nios2-elf/lib\libc.a(lib_a-ungetc.o)
                0x00000000000532b4                __submore
 .text._ungetc_r
                0x000000000005337c      0x184 d:/intel_fpga/nios2eds/bin/gnu/h-x86_64-mingw32/bin/../lib/gcc/nios2-elf/10.3.1/../../../../../H-x86_64-mingw32/nios2-elf/lib\libc.a(lib_a-ungetc.o)
                0x000000000005337c                _ungetc_r
 .text.ungetc   0x0000000000053500       0x18 d:/intel_fpga/nios2eds/bin/gnu/h-x86_64-mingw32/bin/../lib/gcc/nios2-elf/10.3.1/../../../../../H-x86_64-mingw32/nios2-elf/lib\libc.a(lib_a-ungetc.o)
                0x0000000000053500                ungetc
 .text          0x0000000000053518        0x0 d:/intel_fpga/nios2eds/bin/gnu/h-x86_64-mingw32/bin/../lib/gcc/nios2-elf/10.3.1/../../../../../H-x86_64-mingw32/nios2-elf/lib\libc.a(lib_a-vfiprintf.o)
 .text.__sprint_r.part.0
                0x0000000000053518       0xf4 d:/intel_fpga/nios2eds/bin/gnu/h-x86_64-mingw32/bin/../lib/gcc/nios2-elf/10.3.1/../../../../../H-x86_64-mingw32/nios2-elf/lib\libc.a(lib_a-vfiprintf.o)
 .text.__sprint_r
                0x000000000005360c       0x18 d:/intel_fpga/nios2eds/bin/gnu/h-x86_64-mingw32/bin/../lib/gcc/nios2-elf/10.3.1/../../../../../H-x86_64-mingw32/nios2-elf/lib\libc.a(lib_a-vfiprintf.o)
                0x000000000005360c                __sprint_r
 .text.___vfiprintf_internal_r
                0x0000000000053624     0x1250 d:/intel_fpga/nios2eds/bin/gnu/h-x86_64-mingw32/bin/../lib/gcc/nios2-elf/10.3.1/../../../../../H-x86_64-mingw32/nios2-elf/lib\libc.a(lib_a-vfiprintf.o)
                0x0000000000053624                ___vfiprintf_internal_r
 .text.__vfiprintf_internal
                0x0000000000054874       0x1c d:/intel_fpga/nios2eds/bin/gnu/h-x86_64-mingw32/bin/../lib/gcc/nios2-elf/10.3.1/../../../../../H-x86_64-mingw32/nios2-elf/lib\libc.a(lib_a-vfiprintf.o)
                0x0000000000054874                __vfiprintf_internal
 .text.__sbprintf
                0x0000000000054890       0xc0 d:/intel_fpga/nios2eds/bin/gnu/h-x86_64-mingw32/bin/../lib/gcc/nios2-elf/10.3.1/../../../../../H-x86_64-mingw32/nios2-elf/lib\libc.a(lib_a-vfiprintf.o)
 .text          0x0000000000054950        0x0 d:/intel_fpga/nios2eds/bin/gnu/h-x86_64-mingw32/bin/../lib/gcc/nios2-elf/10.3.1/../../../../../H-x86_64-mingw32/nios2-elf/lib\libc.a(lib_a-wctomb_r.o)
 .text._wctomb_r
                0x0000000000054950        0xc d:/intel_fpga/nios2eds/bin/gnu/h-x86_64-mingw32/bin/../lib/gcc/nios2-elf/10.3.1/../../../../../H-x86_64-mingw32/nios2-elf/lib\libc.a(lib_a-wctomb_r.o)
                0x0000000000054950                _wctomb_r
 .text.__ascii_wctomb
                0x000000000005495c       0x30 d:/intel_fpga/nios2eds/bin/gnu/h-x86_64-mingw32/bin/../lib/gcc/nios2-elf/10.3.1/../../../../../H-x86_64-mingw32/nios2-elf/lib\libc.a(lib_a-wctomb_r.o)
                0x000000000005495c                __ascii_wctomb
 .text          0x000000000005498c        0x0 d:/intel_fpga/nios2eds/bin/gnu/h-x86_64-mingw32/bin/../lib/gcc/nios2-elf/10.3.1/../../../../../H-x86_64-mingw32/nios2-elf/lib\libc.a(lib_a-assert.o)
 .text.__assert_func
                0x000000000005498c       0x64 d:/intel_fpga/nios2eds/bin/gnu/h-x86_64-mingw32/bin/../lib/gcc/nios2-elf/10.3.1/../../../../../H-x86_64-mingw32/nios2-elf/lib\libc.a(lib_a-assert.o)
                0x000000000005498c                __assert_func
 .text.__assert
                0x00000000000549f0       0x14 d:/intel_fpga/nios2eds/bin/gnu/h-x86_64-mingw32/bin/../lib/gcc/nios2-elf/10.3.1/../../../../../H-x86_64-mingw32/nios2-elf/lib\libc.a(lib_a-assert.o)
                0x00000000000549f0                __assert
 .text          0x0000000000054a04        0x0 d:/intel_fpga/nios2eds/bin/gnu/h-x86_64-mingw32/bin/../lib/gcc/nios2-elf/10.3.1/../../../../../H-x86_64-mingw32/nios2-elf/lib\libc.a(lib_a-callocr.o)
 .text._calloc_r
                0x0000000000054a04      0x12c d:/intel_fpga/nios2eds/bin/gnu/h-x86_64-mingw32/bin/../lib/gcc/nios2-elf/10.3.1/../../../../../H-x86_64-mingw32/nios2-elf/lib\libc.a(lib_a-callocr.o)
                0x0000000000054a04                _calloc_r
 .text          0x0000000000054b30        0x0 d:/intel_fpga/nios2eds/bin/gnu/h-x86_64-mingw32/bin/../lib/gcc/nios2-elf/10.3.1/../../../../../H-x86_64-mingw32/nios2-elf/lib\libc.a(lib_a-errno.o)
 .text.__errno  0x0000000000054b30        0xc d:/intel_fpga/nios2eds/bin/gnu/h-x86_64-mingw32/bin/../lib/gcc/nios2-elf/10.3.1/../../../../../H-x86_64-mingw32/nios2-elf/lib\libc.a(lib_a-errno.o)
                0x0000000000054b30                __errno
 .text          0x0000000000054b3c        0x0 d:/intel_fpga/nios2eds/bin/gnu/h-x86_64-mingw32/bin/../lib/gcc/nios2-elf/10.3.1/../../../../../H-x86_64-mingw32/nios2-elf/lib\libc.a(lib_a-fiprintf.o)
 .text._fiprintf_r
                0x0000000000054b3c       0x20 d:/intel_fpga/nios2eds/bin/gnu/h-x86_64-mingw32/bin/../lib/gcc/nios2-elf/10.3.1/../../../../../H-x86_64-mingw32/nios2-elf/lib\libc.a(lib_a-fiprintf.o)
                0x0000000000054b3c                _fiprintf_r
 .text.fiprintf
                0x0000000000054b5c       0x38 d:/intel_fpga/nios2eds/bin/gnu/h-x86_64-mingw32/bin/../lib/gcc/nios2-elf/10.3.1/../../../../../H-x86_64-mingw32/nios2-elf/lib\libc.a(lib_a-fiprintf.o)
                0x0000000000054b5c                fiprintf
 .text          0x0000000000054b94        0x0 d:/intel_fpga/nios2eds/bin/gnu/h-x86_64-mingw32/bin/../lib/gcc/nios2-elf/10.3.1/../../../../../H-x86_64-mingw32/nios2-elf/lib\libc.a(lib_a-fputwc.o)
 .text.__fputwc
                0x0000000000054b94      0x164 d:/intel_fpga/nios2eds/bin/gnu/h-x86_64-mingw32/bin/../lib/gcc/nios2-elf/10.3.1/../../../../../H-x86_64-mingw32/nios2-elf/lib\libc.a(lib_a-fputwc.o)
                0x0000000000054b94                __fputwc
 .text._fputwc_r
                0x0000000000054cf8       0x24 d:/intel_fpga/nios2eds/bin/gnu/h-x86_64-mingw32/bin/../lib/gcc/nios2-elf/10.3.1/../../../../../H-x86_64-mingw32/nios2-elf/lib\libc.a(lib_a-fputwc.o)
                0x0000000000054cf8                _fputwc_r
 .text.fputwc   0x0000000000054d1c       0x78 d:/intel_fpga/nios2eds/bin/gnu/h-x86_64-mingw32/bin/../lib/gcc/nios2-elf/10.3.1/../../../../../H-x86_64-mingw32/nios2-elf/lib\libc.a(lib_a-fputwc.o)
                0x0000000000054d1c                fputwc
 .text          0x0000000000054d94        0x0 d:/intel_fpga/nios2eds/bin/gnu/h-x86_64-mingw32/bin/../lib/gcc/nios2-elf/10.3.1/../../../../../H-x86_64-mingw32/nios2-elf/lib\libc.a(lib_a-gdtoa-gethex.o)
 .text.rshift   0x0000000000054d94       0xdc d:/intel_fpga/nios2eds/bin/gnu/h-x86_64-mingw32/bin/../lib/gcc/nios2-elf/10.3.1/../../../../../H-x86_64-mingw32/nios2-elf/lib\libc.a(lib_a-gdtoa-gethex.o)
 .text.__gethex
                0x0000000000054e70      0x8c4 d:/intel_fpga/nios2eds/bin/gnu/h-x86_64-mingw32/bin/../lib/gcc/nios2-elf/10.3.1/../../../../../H-x86_64-mingw32/nios2-elf/lib\libc.a(lib_a-gdtoa-gethex.o)
                0x0000000000054e70                __gethex
 .text          0x0000000000055734        0x0 d:/intel_fpga/nios2eds/bin/gnu/h-x86_64-mingw32/bin/../lib/gcc/nios2-elf/10.3.1/../../../../../H-x86_64-mingw32/nios2-elf/lib\libc.a(lib_a-gdtoa-hexnan.o)
 .text.__match  0x0000000000055734       0x50 d:/intel_fpga/nios2eds/bin/gnu/h-x86_64-mingw32/bin/../lib/gcc/nios2-elf/10.3.1/../../../../../H-x86_64-mingw32/nios2-elf/lib\libc.a(lib_a-gdtoa-hexnan.o)
                0x0000000000055734                __match
 .text.__hexnan
                0x0000000000055784      0x290 d:/intel_fpga/nios2eds/bin/gnu/h-x86_64-mingw32/bin/../lib/gcc/nios2-elf/10.3.1/../../../../../H-x86_64-mingw32/nios2-elf/lib\libc.a(lib_a-gdtoa-hexnan.o)
                0x0000000000055784                __hexnan
 .text          0x0000000000055a14        0x0 d:/intel_fpga/nios2eds/bin/gnu/h-x86_64-mingw32/bin/../lib/gcc/nios2-elf/10.3.1/../../../../../H-x86_64-mingw32/nios2-elf/lib\libc.a(lib_a-lnumeric.o)
 .text.__numeric_load_locale
                0x0000000000055a14        0x8 d:/intel_fpga/nios2eds/bin/gnu/h-x86_64-mingw32/bin/../lib/gcc/nios2-elf/10.3.1/../../../../../H-x86_64-mingw32/nios2-elf/lib\libc.a(lib_a-lnumeric.o)
                0x0000000000055a14                __numeric_load_locale
 .text          0x0000000000055a1c        0x0 d:/intel_fpga/nios2eds/bin/gnu/h-x86_64-mingw32/bin/../lib/gcc/nios2-elf/10.3.1/../../../../../H-x86_64-mingw32/nios2-elf/lib\libc.a(lib_a-strncmp.o)
 .text.strncmp  0x0000000000055a1c       0xd0 d:/intel_fpga/nios2eds/bin/gnu/h-x86_64-mingw32/bin/../lib/gcc/nios2-elf/10.3.1/../../../../../H-x86_64-mingw32/nios2-elf/lib\libc.a(lib_a-strncmp.o)
                0x0000000000055a1c                strncmp
 .text          0x0000000000055aec        0x0 d:/intel_fpga/nios2eds/bin/gnu/h-x86_64-mingw32/bin/../lib/gcc/nios2-elf/10.3.1/../../../../../H-x86_64-mingw32/nios2-elf/lib\libc.a(lib_a-vfiprintfr_1.o)
 .text._vfiprintf_r
                0x0000000000055aec        0x4 d:/intel_fpga/nios2eds/bin/gnu/h-x86_64-mingw32/bin/../lib/gcc/nios2-elf/10.3.1/../../../../../H-x86_64-mingw32/nios2-elf/lib\libc.a(lib_a-vfiprintfr_1.o)
                0x0000000000055aec                _vfiprintf_r
 .text          0x0000000000055af0        0x0 d:/intel_fpga/nios2eds/bin/gnu/h-x86_64-mingw32/bin/../lib/gcc/nios2-elf/10.3.1/../../../../../H-x86_64-mingw32/nios2-elf/lib\libc.a(lib_a-wbuf.o)
 .text.__swbuf_r
                0x0000000000055af0      0x148 d:/intel_fpga/nios2eds/bin/gnu/h-x86_64-mingw32/bin/../lib/gcc/nios2-elf/10.3.1/../../../../../H-x86_64-mingw32/nios2-elf/lib\libc.a(lib_a-wbuf.o)
                0x0000000000055af0                __swbuf_r
 .text.__swbuf  0x0000000000055c38       0x18 d:/intel_fpga/nios2eds/bin/gnu/h-x86_64-mingw32/bin/../lib/gcc/nios2-elf/10.3.1/../../../../../H-x86_64-mingw32/nios2-elf/lib\libc.a(lib_a-wbuf.o)
                0x0000000000055c38                __swbuf
 .text          0x0000000000055c50        0x0 d:/intel_fpga/nios2eds/bin/gnu/h-x86_64-mingw32/bin/../lib/gcc/nios2-elf/10.3.1/../../../../../H-x86_64-mingw32/nios2-elf/lib\libc.a(lib_a-wcrtomb.o)
 .text._wcrtomb_r
                0x0000000000055c50       0x6c d:/intel_fpga/nios2eds/bin/gnu/h-x86_64-mingw32/bin/../lib/gcc/nios2-elf/10.3.1/../../../../../H-x86_64-mingw32/nios2-elf/lib\libc.a(lib_a-wcrtomb.o)
                0x0000000000055c50                _wcrtomb_r
 .text.wcrtomb  0x0000000000055cbc       0x88 d:/intel_fpga/nios2eds/bin/gnu/h-x86_64-mingw32/bin/../lib/gcc/nios2-elf/10.3.1/../../../../../H-x86_64-mingw32/nios2-elf/lib\libc.a(lib_a-wcrtomb.o)
                0x0000000000055cbc                wcrtomb
 .text          0x0000000000055d44        0x0 d:/intel_fpga/nios2eds/bin/gnu/h-x86_64-mingw32/bin/../lib/gcc/nios2-elf/10.3.1/../../../../../H-x86_64-mingw32/nios2-elf/lib\libc.a(lib_a-abort.o)
 .text.unlikely.abort
                0x0000000000055d44       0x18 d:/intel_fpga/nios2eds/bin/gnu/h-x86_64-mingw32/bin/../lib/gcc/nios2-elf/10.3.1/../../../../../H-x86_64-mingw32/nios2-elf/lib\libc.a(lib_a-abort.o)
                0x0000000000055d44                abort
 .text          0x0000000000055d5c        0x0 d:/intel_fpga/nios2eds/bin/gnu/h-x86_64-mingw32/bin/../lib/gcc/nios2-elf/10.3.1/../../../../../H-x86_64-mingw32/nios2-elf/lib\libc.a(lib_a-signal.o)
 .text._init_signal_r
                0x0000000000055d5c       0x5c d:/intel_fpga/nios2eds/bin/gnu/h-x86_64-mingw32/bin/../lib/gcc/nios2-elf/10.3.1/../../../../../H-x86_64-mingw32/nios2-elf/lib\libc.a(lib_a-signal.o)
                0x0000000000055d5c                _init_signal_r
 .text._signal_r
                0x0000000000055db8       0x98 d:/intel_fpga/nios2eds/bin/gnu/h-x86_64-mingw32/bin/../lib/gcc/nios2-elf/10.3.1/../../../../../H-x86_64-mingw32/nios2-elf/lib\libc.a(lib_a-signal.o)
                0x0000000000055db8                _signal_r
 .text._raise_r
                0x0000000000055e50       0xc4 d:/intel_fpga/nios2eds/bin/gnu/h-x86_64-mingw32/bin/../lib/gcc/nios2-elf/10.3.1/../../../../../H-x86_64-mingw32/nios2-elf/lib\libc.a(lib_a-signal.o)
                0x0000000000055e50                _raise_r
 .text.__sigtramp_r
                0x0000000000055f14       0xbc d:/intel_fpga/nios2eds/bin/gnu/h-x86_64-mingw32/bin/../lib/gcc/nios2-elf/10.3.1/../../../../../H-x86_64-mingw32/nios2-elf/lib\libc.a(lib_a-signal.o)
                0x0000000000055f14                __sigtramp_r
 .text.raise    0x0000000000055fd0       0xbc d:/intel_fpga/nios2eds/bin/gnu/h-x86_64-mingw32/bin/../lib/gcc/nios2-elf/10.3.1/../../../../../H-x86_64-mingw32/nios2-elf/lib\libc.a(lib_a-signal.o)
                0x0000000000055fd0                raise
 .text.signal   0x000000000005608c       0xa0 d:/intel_fpga/nios2eds/bin/gnu/h-x86_64-mingw32/bin/../lib/gcc/nios2-elf/10.3.1/../../../../../H-x86_64-mingw32/nios2-elf/lib\libc.a(lib_a-signal.o)
                0x000000000005608c                signal
 .text._init_signal
                0x000000000005612c       0x60 d:/intel_fpga/nios2eds/bin/gnu/h-x86_64-mingw32/bin/../lib/gcc/nios2-elf/10.3.1/../../../../../H-x86_64-mingw32/nios2-elf/lib\libc.a(lib_a-signal.o)
                0x000000000005612c                _init_signal
 .text.__sigtramp
                0x000000000005618c       0xbc d:/intel_fpga/nios2eds/bin/gnu/h-x86_64-mingw32/bin/../lib/gcc/nios2-elf/10.3.1/../../../../../H-x86_64-mingw32/nios2-elf/lib\libc.a(lib_a-signal.o)
                0x000000000005618c                __sigtramp
 .text          0x0000000000056248        0x0 d:/intel_fpga/nios2eds/bin/gnu/h-x86_64-mingw32/bin/../lib/gcc/nios2-elf/10.3.1/../../../../../H-x86_64-mingw32/nios2-elf/lib\libc.a(lib_a-signalr.o)
 .text._kill_r  0x0000000000056248       0x60 d:/intel_fpga/nios2eds/bin/gnu/h-x86_64-mingw32/bin/../lib/gcc/nios2-elf/10.3.1/../../../../../H-x86_64-mingw32/nios2-elf/lib\libc.a(lib_a-signalr.o)
                0x0000000000056248                _kill_r
 .text._getpid_r
                0x00000000000562a8        0x4 d:/intel_fpga/nios2eds/bin/gnu/h-x86_64-mingw32/bin/../lib/gcc/nios2-elf/10.3.1/../../../../../H-x86_64-mingw32/nios2-elf/lib\libc.a(lib_a-signalr.o)
                0x00000000000562a8                _getpid_r
 .text          0x00000000000562ac       0x60 d:/intel_fpga/nios2eds/bin/gnu/h-x86_64-mingw32/bin/../lib/gcc/nios2-elf/10.3.1\libgcc.a(_muldi3.o)
                0x00000000000562ac                __muldi3
 .text          0x000000000005630c       0x74 d:/intel_fpga/nios2eds/bin/gnu/h-x86_64-mingw32/bin/../lib/gcc/nios2-elf/10.3.1\libgcc.a(_fixunsdfsi.o)
                0x000000000005630c                __fixunsdfsi
 .text          0x0000000000056380       0x74 d:/intel_fpga/nios2eds/bin/gnu/h-x86_64-mingw32/bin/../lib/gcc/nios2-elf/10.3.1\libgcc.a(_fixdfdi.o)
                0x0000000000056380                __fixdfdi
 .text          0x00000000000563f4       0x90 d:/intel_fpga/nios2eds/bin/gnu/h-x86_64-mingw32/bin/../lib/gcc/nios2-elf/10.3.1\libgcc.a(_fixunsdfdi.o)
                0x00000000000563f4                __fixunsdfdi
 .text          0x0000000000056484       0x70 d:/intel_fpga/nios2eds/bin/gnu/h-x86_64-mingw32/bin/../lib/gcc/nios2-elf/10.3.1\libgcc.a(_floatdidf.o)
                0x0000000000056484                __floatdidf
 .text          0x00000000000564f4      0x590 d:/intel_fpga/nios2eds/bin/gnu/h-x86_64-mingw32/bin/../lib/gcc/nios2-elf/10.3.1\libgcc.a(_udivdi3.o)
                0x00000000000564f4                __udivdi3
 .text          0x0000000000056a84      0x534 d:/intel_fpga/nios2eds/bin/gnu/h-x86_64-mingw32/bin/../lib/gcc/nios2-elf/10.3.1\libgcc.a(_umoddi3.o)
                0x0000000000056a84                __umoddi3
 .text          0x0000000000056fb8      0x1b4 d:/intel_fpga/nios2eds/bin/gnu/h-x86_64-mingw32/bin/../lib/gcc/nios2-elf/10.3.1\libgcc.a(lib2-divmod.o)
                0x0000000000056fb8                __divsi3
                0x0000000000057038                __modsi3
                0x00000000000570ac                __udivsi3
                0x0000000000057110                __umodsi3
 .text          0x000000000005716c       0xb4 d:/intel_fpga/nios2eds/bin/gnu/h-x86_64-mingw32/bin/../lib/gcc/nios2-elf/10.3.1\libgcc.a(lesf2.o)
                0x000000000005716c                __ltsf2
                0x000000000005716c                __lesf2
 .text          0x0000000000057220       0x4c d:/intel_fpga/nios2eds/bin/gnu/h-x86_64-mingw32/bin/../lib/gcc/nios2-elf/10.3.1\libgcc.a(unordsf2.o)
                0x0000000000057220                __unordsf2
 .text          0x000000000005726c      0x8f0 d:/intel_fpga/nios2eds/bin/gnu/h-x86_64-mingw32/bin/../lib/gcc/nios2-elf/10.3.1\libgcc.a(adddf3.o)
                0x000000000005726c                __adddf3
 .text          0x0000000000057b5c      0x850 d:/intel_fpga/nios2eds/bin/gnu/h-x86_64-mingw32/bin/../lib/gcc/nios2-elf/10.3.1\libgcc.a(divdf3.o)
                0x0000000000057b5c                __divdf3
 .text          0x00000000000583ac       0x80 d:/intel_fpga/nios2eds/bin/gnu/h-x86_64-mingw32/bin/../lib/gcc/nios2-elf/10.3.1\libgcc.a(eqdf2.o)
                0x00000000000583ac                __nedf2
                0x00000000000583ac                __eqdf2
 .text          0x000000000005842c       0xe8 d:/intel_fpga/nios2eds/bin/gnu/h-x86_64-mingw32/bin/../lib/gcc/nios2-elf/10.3.1\libgcc.a(gedf2.o)
                0x000000000005842c                __gedf2
                0x000000000005842c                __gtdf2
 .text          0x0000000000058514       0xe8 d:/intel_fpga/nios2eds/bin/gnu/h-x86_64-mingw32/bin/../lib/gcc/nios2-elf/10.3.1\libgcc.a(ledf2.o)
                0x0000000000058514                __ledf2
                0x0000000000058514                __ltdf2
 .text          0x00000000000585fc      0x674 d:/intel_fpga/nios2eds/bin/gnu/h-x86_64-mingw32/bin/../lib/gcc/nios2-elf/10.3.1\libgcc.a(muldf3.o)
                0x00000000000585fc                __muldf3
 .text          0x0000000000058c70      0x90c d:/intel_fpga/nios2eds/bin/gnu/h-x86_64-mingw32/bin/../lib/gcc/nios2-elf/10.3.1\libgcc.a(subdf3.o)
                0x0000000000058c70                __subdf3
 .text          0x000000000005957c       0x54 d:/intel_fpga/nios2eds/bin/gnu/h-x86_64-mingw32/bin/../lib/gcc/nios2-elf/10.3.1\libgcc.a(unorddf2.o)
                0x000000000005957c                __unorddf2
 .text          0x00000000000595d0       0x80 d:/intel_fpga/nios2eds/bin/gnu/h-x86_64-mingw32/bin/../lib/gcc/nios2-elf/10.3.1\libgcc.a(fixdfsi.o)
                0x00000000000595d0                __fixdfsi
 .text          0x0000000000059650       0xb8 d:/intel_fpga/nios2eds/bin/gnu/h-x86_64-mingw32/bin/../lib/gcc/nios2-elf/10.3.1\libgcc.a(floatsidf.o)
                0x0000000000059650                __floatsidf
 .text          0x0000000000059708       0x90 d:/intel_fpga/nios2eds/bin/gnu/h-x86_64-mingw32/bin/../lib/gcc/nios2-elf/10.3.1\libgcc.a(floatunsidf.o)
                0x0000000000059708                __floatunsidf
 .text          0x0000000000059798      0x170 d:/intel_fpga/nios2eds/bin/gnu/h-x86_64-mingw32/bin/../lib/gcc/nios2-elf/10.3.1\libgcc.a(truncdfsf2.o)
                0x0000000000059798                __truncdfsf2
 .text          0x0000000000059908        0x0 d:/intel_fpga/nios2eds/bin/gnu/h-x86_64-mingw32/bin/../lib/gcc/nios2-elf/10.3.1\libgcc.a(_clz.o)
 .text          0x0000000000059908       0x54 d:/intel_fpga/nios2eds/bin/gnu/h-x86_64-mingw32/bin/../lib/gcc/nios2-elf/10.3.1\libgcc.a(_clzsi2.o)
                0x0000000000059908                __clzsi2
 .text          0x000000000005995c      0x10c d:/Downloads/RFS/DE10_Nano_WiFi_Web_Server/software/ewaff_server_bsp/\libhal_bsp.a(alt_close.o)
                0x0000000000059998                close
 .text          0x0000000000059a68       0x2c d:/Downloads/RFS/DE10_Nano_WiFi_Web_Server/software/ewaff_server_bsp/\libhal_bsp.a(alt_dev.o)
 .text          0x0000000000059a94        0x0 d:/Downloads/RFS/DE10_Nano_WiFi_Web_Server/software/ewaff_server_bsp/\libhal_bsp.a(alt_errno.o)
 .text          0x0000000000059a94       0x38 d:/Downloads/RFS/DE10_Nano_WiFi_Web_Server/software/ewaff_server_bsp/\libhal_bsp.a(alt_exit.o)
                0x0000000000059a94                _exit
 .text          0x0000000000059acc      0x160 d:/Downloads/RFS/DE10_Nano_WiFi_Web_Server/software/ewaff_server_bsp/\libhal_bsp.a(alt_fcntl.o)
                0x0000000000059b08                fcntl
 .text          0x0000000000059c2c       0xec d:/Downloads/RFS/DE10_Nano_WiFi_Web_Server/software/ewaff_server_bsp/\libhal_bsp.a(alt_fstat.o)
                0x0000000000059c68                fstat
 .text          0x0000000000059d18       0x20 d:/Downloads/RFS/DE10_Nano_WiFi_Web_Server/software/ewaff_server_bsp/\libhal_bsp.a(alt_getpid.o)
                0x0000000000059d18                getpid
 .text          0x0000000000059d38       0xe0 d:/Downloads/RFS/DE10_Nano_WiFi_Web_Server/software/ewaff_server_bsp/\libhal_bsp.a(alt_isatty.o)
                0x0000000000059d74                isatty
 .text          0x0000000000059e18      0x168 d:/Downloads/RFS/DE10_Nano_WiFi_Web_Server/software/ewaff_server_bsp/\libhal_bsp.a(alt_kill.o)
                0x0000000000059e54                kill
 .text          0x0000000000059f80       0xec d:/Downloads/RFS/DE10_Nano_WiFi_Web_Server/software/ewaff_server_bsp/\libhal_bsp.a(alt_load.o)
                0x0000000000059fe8                alt_load
 .text          0x000000000005a06c      0x110 d:/Downloads/RFS/DE10_Nano_WiFi_Web_Server/software/ewaff_server_bsp/\libhal_bsp.a(alt_lseek.o)
                0x000000000005a0a8                lseek
 .text          0x000000000005a17c       0x7c d:/Downloads/RFS/DE10_Nano_WiFi_Web_Server/software/ewaff_server_bsp/\libhal_bsp.a(alt_main.o)
                0x000000000005a17c                alt_main
 .text          0x000000000005a1f8       0x48 d:/Downloads/RFS/DE10_Nano_WiFi_Web_Server/software/ewaff_server_bsp/\libhal_bsp.a(alt_malloc_lock.o)
                0x000000000005a1f8                __malloc_lock
                0x000000000005a21c                __malloc_unlock
 .text          0x000000000005a240      0x248 d:/Downloads/RFS/DE10_Nano_WiFi_Web_Server/software/ewaff_server_bsp/\libhal_bsp.a(alt_open.o)
                0x000000000005a334                open
 .text          0x000000000005a488      0x138 d:/Downloads/RFS/DE10_Nano_WiFi_Web_Server/software/ewaff_server_bsp/\libhal_bsp.a(alt_read.o)
                0x000000000005a4c4                read
 .text          0x000000000005a5c0       0x58 d:/Downloads/RFS/DE10_Nano_WiFi_Web_Server/software/ewaff_server_bsp/\libhal_bsp.a(alt_release_fd.o)
                0x000000000005a5c0                alt_release_fd
 .text          0x000000000005a618       0xb8 d:/Downloads/RFS/DE10_Nano_WiFi_Web_Server/software/ewaff_server_bsp/\libhal_bsp.a(alt_sbrk.o)
                0x000000000005a618                sbrk
 .text          0x000000000005a6d0       0x30 d:/Downloads/RFS/DE10_Nano_WiFi_Web_Server/software/ewaff_server_bsp/\libhal_bsp.a(alt_usleep.o)
                0x000000000005a6d0                usleep
 .text          0x000000000005a700      0x134 d:/Downloads/RFS/DE10_Nano_WiFi_Web_Server/software/ewaff_server_bsp/\libhal_bsp.a(alt_write.o)
                0x000000000005a73c                write
 .text          0x000000000005a834       0xf4 d:/Downloads/RFS/DE10_Nano_WiFi_Web_Server/software/ewaff_server_bsp/\libhal_bsp.a(alt_sys_init.o)
                0x000000000005a868                alt_irq_init
                0x000000000005a8a4                alt_sys_init
 .text          0x000000000005a928      0x164 d:/Downloads/RFS/DE10_Nano_WiFi_Web_Server/software/ewaff_server_bsp/\libhal_bsp.a(altera_avalon_jtag_uart_fd.o)
                0x000000000005a928                altera_avalon_jtag_uart_read_fd
                0x000000000005a988                altera_avalon_jtag_uart_write_fd
                0x000000000005a9e8                altera_avalon_jtag_uart_close_fd
                0x000000000005aa38                altera_avalon_jtag_uart_ioctl_fd
 .text          0x000000000005aa8c      0x3d4 d:/Downloads/RFS/DE10_Nano_WiFi_Web_Server/software/ewaff_server_bsp/\libhal_bsp.a(altera_avalon_jtag_uart_init.o)
                0x000000000005aa8c                altera_avalon_jtag_uart_init
                0x000000000005adf8                altera_avalon_jtag_uart_close
 .text          0x000000000005ae60       0xf4 d:/Downloads/RFS/DE10_Nano_WiFi_Web_Server/software/ewaff_server_bsp/\libhal_bsp.a(altera_avalon_jtag_uart_ioctl.o)
                0x000000000005ae60                altera_avalon_jtag_uart_ioctl
 .text          0x000000000005af54      0x220 d:/Downloads/RFS/DE10_Nano_WiFi_Web_Server/software/ewaff_server_bsp/\libhal_bsp.a(altera_avalon_jtag_uart_read.o)
                0x000000000005af54                altera_avalon_jtag_uart_read
 .text          0x000000000005b174      0x228 d:/Downloads/RFS/DE10_Nano_WiFi_Web_Server/software/ewaff_server_bsp/\libhal_bsp.a(altera_avalon_jtag_uart_write.o)
                0x000000000005b174                altera_avalon_jtag_uart_write
 .text          0x000000000005b39c      0x100 d:/Downloads/RFS/DE10_Nano_WiFi_Web_Server/software/ewaff_server_bsp/\libhal_bsp.a(altera_avalon_timer_sc.o)
                0x000000000005b418                alt_avalon_timer_sc_init
 .text          0x000000000005b49c      0x110 d:/Downloads/RFS/DE10_Nano_WiFi_Web_Server/software/ewaff_server_bsp/\libhal_bsp.a(altera_avalon_uart_fd.o)
                0x000000000005b49c                altera_avalon_uart_read_fd
                0x000000000005b4fc                altera_avalon_uart_write_fd
                0x000000000005b55c                altera_avalon_uart_close_fd
 .text          0x000000000005b5ac      0x3c0 d:/Downloads/RFS/DE10_Nano_WiFi_Web_Server/software/ewaff_server_bsp/\libhal_bsp.a(altera_avalon_uart_init.o)
                0x000000000005b5ac                altera_avalon_uart_init
                0x000000000005b918                altera_avalon_uart_close
 .text          0x000000000005b96c      0x224 d:/Downloads/RFS/DE10_Nano_WiFi_Web_Server/software/ewaff_server_bsp/\libhal_bsp.a(altera_avalon_uart_read.o)
                0x000000000005b9a8                altera_avalon_uart_read
 .text          0x000000000005bb90      0x1f0 d:/Downloads/RFS/DE10_Nano_WiFi_Web_Server/software/ewaff_server_bsp/\libhal_bsp.a(altera_avalon_uart_write.o)
                0x000000000005bbcc                altera_avalon_uart_write
 .text          0x000000000005bd80      0x160 d:/Downloads/RFS/DE10_Nano_WiFi_Web_Server/software/ewaff_server_bsp/\libhal_bsp.a(alt_alarm_start.o)
                0x000000000005bd80                alt_alarm_start
 .text          0x000000000005bee0      0x158 d:/Downloads/RFS/DE10_Nano_WiFi_Web_Server/software/ewaff_server_bsp/\libhal_bsp.a(alt_busy_sleep.o)
                0x000000000005bee0                alt_busy_sleep
 .text          0x000000000005c038       0x4c d:/Downloads/RFS/DE10_Nano_WiFi_Web_Server/software/ewaff_server_bsp/\libhal_bsp.a(alt_dcache_flush_all.o)
                0x000000000005c038                alt_dcache_flush_all
 .text          0x000000000005c084       0xe4 d:/Downloads/RFS/DE10_Nano_WiFi_Web_Server/software/ewaff_server_bsp/\libhal_bsp.a(alt_dev_llist_insert.o)
                0x000000000005c0c0                alt_dev_llist_insert
 .text          0x000000000005c168       0x64 d:/Downloads/RFS/DE10_Nano_WiFi_Web_Server/software/ewaff_server_bsp/\libhal_bsp.a(alt_do_ctors.o)
                0x000000000005c168                _do_ctors
 .text          0x000000000005c1cc       0x64 d:/Downloads/RFS/DE10_Nano_WiFi_Web_Server/software/ewaff_server_bsp/\libhal_bsp.a(alt_do_dtors.o)
                0x000000000005c1cc                _do_dtors
 .text          0x000000000005c230       0x90 d:/Downloads/RFS/DE10_Nano_WiFi_Web_Server/software/ewaff_server_bsp/\libhal_bsp.a(alt_find_dev.o)
                0x000000000005c230                alt_find_dev
 .text          0x000000000005c2c0      0x108 d:/Downloads/RFS/DE10_Nano_WiFi_Web_Server/software/ewaff_server_bsp/\libhal_bsp.a(alt_find_file.o)
                0x000000000005c2c0                alt_find_file
 .text          0x000000000005c3c8       0xa0 d:/Downloads/RFS/DE10_Nano_WiFi_Web_Server/software/ewaff_server_bsp/\libhal_bsp.a(alt_get_fd.o)
                0x000000000005c3c8                alt_get_fd
 .text          0x000000000005c468       0x34 d:/Downloads/RFS/DE10_Nano_WiFi_Web_Server/software/ewaff_server_bsp/\libhal_bsp.a(alt_icache_flush_all.o)
                0x000000000005c468                alt_icache_flush_all
 .text          0x000000000005c49c      0x1b0 d:/Downloads/RFS/DE10_Nano_WiFi_Web_Server/software/ewaff_server_bsp/\libhal_bsp.a(alt_iic.o)
                0x000000000005c49c                alt_ic_isr_register
                0x000000000005c4ec                alt_ic_irq_enable
                0x000000000005c574                alt_ic_irq_disable
                0x000000000005c600                alt_ic_irq_enabled
 .text          0x000000000005c64c       0xe8 d:/Downloads/RFS/DE10_Nano_WiFi_Web_Server/software/ewaff_server_bsp/\libhal_bsp.a(alt_iic_isr_register.o)
                0x000000000005c64c                alt_iic_isr_register
 .text          0x000000000005c734      0x12c d:/Downloads/RFS/DE10_Nano_WiFi_Web_Server/software/ewaff_server_bsp/\libhal_bsp.a(alt_io_redirect.o)
                0x000000000005c7e4                alt_io_redirect
 .text          0x000000000005c860        0x0 d:/Downloads/RFS/DE10_Nano_WiFi_Web_Server/software/ewaff_server_bsp/\libhal_bsp.a(alt_irq_entry.o)
 .text          0x000000000005c860        0x0 d:/Downloads/RFS/DE10_Nano_WiFi_Web_Server/software/ewaff_server_bsp/\libhal_bsp.a(alt_irq_handler.o)
 .text          0x000000000005c860        0x0 d:/Downloads/RFS/DE10_Nano_WiFi_Web_Server/software/ewaff_server_bsp/\libhal_bsp.a(alt_irq_vars.o)
 .text          0x000000000005c860      0x1d0 d:/Downloads/RFS/DE10_Nano_WiFi_Web_Server/software/ewaff_server_bsp/\libhal_bsp.a(alt_tick.o)
                0x000000000005c860                alt_alarm_stop
                0x000000000005c904                alt_tick
 .text          0x000000000005ca30       0x24 d:/Downloads/RFS/DE10_Nano_WiFi_Web_Server/software/ewaff_server_bsp/\libhal_bsp.a(altera_nios2_gen2_irq.o)
                0x000000000005ca30                altera_nios2_gen2_irq_init
 .text          0x000000000005ca54        0x0 d:/Downloads/RFS/DE10_Nano_WiFi_Web_Server/software/ewaff_server_bsp/\libhal_bsp.a(alt_exception_entry.o)
 .text          0x000000000005ca54       0x90 d:/Downloads/RFS/DE10_Nano_WiFi_Web_Server/software/ewaff_server_bsp/\libhal_bsp.a(alt_icache_flush.o)
                0x000000000005ca54                alt_icache_flush
 .text          0x000000000005cae4       0x98 d:/Downloads/RFS/DE10_Nano_WiFi_Web_Server/software/ewaff_server_bsp/\libhal_bsp.a(alt_instruction_exception_entry.o)
                0x000000000005cae4                alt_exception_cause_generated_bad_addr
 .text          0x000000000005cb7c        0x0 d:/intel_fpga/nios2eds/bin/gnu/h-x86_64-mingw32/bin/../lib/gcc/nios2-elf/10.3.1/../../../../../H-x86_64-mingw32/nios2-elf/lib\libc.a(lib_a-atexit.o)
 .text.atexit   0x000000000005cb7c       0x14 d:/intel_fpga/nios2eds/bin/gnu/h-x86_64-mingw32/bin/../lib/gcc/nios2-elf/10.3.1/../../../../../H-x86_64-mingw32/nios2-elf/lib\libc.a(lib_a-atexit.o)
                0x000000000005cb7c                atexit
 .text          0x000000000005cb90        0x0 d:/intel_fpga/nios2eds/bin/gnu/h-x86_64-mingw32/bin/../lib/gcc/nios2-elf/10.3.1/../../../../../H-x86_64-mingw32/nios2-elf/lib\libc.a(lib_a-exit.o)
 .text.exit     0x000000000005cb90       0x34 d:/intel_fpga/nios2eds/bin/gnu/h-x86_64-mingw32/bin/../lib/gcc/nios2-elf/10.3.1/../../../../../H-x86_64-mingw32/nios2-elf/lib\libc.a(lib_a-exit.o)
                0x000000000005cb90                exit
 .text          0x000000000005cbc4        0x0 d:/intel_fpga/nios2eds/bin/gnu/h-x86_64-mingw32/bin/../lib/gcc/nios2-elf/10.3.1/../../../../../H-x86_64-mingw32/nios2-elf/lib\libc.a(lib_a-__atexit.o)
 .text.__register_exitproc
                0x000000000005cbc4       0x90 d:/intel_fpga/nios2eds/bin/gnu/h-x86_64-mingw32/bin/../lib/gcc/nios2-elf/10.3.1/../../../../../H-x86_64-mingw32/nios2-elf/lib\libc.a(lib_a-__atexit.o)
                0x000000000005cbc4                __register_exitproc
 .text          0x000000000005cc54        0x0 d:/intel_fpga/nios2eds/bin/gnu/h-x86_64-mingw32/bin/../lib/gcc/nios2-elf/10.3.1/../../../../../H-x86_64-mingw32/nios2-elf/lib\libc.a(lib_a-__call_atexit.o)
 .text.__call_exitprocs
                0x000000000005cc54      0x120 d:/intel_fpga/nios2eds/bin/gnu/h-x86_64-mingw32/bin/../lib/gcc/nios2-elf/10.3.1/../../../../../H-x86_64-mingw32/nios2-elf/lib\libc.a(lib_a-__call_atexit.o)
                0x000000000005cc54                __call_exitprocs
 *(.gnu.warning.*)
 *(.fini)
                [!provide]                        PROVIDE (__etext = ABSOLUTE (.))
                [!provide]                        PROVIDE (_etext = ABSOLUTE (.))
                [!provide]                        PROVIDE (etext = ABSOLUTE (.))
 *(.eh_frame_hdr)
                0x000000000005cd74                . = ALIGN (0x4)
                [!provide]                        PROVIDE (__preinit_array_start = ABSOLUTE (.))
 *(.preinit_array)
                [!provide]                        PROVIDE (__preinit_array_end = ABSOLUTE (.))
                [!provide]                        PROVIDE (__init_array_start = ABSOLUTE (.))
 *(.init_array)
                [!provide]                        PROVIDE (__init_array_end = ABSOLUTE (.))
                [!provide]                        PROVIDE (__fini_array_start = ABSOLUTE (.))
 *(.fini_array)
                [!provide]                        PROVIDE (__fini_array_end = ABSOLUTE (.))
 *(.eh_frame)
 *(.gcc_except_table .gcc_except_table.*)
 *(.dynamic)
                0x000000000005cd74                PROVIDE (__CTOR_LIST__ = ABSOLUTE (.))
 *(.ctors)
 *(SORT_BY_NAME(.ctors.*))
                0x000000000005cd74                PROVIDE (__CTOR_END__ = ABSOLUTE (.))
                0x000000000005cd74                PROVIDE (__DTOR_LIST__ = ABSOLUTE (.))
 *(.dtors)
 *(SORT_BY_NAME(.dtors.*))
                0x000000000005cd74                PROVIDE (__DTOR_END__ = ABSOLUTE (.))
 *(.jcr)
                0x000000000005cd74                . = ALIGN (0x4)

.rodata         0x000000000005cd74      0xd78
                0x000000000005cd74                PROVIDE (__ram_rodata_start = ABSOLUTE (.))
                0x000000000005cd74                . = ALIGN (0x4)
 *(.rodata .rodata.* .gnu.linkonce.r.*)
 .rodata        0x000000000005cd74      0x4cd obj/default/esp8266.o
 *fill*         0x000000000005d241        0x3 
 .rodata        0x000000000005d244       0x14 obj/default/main.o
 .rodata._puts_r.str1.4
                0x000000000005d258        0x2 d:/intel_fpga/nios2eds/bin/gnu/h-x86_64-mingw32/bin/../lib/gcc/nios2-elf/10.3.1/../../../../../H-x86_64-mingw32/nios2-elf/lib\libc.a(lib_a-puts.o)
 *fill*         0x000000000005d25a        0x2 
 .rodata.___svfprintf_internal_r.str1.4
                0x000000000005d25c       0x42 d:/intel_fpga/nios2eds/bin/gnu/h-x86_64-mingw32/bin/../lib/gcc/nios2-elf/10.3.1/../../../../../H-x86_64-mingw32/nios2-elf/lib\libc.a(lib_a-svfprintf.o)
 *fill*         0x000000000005d29e        0x2 
 .rodata.zeroes.0
                0x000000000005d2a0       0x10 d:/intel_fpga/nios2eds/bin/gnu/h-x86_64-mingw32/bin/../lib/gcc/nios2-elf/10.3.1/../../../../../H-x86_64-mingw32/nios2-elf/lib\libc.a(lib_a-svfprintf.o)
 .rodata.blanks.1
                0x000000000005d2b0       0x10 d:/intel_fpga/nios2eds/bin/gnu/h-x86_64-mingw32/bin/../lib/gcc/nios2-elf/10.3.1/../../../../../H-x86_64-mingw32/nios2-elf/lib\libc.a(lib_a-svfprintf.o)
 .rodata.__ssvfscanf_r.str1.4
                0x000000000005d2c0        0x5 d:/intel_fpga/nios2eds/bin/gnu/h-x86_64-mingw32/bin/../lib/gcc/nios2-elf/10.3.1/../../../../../H-x86_64-mingw32/nios2-elf/lib\libc.a(lib_a-svfscanf.o)
 *fill*         0x000000000005d2c5        0x1 
 .rodata.basefix.0
                0x000000000005d2c6       0x22 d:/intel_fpga/nios2eds/bin/gnu/h-x86_64-mingw32/bin/../lib/gcc/nios2-elf/10.3.1/../../../../../H-x86_64-mingw32/nios2-elf/lib\libc.a(lib_a-svfscanf.o)
 .rodata.___vfprintf_internal_r.str1.4
                0x000000000005d2e8       0x42 d:/intel_fpga/nios2eds/bin/gnu/h-x86_64-mingw32/bin/../lib/gcc/nios2-elf/10.3.1/../../../../../H-x86_64-mingw32/nios2-elf/lib\libc.a(lib_a-vfprintf.o)
 .rodata.zeroes.0
                0x000000000005d2e8       0x10 d:/intel_fpga/nios2eds/bin/gnu/h-x86_64-mingw32/bin/../lib/gcc/nios2-elf/10.3.1/../../../../../H-x86_64-mingw32/nios2-elf/lib\libc.a(lib_a-vfprintf.o)
 .rodata.blanks.1
                0x000000000005d2f8       0x10 d:/intel_fpga/nios2eds/bin/gnu/h-x86_64-mingw32/bin/../lib/gcc/nios2-elf/10.3.1/../../../../../H-x86_64-mingw32/nios2-elf/lib\libc.a(lib_a-vfprintf.o)
 .rodata._ctype_
                0x000000000005d308      0x101 d:/intel_fpga/nios2eds/bin/gnu/h-x86_64-mingw32/bin/../lib/gcc/nios2-elf/10.3.1/../../../../../H-x86_64-mingw32/nios2-elf/lib\libc.a(lib_a-ctype_.o)
                0x000000000005d308                _ctype_
 *fill*         0x000000000005d409        0x3 
 .rodata._ctype_b
                0x000000000005d40c      0x180 d:/intel_fpga/nios2eds/bin/gnu/h-x86_64-mingw32/bin/../lib/gcc/nios2-elf/10.3.1/../../../../../H-x86_64-mingw32/nios2-elf/lib\libc.a(lib_a-ctype_.o)
                0x000000000005d40c                _ctype_b
 .rodata._dtoa_r.str1.4
                0x000000000005d58c       0x5e d:/intel_fpga/nios2eds/bin/gnu/h-x86_64-mingw32/bin/../lib/gcc/nios2-elf/10.3.1/../../../../../H-x86_64-mingw32/nios2-elf/lib\libc.a(lib_a-dtoa.o)
                                         0x62 (size before relaxing)
 *fill*         0x000000000005d5ea        0x2 
 .rodata._setlocale_r.str1.4
                0x000000000005d5ec        0xa d:/intel_fpga/nios2eds/bin/gnu/h-x86_64-mingw32/bin/../lib/gcc/nios2-elf/10.3.1/../../../../../H-x86_64-mingw32/nios2-elf/lib\libc.a(lib_a-locale.o)
 *fill*         0x000000000005d5f6        0x2 
 .rodata.str1.4
                0x000000000005d5f8        0x2 d:/intel_fpga/nios2eds/bin/gnu/h-x86_64-mingw32/bin/../lib/gcc/nios2-elf/10.3.1/../../../../../H-x86_64-mingw32/nios2-elf/lib\libc.a(lib_a-locale.o)
                                          0x5 (size before relaxing)
 .rodata._mbrtowc_r.str1.4
                0x000000000005d5fa        0x1 d:/intel_fpga/nios2eds/bin/gnu/h-x86_64-mingw32/bin/../lib/gcc/nios2-elf/10.3.1/../../../../../H-x86_64-mingw32/nios2-elf/lib\libc.a(lib_a-mbrtowc.o)
 *fill*         0x000000000005d5fa        0x2 
 .rodata.__multadd.str1.4
                0x000000000005d5fc       0x3b d:/intel_fpga/nios2eds/bin/gnu/h-x86_64-mingw32/bin/../lib/gcc/nios2-elf/10.3.1/../../../../../H-x86_64-mingw32/nios2-elf/lib\libc.a(lib_a-mprec.o)
                                         0x4f (size before relaxing)
 *fill*         0x000000000005d637        0x1 
 .rodata.p05.0  0x000000000005d638        0xc d:/intel_fpga/nios2eds/bin/gnu/h-x86_64-mingw32/bin/../lib/gcc/nios2-elf/10.3.1/../../../../../H-x86_64-mingw32/nios2-elf/lib\libc.a(lib_a-mprec.o)
 .rodata.__mprec_tinytens
                0x000000000005d644       0x28 d:/intel_fpga/nios2eds/bin/gnu/h-x86_64-mingw32/bin/../lib/gcc/nios2-elf/10.3.1/../../../../../H-x86_64-mingw32/nios2-elf/lib\libc.a(lib_a-mprec.o)
                0x000000000005d644                __mprec_tinytens
 .rodata.__mprec_bigtens
                0x000000000005d66c       0x28 d:/intel_fpga/nios2eds/bin/gnu/h-x86_64-mingw32/bin/../lib/gcc/nios2-elf/10.3.1/../../../../../H-x86_64-mingw32/nios2-elf/lib\libc.a(lib_a-mprec.o)
                0x000000000005d66c                __mprec_bigtens
 .rodata.__mprec_tens
                0x000000000005d694       0xc8 d:/intel_fpga/nios2eds/bin/gnu/h-x86_64-mingw32/bin/../lib/gcc/nios2-elf/10.3.1/../../../../../H-x86_64-mingw32/nios2-elf/lib\libc.a(lib_a-mprec.o)
                0x000000000005d694                __mprec_tens
 .rodata._strtod_l.str1.4
                0x000000000005d75c        0xf d:/intel_fpga/nios2eds/bin/gnu/h-x86_64-mingw32/bin/../lib/gcc/nios2-elf/10.3.1/../../../../../H-x86_64-mingw32/nios2-elf/lib\libc.a(lib_a-strtod.o)
 *fill*         0x000000000005d76b        0x1 
 .rodata.fpinan.0
                0x000000000005d76c       0x14 d:/intel_fpga/nios2eds/bin/gnu/h-x86_64-mingw32/bin/../lib/gcc/nios2-elf/10.3.1/../../../../../H-x86_64-mingw32/nios2-elf/lib\libc.a(lib_a-strtod.o)
 .rodata.fpi.1  0x000000000005d780       0x14 d:/intel_fpga/nios2eds/bin/gnu/h-x86_64-mingw32/bin/../lib/gcc/nios2-elf/10.3.1/../../../../../H-x86_64-mingw32/nios2-elf/lib\libc.a(lib_a-strtod.o)
 .rodata.tinytens
                0x000000000005d794       0x28 d:/intel_fpga/nios2eds/bin/gnu/h-x86_64-mingw32/bin/../lib/gcc/nios2-elf/10.3.1/../../../../../H-x86_64-mingw32/nios2-elf/lib\libc.a(lib_a-strtod.o)
 .rodata.___svfiprintf_internal_r.str1.4
                0x000000000005d7bc       0x2f d:/intel_fpga/nios2eds/bin/gnu/h-x86_64-mingw32/bin/../lib/gcc/nios2-elf/10.3.1/../../../../../H-x86_64-mingw32/nios2-elf/lib\libc.a(lib_a-svfiprintf.o)
 .rodata.zeroes.0
                0x000000000005d7bc       0x10 d:/intel_fpga/nios2eds/bin/gnu/h-x86_64-mingw32/bin/../lib/gcc/nios2-elf/10.3.1/../../../../../H-x86_64-mingw32/nios2-elf/lib\libc.a(lib_a-svfiprintf.o)
 .rodata.blanks.1
                0x000000000005d7cc       0x10 d:/intel_fpga/nios2eds/bin/gnu/h-x86_64-mingw32/bin/../lib/gcc/nios2-elf/10.3.1/../../../../../H-x86_64-mingw32/nios2-elf/lib\libc.a(lib_a-svfiprintf.o)
 .rodata.basefix.0
                0x000000000005d7dc       0x22 d:/intel_fpga/nios2eds/bin/gnu/h-x86_64-mingw32/bin/../lib/gcc/nios2-elf/10.3.1/../../../../../H-x86_64-mingw32/nios2-elf/lib\libc.a(lib_a-svfiscanf.o)
 .rodata.___vfiprintf_internal_r.str1.4
                0x000000000005d7fe       0x2f d:/intel_fpga/nios2eds/bin/gnu/h-x86_64-mingw32/bin/../lib/gcc/nios2-elf/10.3.1/../../../../../H-x86_64-mingw32/nios2-elf/lib\libc.a(lib_a-vfiprintf.o)
 *fill*         0x000000000005d7fe        0x2 
 .rodata.zeroes.0
                0x000000000005d800       0x10 d:/intel_fpga/nios2eds/bin/gnu/h-x86_64-mingw32/bin/../lib/gcc/nios2-elf/10.3.1/../../../../../H-x86_64-mingw32/nios2-elf/lib\libc.a(lib_a-vfiprintf.o)
 .rodata.blanks.1
                0x000000000005d810       0x10 d:/intel_fpga/nios2eds/bin/gnu/h-x86_64-mingw32/bin/../lib/gcc/nios2-elf/10.3.1/../../../../../H-x86_64-mingw32/nios2-elf/lib\libc.a(lib_a-vfiprintf.o)
 .rodata.__assert_func.str1.4
                0x000000000005d820       0x3f d:/intel_fpga/nios2eds/bin/gnu/h-x86_64-mingw32/bin/../lib/gcc/nios2-elf/10.3.1/../../../../../H-x86_64-mingw32/nios2-elf/lib\libc.a(lib_a-assert.o)
                                         0x43 (size before relaxing)
 *fill*         0x000000000005d85f        0x1 
 .rodata.__gethex.str1.4
                0x000000000005d860       0x42 d:/intel_fpga/nios2eds/bin/gnu/h-x86_64-mingw32/bin/../lib/gcc/nios2-elf/10.3.1/../../../../../H-x86_64-mingw32/nios2-elf/lib\libc.a(lib_a-gdtoa-gethex.o)
                                         0x56 (size before relaxing)
 *fill*         0x000000000005d8a2        0x2 
 .rodata.__hexdig
                0x000000000005d8a4      0x100 d:/intel_fpga/nios2eds/bin/gnu/h-x86_64-mingw32/bin/../lib/gcc/nios2-elf/10.3.1/../../../../../H-x86_64-mingw32/nios2-elf/lib\libc.a(lib_a-gdtoa-gethex.o)
                0x000000000005d8a4                __hexdig
 .rodata.str1.4
                0x000000000005d9a4        0x5 d:/intel_fpga/nios2eds/bin/gnu/h-x86_64-mingw32/bin/../lib/gcc/nios2-elf/10.3.1/../../../../../H-x86_64-mingw32/nios2-elf/lib\libc.a(lib_a-lnumeric.o)
 .rodata._C_numeric_locale
                0x000000000005d9a4        0xc d:/intel_fpga/nios2eds/bin/gnu/h-x86_64-mingw32/bin/../lib/gcc/nios2-elf/10.3.1/../../../../../H-x86_64-mingw32/nios2-elf/lib\libc.a(lib_a-lnumeric.o)
                0x000000000005d9a4                _C_numeric_locale
 .rodata        0x000000000005d9b0      0x100 d:/intel_fpga/nios2eds/bin/gnu/h-x86_64-mingw32/bin/../lib/gcc/nios2-elf/10.3.1\libgcc.a(_clz.o)
                0x000000000005d9b0                __clz_tab
 .rodata        0x000000000005dab0        0xa d:/Downloads/RFS/DE10_Nano_WiFi_Web_Server/software/ewaff_server_bsp/\libhal_bsp.a(alt_dev.o)
 *fill*         0x000000000005daba        0x2 
 .rodata        0x000000000005dabc        0xf d:/Downloads/RFS/DE10_Nano_WiFi_Web_Server/software/ewaff_server_bsp/\libhal_bsp.a(alt_main.o)
 *fill*         0x000000000005dacb        0x1 
 .rodata        0x000000000005dacc       0x20 d:/Downloads/RFS/DE10_Nano_WiFi_Web_Server/software/ewaff_server_bsp/\libhal_bsp.a(alt_sys_init.o)
 *(.rodata1)
                0x000000000005daec                . = ALIGN (0x4)
                0x000000000005daec                PROVIDE (__ram_rodata_end = ABSOLUTE (.))
                0x000000000005cd74                PROVIDE (__flash_rodata_start = LOADADDR (.rodata))

.rwdata         0x000000000005daec     0x23d4 load address 0x000000000005fec0
                0x000000000005daec                PROVIDE (__ram_rwdata_start = ABSOLUTE (.))
                0x000000000005daec                . = ALIGN (0x4)
 *(.got.plt)
 *(.got)
 *(.data1)
 *(.data .data.* .gnu.linkonce.d.*)
 .data          0x000000000005daec        0x0 d:/Downloads/RFS/DE10_Nano_WiFi_Web_Server/software/ewaff_server_bsp//obj/HAL/src/crt0.o
 .data          0x000000000005daec      0x6fd obj/default/esp8266.o
                0x000000000005daec                index_html
                0x000000000005dcec                fire_html
                0x000000000005ddf8                __404_html
                0x000000000005de88                favicon_ico
 .data          0x000000000005e1e9        0x0 obj/default/main.o
 .data          0x000000000005e1e9        0x0 d:/intel_fpga/nios2eds/bin/gnu/h-x86_64-mingw32/bin/../lib/gcc/nios2-elf/10.3.1\libgcc.a(fixsfsi.o)
 .data          0x000000000005e1e9        0x0 d:/intel_fpga/nios2eds/bin/gnu/h-x86_64-mingw32/bin/../lib/gcc/nios2-elf/10.3.1/../../../../../H-x86_64-mingw32/nios2-elf/lib\libc.a(lib_a-fflush.o)
 .data          0x000000000005e1e9        0x0 d:/intel_fpga/nios2eds/bin/gnu/h-x86_64-mingw32/bin/../lib/gcc/nios2-elf/10.3.1/../../../../../H-x86_64-mingw32/nios2-elf/lib\libc.a(lib_a-fgetc.o)
 .data          0x000000000005e1e9        0x0 d:/intel_fpga/nios2eds/bin/gnu/h-x86_64-mingw32/bin/../lib/gcc/nios2-elf/10.3.1/../../../../../H-x86_64-mingw32/nios2-elf/lib\libc.a(lib_a-fgets.o)
 .data          0x000000000005e1e9        0x0 d:/intel_fpga/nios2eds/bin/gnu/h-x86_64-mingw32/bin/../lib/gcc/nios2-elf/10.3.1/../../../../../H-x86_64-mingw32/nios2-elf/lib\libc.a(lib_a-fileno.o)
 .data          0x000000000005e1e9        0x0 d:/intel_fpga/nios2eds/bin/gnu/h-x86_64-mingw32/bin/../lib/gcc/nios2-elf/10.3.1/../../../../../H-x86_64-mingw32/nios2-elf/lib\libc.a(lib_a-findfp.o)
 .data          0x000000000005e1e9        0x0 d:/intel_fpga/nios2eds/bin/gnu/h-x86_64-mingw32/bin/../lib/gcc/nios2-elf/10.3.1/../../../../../H-x86_64-mingw32/nios2-elf/lib\libc.a(lib_a-fopen.o)
 .data          0x000000000005e1e9        0x0 d:/intel_fpga/nios2eds/bin/gnu/h-x86_64-mingw32/bin/../lib/gcc/nios2-elf/10.3.1/../../../../../H-x86_64-mingw32/nios2-elf/lib\libc.a(lib_a-fprintf.o)
 .data          0x000000000005e1e9        0x0 d:/intel_fpga/nios2eds/bin/gnu/h-x86_64-mingw32/bin/../lib/gcc/nios2-elf/10.3.1/../../../../../H-x86_64-mingw32/nios2-elf/lib\libc.a(lib_a-freer.o)
 .data          0x000000000005e1e9        0x0 d:/intel_fpga/nios2eds/bin/gnu/h-x86_64-mingw32/bin/../lib/gcc/nios2-elf/10.3.1/../../../../../H-x86_64-mingw32/nios2-elf/lib\libc.a(lib_a-fseek.o)
 .data          0x000000000005e1e9        0x0 d:/intel_fpga/nios2eds/bin/gnu/h-x86_64-mingw32/bin/../lib/gcc/nios2-elf/10.3.1/../../../../../H-x86_64-mingw32/nios2-elf/lib\libc.a(lib_a-fseeko.o)
 .data          0x000000000005e1e9        0x0 d:/intel_fpga/nios2eds/bin/gnu/h-x86_64-mingw32/bin/../lib/gcc/nios2-elf/10.3.1/../../../../../H-x86_64-mingw32/nios2-elf/lib\libc.a(lib_a-fstatr.o)
 .data          0x000000000005e1e9        0x0 d:/intel_fpga/nios2eds/bin/gnu/h-x86_64-mingw32/bin/../lib/gcc/nios2-elf/10.3.1/../../../../../H-x86_64-mingw32/nios2-elf/lib\libc.a(lib_a-fwalk.o)
 .data          0x000000000005e1e9        0x0 d:/intel_fpga/nios2eds/bin/gnu/h-x86_64-mingw32/bin/../lib/gcc/nios2-elf/10.3.1/../../../../../H-x86_64-mingw32/nios2-elf/lib\libc.a(lib_a-impure.o)
 *fill*         0x000000000005e1e9        0x3 
 .data.impure_data
                0x000000000005e1ec      0x424 d:/intel_fpga/nios2eds/bin/gnu/h-x86_64-mingw32/bin/../lib/gcc/nios2-elf/10.3.1/../../../../../H-x86_64-mingw32/nios2-elf/lib\libc.a(lib_a-impure.o)
 .data          0x000000000005e610        0x0 d:/intel_fpga/nios2eds/bin/gnu/h-x86_64-mingw32/bin/../lib/gcc/nios2-elf/10.3.1/../../../../../H-x86_64-mingw32/nios2-elf/lib\libc.a(lib_a-int_errno.o)
 .data          0x000000000005e610        0x0 d:/intel_fpga/nios2eds/bin/gnu/h-x86_64-mingw32/bin/../lib/gcc/nios2-elf/10.3.1/../../../../../H-x86_64-mingw32/nios2-elf/lib\libc.a(lib_a-makebuf.o)
 .data          0x000000000005e610        0x0 d:/intel_fpga/nios2eds/bin/gnu/h-x86_64-mingw32/bin/../lib/gcc/nios2-elf/10.3.1/../../../../../H-x86_64-mingw32/nios2-elf/lib\libc.a(lib_a-malloc.o)
 .data          0x000000000005e610        0x0 d:/intel_fpga/nios2eds/bin/gnu/h-x86_64-mingw32/bin/../lib/gcc/nios2-elf/10.3.1/../../../../../H-x86_64-mingw32/nios2-elf/lib\libc.a(lib_a-mallocr.o)
 .data.__malloc_av_
                0x000000000005e610      0x408 d:/intel_fpga/nios2eds/bin/gnu/h-x86_64-mingw32/bin/../lib/gcc/nios2-elf/10.3.1/../../../../../H-x86_64-mingw32/nios2-elf/lib\libc.a(lib_a-mallocr.o)
                0x000000000005e610                __malloc_av_
 .data          0x000000000005ea18        0x0 d:/intel_fpga/nios2eds/bin/gnu/h-x86_64-mingw32/bin/../lib/gcc/nios2-elf/10.3.1/../../../../../H-x86_64-mingw32/nios2-elf/lib\libc.a(lib_a-memchr.o)
 .data          0x000000000005ea18        0x0 d:/intel_fpga/nios2eds/bin/gnu/h-x86_64-mingw32/bin/../lib/gcc/nios2-elf/10.3.1/../../../../../H-x86_64-mingw32/nios2-elf/lib\libc.a(lib_a-memcpy.o)
 .data          0x000000000005ea18        0x0 d:/intel_fpga/nios2eds/bin/gnu/h-x86_64-mingw32/bin/../lib/gcc/nios2-elf/10.3.1/../../../../../H-x86_64-mingw32/nios2-elf/lib\libc.a(lib_a-memset.o)
 .data          0x000000000005ea18        0x0 d:/intel_fpga/nios2eds/bin/gnu/h-x86_64-mingw32/bin/../lib/gcc/nios2-elf/10.3.1/../../../../../H-x86_64-mingw32/nios2-elf/lib\libc.a(lib_a-openr.o)
 .data          0x000000000005ea18        0x0 d:/intel_fpga/nios2eds/bin/gnu/h-x86_64-mingw32/bin/../lib/gcc/nios2-elf/10.3.1/../../../../../H-x86_64-mingw32/nios2-elf/lib\libc.a(lib_a-printf.o)
 .data          0x000000000005ea18        0x0 d:/intel_fpga/nios2eds/bin/gnu/h-x86_64-mingw32/bin/../lib/gcc/nios2-elf/10.3.1/../../../../../H-x86_64-mingw32/nios2-elf/lib\libc.a(lib_a-puts.o)
 .data          0x000000000005ea18        0x0 d:/intel_fpga/nios2eds/bin/gnu/h-x86_64-mingw32/bin/../lib/gcc/nios2-elf/10.3.1/../../../../../H-x86_64-mingw32/nios2-elf/lib\libc.a(lib_a-refill.o)
 .data          0x000000000005ea18        0x0 d:/intel_fpga/nios2eds/bin/gnu/h-x86_64-mingw32/bin/../lib/gcc/nios2-elf/10.3.1/../../../../../H-x86_64-mingw32/nios2-elf/lib\libc.a(lib_a-rget.o)
 .data          0x000000000005ea18        0x0 d:/intel_fpga/nios2eds/bin/gnu/h-x86_64-mingw32/bin/../lib/gcc/nios2-elf/10.3.1/../../../../../H-x86_64-mingw32/nios2-elf/lib\libc.a(lib_a-sbrkr.o)
 .data          0x000000000005ea18        0x0 d:/intel_fpga/nios2eds/bin/gnu/h-x86_64-mingw32/bin/../lib/gcc/nios2-elf/10.3.1/../../../../../H-x86_64-mingw32/nios2-elf/lib\libc.a(lib_a-sprintf.o)
 .data          0x000000000005ea18        0x0 d:/intel_fpga/nios2eds/bin/gnu/h-x86_64-mingw32/bin/../lib/gcc/nios2-elf/10.3.1/../../../../../H-x86_64-mingw32/nios2-elf/lib\libc.a(lib_a-sscanf.o)
 .data          0x000000000005ea18        0x0 d:/intel_fpga/nios2eds/bin/gnu/h-x86_64-mingw32/bin/../lib/gcc/nios2-elf/10.3.1/../../../../../H-x86_64-mingw32/nios2-elf/lib\libc.a(lib_a-stdio.o)
 .data          0x000000000005ea18        0x0 d:/intel_fpga/nios2eds/bin/gnu/h-x86_64-mingw32/bin/../lib/gcc/nios2-elf/10.3.1/../../../../../H-x86_64-mingw32/nios2-elf/lib\libc.a(lib_a-strcat.o)
 .data          0x000000000005ea18        0x0 d:/intel_fpga/nios2eds/bin/gnu/h-x86_64-mingw32/bin/../lib/gcc/nios2-elf/10.3.1/../../../../../H-x86_64-mingw32/nios2-elf/lib\libc.a(lib_a-strchr.o)
 .data          0x000000000005ea18        0x0 d:/intel_fpga/nios2eds/bin/gnu/h-x86_64-mingw32/bin/../lib/gcc/nios2-elf/10.3.1/../../../../../H-x86_64-mingw32/nios2-elf/lib\libc.a(lib_a-strcmp.o)
 .data          0x000000000005ea18        0x0 d:/intel_fpga/nios2eds/bin/gnu/h-x86_64-mingw32/bin/../lib/gcc/nios2-elf/10.3.1/../../../../../H-x86_64-mingw32/nios2-elf/lib\libc.a(lib_a-strcpy.o)
 .data          0x000000000005ea18        0x0 d:/intel_fpga/nios2eds/bin/gnu/h-x86_64-mingw32/bin/../lib/gcc/nios2-elf/10.3.1/../../../../../H-x86_64-mingw32/nios2-elf/lib\libc.a(lib_a-strlen.o)
 .data          0x000000000005ea18        0x0 d:/intel_fpga/nios2eds/bin/gnu/h-x86_64-mingw32/bin/../lib/gcc/nios2-elf/10.3.1/../../../../../H-x86_64-mingw32/nios2-elf/lib\libc.a(lib_a-strstr.o)
 .data          0x000000000005ea18        0x0 d:/intel_fpga/nios2eds/bin/gnu/h-x86_64-mingw32/bin/../lib/gcc/nios2-elf/10.3.1/../../../../../H-x86_64-mingw32/nios2-elf/lib\libc.a(lib_a-svfprintf.o)
 .data          0x000000000005ea18        0x0 d:/intel_fpga/nios2eds/bin/gnu/h-x86_64-mingw32/bin/../lib/gcc/nios2-elf/10.3.1/../../../../../H-x86_64-mingw32/nios2-elf/lib\libc.a(lib_a-svfscanf.o)
 .data          0x000000000005ea18        0x0 d:/intel_fpga/nios2eds/bin/gnu/h-x86_64-mingw32/bin/../lib/gcc/nios2-elf/10.3.1/../../../../../H-x86_64-mingw32/nios2-elf/lib\libc.a(lib_a-vfprintf.o)
 .data          0x000000000005ea18        0x0 d:/intel_fpga/nios2eds/bin/gnu/h-x86_64-mingw32/bin/../lib/gcc/nios2-elf/10.3.1/../../../../../H-x86_64-mingw32/nios2-elf/lib\libc.a(lib_a-writer.o)
 .data          0x000000000005ea18        0x0 d:/intel_fpga/nios2eds/bin/gnu/h-x86_64-mingw32/bin/../lib/gcc/nios2-elf/10.3.1/../../../../../H-x86_64-mingw32/nios2-elf/lib\libc.a(lib_a-wsetup.o)
 .data          0x000000000005ea18        0x0 d:/intel_fpga/nios2eds/bin/gnu/h-x86_64-mingw32/bin/../lib/gcc/nios2-elf/10.3.1/../../../../../H-x86_64-mingw32/nios2-elf/lib\libc.a(closer.o)
 .data          0x000000000005ea18        0x0 d:/intel_fpga/nios2eds/bin/gnu/h-x86_64-mingw32/bin/../lib/gcc/nios2-elf/10.3.1/../../../../../H-x86_64-mingw32/nios2-elf/lib\libc.a(lib_a-ctype_.o)
 .data          0x000000000005ea18        0x0 d:/intel_fpga/nios2eds/bin/gnu/h-x86_64-mingw32/bin/../lib/gcc/nios2-elf/10.3.1/../../../../../H-x86_64-mingw32/nios2-elf/lib\libc.a(lib_a-dtoa.o)
 .data          0x000000000005ea18        0x0 d:/intel_fpga/nios2eds/bin/gnu/h-x86_64-mingw32/bin/../lib/gcc/nios2-elf/10.3.1/../../../../../H-x86_64-mingw32/nios2-elf/lib\libc.a(lib_a-fclose.o)
 .data          0x000000000005ea18        0x0 d:/intel_fpga/nios2eds/bin/gnu/h-x86_64-mingw32/bin/../lib/gcc/nios2-elf/10.3.1/../../../../../H-x86_64-mingw32/nios2-elf/lib\libc.a(lib_a-flags.o)
 .data          0x000000000005ea18        0x0 d:/intel_fpga/nios2eds/bin/gnu/h-x86_64-mingw32/bin/../lib/gcc/nios2-elf/10.3.1/../../../../../H-x86_64-mingw32/nios2-elf/lib\libc.a(lib_a-fvwrite.o)
 .data          0x000000000005ea18        0x0 d:/intel_fpga/nios2eds/bin/gnu/h-x86_64-mingw32/bin/../lib/gcc/nios2-elf/10.3.1/../../../../../H-x86_64-mingw32/nios2-elf/lib\libc.a(lib_a-isattyr.o)
 .data          0x000000000005ea18        0x0 d:/intel_fpga/nios2eds/bin/gnu/h-x86_64-mingw32/bin/../lib/gcc/nios2-elf/10.3.1/../../../../../H-x86_64-mingw32/nios2-elf/lib\libc.a(lib_a-iswspace.o)
 .data          0x000000000005ea18        0x0 d:/intel_fpga/nios2eds/bin/gnu/h-x86_64-mingw32/bin/../lib/gcc/nios2-elf/10.3.1/../../../../../H-x86_64-mingw32/nios2-elf/lib\libc.a(lib_a-iswspace_l.o)
 .data          0x000000000005ea18        0x0 d:/intel_fpga/nios2eds/bin/gnu/h-x86_64-mingw32/bin/../lib/gcc/nios2-elf/10.3.1/../../../../../H-x86_64-mingw32/nios2-elf/lib\libc.a(lib_a-locale.o)
 .data.__global_locale
                0x000000000005ea18      0x16c d:/intel_fpga/nios2eds/bin/gnu/h-x86_64-mingw32/bin/../lib/gcc/nios2-elf/10.3.1/../../../../../H-x86_64-mingw32/nios2-elf/lib\libc.a(lib_a-locale.o)
                0x000000000005ea18                __global_locale
 .data          0x000000000005eb84        0x0 d:/intel_fpga/nios2eds/bin/gnu/h-x86_64-mingw32/bin/../lib/gcc/nios2-elf/10.3.1/../../../../../H-x86_64-mingw32/nios2-elf/lib\libc.a(lib_a-localeconv.o)
 .data          0x000000000005eb84        0x0 d:/intel_fpga/nios2eds/bin/gnu/h-x86_64-mingw32/bin/../lib/gcc/nios2-elf/10.3.1/../../../../../H-x86_64-mingw32/nios2-elf/lib\libc.a(lib_a-lseekr.o)
 .data          0x000000000005eb84        0x0 d:/intel_fpga/nios2eds/bin/gnu/h-x86_64-mingw32/bin/../lib/gcc/nios2-elf/10.3.1/../../../../../H-x86_64-mingw32/nios2-elf/lib\libc.a(lib_a-mbrtowc.o)
 .data          0x000000000005eb84        0x0 d:/intel_fpga/nios2eds/bin/gnu/h-x86_64-mingw32/bin/../lib/gcc/nios2-elf/10.3.1/../../../../../H-x86_64-mingw32/nios2-elf/lib\libc.a(lib_a-mbtowc_r.o)
 .data          0x000000000005eb84        0x0 d:/intel_fpga/nios2eds/bin/gnu/h-x86_64-mingw32/bin/../lib/gcc/nios2-elf/10.3.1/../../../../../H-x86_64-mingw32/nios2-elf/lib\libc.a(lib_a-memcmp.o)
 .data          0x000000000005eb84        0x0 d:/intel_fpga/nios2eds/bin/gnu/h-x86_64-mingw32/bin/../lib/gcc/nios2-elf/10.3.1/../../../../../H-x86_64-mingw32/nios2-elf/lib\libc.a(lib_a-memmove.o)
 .data          0x000000000005eb84        0x0 d:/intel_fpga/nios2eds/bin/gnu/h-x86_64-mingw32/bin/../lib/gcc/nios2-elf/10.3.1/../../../../../H-x86_64-mingw32/nios2-elf/lib\libc.a(lib_a-mprec.o)
 .data          0x000000000005eb84        0x0 d:/intel_fpga/nios2eds/bin/gnu/h-x86_64-mingw32/bin/../lib/gcc/nios2-elf/10.3.1/../../../../../H-x86_64-mingw32/nios2-elf/lib\libc.a(lib_a-readr.o)
 .data          0x000000000005eb84        0x0 d:/intel_fpga/nios2eds/bin/gnu/h-x86_64-mingw32/bin/../lib/gcc/nios2-elf/10.3.1/../../../../../H-x86_64-mingw32/nios2-elf/lib\libc.a(lib_a-reallocr.o)
 .data          0x000000000005eb84        0x0 d:/intel_fpga/nios2eds/bin/gnu/h-x86_64-mingw32/bin/../lib/gcc/nios2-elf/10.3.1/../../../../../H-x86_64-mingw32/nios2-elf/lib\libc.a(lib_a-sccl.o)
 .data          0x000000000005eb84        0x0 d:/intel_fpga/nios2eds/bin/gnu/h-x86_64-mingw32/bin/../lib/gcc/nios2-elf/10.3.1/../../../../../H-x86_64-mingw32/nios2-elf/lib\libc.a(lib_a-strnlen.o)
 .data          0x000000000005eb84        0x0 d:/intel_fpga/nios2eds/bin/gnu/h-x86_64-mingw32/bin/../lib/gcc/nios2-elf/10.3.1/../../../../../H-x86_64-mingw32/nios2-elf/lib\libc.a(lib_a-strtod.o)
 .data          0x000000000005eb84        0x0 d:/intel_fpga/nios2eds/bin/gnu/h-x86_64-mingw32/bin/../lib/gcc/nios2-elf/10.3.1/../../../../../H-x86_64-mingw32/nios2-elf/lib\libc.a(lib_a-strtol.o)
 .data          0x000000000005eb84        0x0 d:/intel_fpga/nios2eds/bin/gnu/h-x86_64-mingw32/bin/../lib/gcc/nios2-elf/10.3.1/../../../../../H-x86_64-mingw32/nios2-elf/lib\libc.a(lib_a-strtoll.o)
 .data          0x000000000005eb84        0x0 d:/intel_fpga/nios2eds/bin/gnu/h-x86_64-mingw32/bin/../lib/gcc/nios2-elf/10.3.1/../../../../../H-x86_64-mingw32/nios2-elf/lib\libc.a(lib_a-strtoul.o)
 .data          0x000000000005eb84        0x0 d:/intel_fpga/nios2eds/bin/gnu/h-x86_64-mingw32/bin/../lib/gcc/nios2-elf/10.3.1/../../../../../H-x86_64-mingw32/nios2-elf/lib\libc.a(lib_a-strtoull.o)
 .data          0x000000000005eb84        0x0 d:/intel_fpga/nios2eds/bin/gnu/h-x86_64-mingw32/bin/../lib/gcc/nios2-elf/10.3.1/../../../../../H-x86_64-mingw32/nios2-elf/lib\libc.a(lib_a-svfiprintf.o)
 .data          0x000000000005eb84        0x0 d:/intel_fpga/nios2eds/bin/gnu/h-x86_64-mingw32/bin/../lib/gcc/nios2-elf/10.3.1/../../../../../H-x86_64-mingw32/nios2-elf/lib\libc.a(lib_a-svfiscanf.o)
 .data          0x000000000005eb84        0x0 d:/intel_fpga/nios2eds/bin/gnu/h-x86_64-mingw32/bin/../lib/gcc/nios2-elf/10.3.1/../../../../../H-x86_64-mingw32/nios2-elf/lib\libc.a(lib_a-ungetc.o)
 .data          0x000000000005eb84        0x0 d:/intel_fpga/nios2eds/bin/gnu/h-x86_64-mingw32/bin/../lib/gcc/nios2-elf/10.3.1/../../../../../H-x86_64-mingw32/nios2-elf/lib\libc.a(lib_a-vfiprintf.o)
 .data          0x000000000005eb84        0x0 d:/intel_fpga/nios2eds/bin/gnu/h-x86_64-mingw32/bin/../lib/gcc/nios2-elf/10.3.1/../../../../../H-x86_64-mingw32/nios2-elf/lib\libc.a(lib_a-wctomb_r.o)
 .data          0x000000000005eb84        0x0 d:/intel_fpga/nios2eds/bin/gnu/h-x86_64-mingw32/bin/../lib/gcc/nios2-elf/10.3.1/../../../../../H-x86_64-mingw32/nios2-elf/lib\libc.a(lib_a-assert.o)
 .data          0x000000000005eb84        0x0 d:/intel_fpga/nios2eds/bin/gnu/h-x86_64-mingw32/bin/../lib/gcc/nios2-elf/10.3.1/../../../../../H-x86_64-mingw32/nios2-elf/lib\libc.a(lib_a-callocr.o)
 .data          0x000000000005eb84        0x0 d:/intel_fpga/nios2eds/bin/gnu/h-x86_64-mingw32/bin/../lib/gcc/nios2-elf/10.3.1/../../../../../H-x86_64-mingw32/nios2-elf/lib\libc.a(lib_a-errno.o)
 .data          0x000000000005eb84        0x0 d:/intel_fpga/nios2eds/bin/gnu/h-x86_64-mingw32/bin/../lib/gcc/nios2-elf/10.3.1/../../../../../H-x86_64-mingw32/nios2-elf/lib\libc.a(lib_a-fiprintf.o)
 .data          0x000000000005eb84        0x0 d:/intel_fpga/nios2eds/bin/gnu/h-x86_64-mingw32/bin/../lib/gcc/nios2-elf/10.3.1/../../../../../H-x86_64-mingw32/nios2-elf/lib\libc.a(lib_a-fputwc.o)
 .data          0x000000000005eb84        0x0 d:/intel_fpga/nios2eds/bin/gnu/h-x86_64-mingw32/bin/../lib/gcc/nios2-elf/10.3.1/../../../../../H-x86_64-mingw32/nios2-elf/lib\libc.a(lib_a-gdtoa-gethex.o)
 .data          0x000000000005eb84        0x0 d:/intel_fpga/nios2eds/bin/gnu/h-x86_64-mingw32/bin/../lib/gcc/nios2-elf/10.3.1/../../../../../H-x86_64-mingw32/nios2-elf/lib\libc.a(lib_a-gdtoa-hexnan.o)
 .data          0x000000000005eb84        0x0 d:/intel_fpga/nios2eds/bin/gnu/h-x86_64-mingw32/bin/../lib/gcc/nios2-elf/10.3.1/../../../../../H-x86_64-mingw32/nios2-elf/lib\libc.a(lib_a-lnumeric.o)
 .data          0x000000000005eb84        0x0 d:/intel_fpga/nios2eds/bin/gnu/h-x86_64-mingw32/bin/../lib/gcc/nios2-elf/10.3.1/../../../../../H-x86_64-mingw32/nios2-elf/lib\libc.a(lib_a-strncmp.o)
 .data          0x000000000005eb84        0x0 d:/intel_fpga/nios2eds/bin/gnu/h-x86_64-mingw32/bin/../lib/gcc/nios2-elf/10.3.1/../../../../../H-x86_64-mingw32/nios2-elf/lib\libc.a(lib_a-vfiprintfr_1.o)
 .data          0x000000000005eb84        0x0 d:/intel_fpga/nios2eds/bin/gnu/h-x86_64-mingw32/bin/../lib/gcc/nios2-elf/10.3.1/../../../../../H-x86_64-mingw32/nios2-elf/lib\libc.a(lib_a-wbuf.o)
 .data          0x000000000005eb84        0x0 d:/intel_fpga/nios2eds/bin/gnu/h-x86_64-mingw32/bin/../lib/gcc/nios2-elf/10.3.1/../../../../../H-x86_64-mingw32/nios2-elf/lib\libc.a(lib_a-wcrtomb.o)
 .data          0x000000000005eb84        0x0 d:/intel_fpga/nios2eds/bin/gnu/h-x86_64-mingw32/bin/../lib/gcc/nios2-elf/10.3.1/../../../../../H-x86_64-mingw32/nios2-elf/lib\libc.a(lib_a-abort.o)
 .data          0x000000000005eb84        0x0 d:/intel_fpga/nios2eds/bin/gnu/h-x86_64-mingw32/bin/../lib/gcc/nios2-elf/10.3.1/../../../../../H-x86_64-mingw32/nios2-elf/lib\libc.a(lib_a-signal.o)
 .data          0x000000000005eb84        0x0 d:/intel_fpga/nios2eds/bin/gnu/h-x86_64-mingw32/bin/../lib/gcc/nios2-elf/10.3.1/../../../../../H-x86_64-mingw32/nios2-elf/lib\libc.a(lib_a-signalr.o)
 .data          0x000000000005eb84        0x0 d:/intel_fpga/nios2eds/bin/gnu/h-x86_64-mingw32/bin/../lib/gcc/nios2-elf/10.3.1\libgcc.a(_muldi3.o)
 .data          0x000000000005eb84        0x0 d:/intel_fpga/nios2eds/bin/gnu/h-x86_64-mingw32/bin/../lib/gcc/nios2-elf/10.3.1\libgcc.a(_fixunsdfsi.o)
 .data          0x000000000005eb84        0x0 d:/intel_fpga/nios2eds/bin/gnu/h-x86_64-mingw32/bin/../lib/gcc/nios2-elf/10.3.1\libgcc.a(_fixdfdi.o)
 .data          0x000000000005eb84        0x0 d:/intel_fpga/nios2eds/bin/gnu/h-x86_64-mingw32/bin/../lib/gcc/nios2-elf/10.3.1\libgcc.a(_fixunsdfdi.o)
 .data          0x000000000005eb84        0x0 d:/intel_fpga/nios2eds/bin/gnu/h-x86_64-mingw32/bin/../lib/gcc/nios2-elf/10.3.1\libgcc.a(_floatdidf.o)
 .data          0x000000000005eb84        0x0 d:/intel_fpga/nios2eds/bin/gnu/h-x86_64-mingw32/bin/../lib/gcc/nios2-elf/10.3.1\libgcc.a(_udivdi3.o)
 .data          0x000000000005eb84        0x0 d:/intel_fpga/nios2eds/bin/gnu/h-x86_64-mingw32/bin/../lib/gcc/nios2-elf/10.3.1\libgcc.a(_umoddi3.o)
 .data          0x000000000005eb84        0x0 d:/intel_fpga/nios2eds/bin/gnu/h-x86_64-mingw32/bin/../lib/gcc/nios2-elf/10.3.1\libgcc.a(lib2-divmod.o)
 .data          0x000000000005eb84        0x0 d:/intel_fpga/nios2eds/bin/gnu/h-x86_64-mingw32/bin/../lib/gcc/nios2-elf/10.3.1\libgcc.a(lesf2.o)
 .data          0x000000000005eb84        0x0 d:/intel_fpga/nios2eds/bin/gnu/h-x86_64-mingw32/bin/../lib/gcc/nios2-elf/10.3.1\libgcc.a(unordsf2.o)
 .data          0x000000000005eb84        0x0 d:/intel_fpga/nios2eds/bin/gnu/h-x86_64-mingw32/bin/../lib/gcc/nios2-elf/10.3.1\libgcc.a(adddf3.o)
 .data          0x000000000005eb84        0x0 d:/intel_fpga/nios2eds/bin/gnu/h-x86_64-mingw32/bin/../lib/gcc/nios2-elf/10.3.1\libgcc.a(divdf3.o)
 .data          0x000000000005eb84        0x0 d:/intel_fpga/nios2eds/bin/gnu/h-x86_64-mingw32/bin/../lib/gcc/nios2-elf/10.3.1\libgcc.a(eqdf2.o)
 .data          0x000000000005eb84        0x0 d:/intel_fpga/nios2eds/bin/gnu/h-x86_64-mingw32/bin/../lib/gcc/nios2-elf/10.3.1\libgcc.a(gedf2.o)
 .data          0x000000000005eb84        0x0 d:/intel_fpga/nios2eds/bin/gnu/h-x86_64-mingw32/bin/../lib/gcc/nios2-elf/10.3.1\libgcc.a(ledf2.o)
 .data          0x000000000005eb84        0x0 d:/intel_fpga/nios2eds/bin/gnu/h-x86_64-mingw32/bin/../lib/gcc/nios2-elf/10.3.1\libgcc.a(muldf3.o)
 .data          0x000000000005eb84        0x0 d:/intel_fpga/nios2eds/bin/gnu/h-x86_64-mingw32/bin/../lib/gcc/nios2-elf/10.3.1\libgcc.a(subdf3.o)
 .data          0x000000000005eb84        0x0 d:/intel_fpga/nios2eds/bin/gnu/h-x86_64-mingw32/bin/../lib/gcc/nios2-elf/10.3.1\libgcc.a(unorddf2.o)
 .data          0x000000000005eb84        0x0 d:/intel_fpga/nios2eds/bin/gnu/h-x86_64-mingw32/bin/../lib/gcc/nios2-elf/10.3.1\libgcc.a(fixdfsi.o)
 .data          0x000000000005eb84        0x0 d:/intel_fpga/nios2eds/bin/gnu/h-x86_64-mingw32/bin/../lib/gcc/nios2-elf/10.3.1\libgcc.a(floatsidf.o)
 .data          0x000000000005eb84        0x0 d:/intel_fpga/nios2eds/bin/gnu/h-x86_64-mingw32/bin/../lib/gcc/nios2-elf/10.3.1\libgcc.a(floatunsidf.o)
 .data          0x000000000005eb84        0x0 d:/intel_fpga/nios2eds/bin/gnu/h-x86_64-mingw32/bin/../lib/gcc/nios2-elf/10.3.1\libgcc.a(truncdfsf2.o)
 .data          0x000000000005eb84        0x0 d:/intel_fpga/nios2eds/bin/gnu/h-x86_64-mingw32/bin/../lib/gcc/nios2-elf/10.3.1\libgcc.a(_clz.o)
 .data          0x000000000005eb84        0x0 d:/intel_fpga/nios2eds/bin/gnu/h-x86_64-mingw32/bin/../lib/gcc/nios2-elf/10.3.1\libgcc.a(_clzsi2.o)
 .data          0x000000000005eb84        0x0 d:/Downloads/RFS/DE10_Nano_WiFi_Web_Server/software/ewaff_server_bsp/\libhal_bsp.a(alt_close.o)
 .data          0x000000000005eb84      0x1a8 d:/Downloads/RFS/DE10_Nano_WiFi_Web_Server/software/ewaff_server_bsp/\libhal_bsp.a(alt_dev.o)
                0x000000000005eb84                alt_dev_null
                0x000000000005ebac                alt_fd_list
 .data          0x000000000005ed2c        0x0 d:/Downloads/RFS/DE10_Nano_WiFi_Web_Server/software/ewaff_server_bsp/\libhal_bsp.a(alt_errno.o)
 .data          0x000000000005ed2c        0x0 d:/Downloads/RFS/DE10_Nano_WiFi_Web_Server/software/ewaff_server_bsp/\libhal_bsp.a(alt_exit.o)
 .data          0x000000000005ed2c        0x0 d:/Downloads/RFS/DE10_Nano_WiFi_Web_Server/software/ewaff_server_bsp/\libhal_bsp.a(alt_fcntl.o)
 .data          0x000000000005ed2c        0x0 d:/Downloads/RFS/DE10_Nano_WiFi_Web_Server/software/ewaff_server_bsp/\libhal_bsp.a(alt_fstat.o)
 .data          0x000000000005ed2c        0x0 d:/Downloads/RFS/DE10_Nano_WiFi_Web_Server/software/ewaff_server_bsp/\libhal_bsp.a(alt_getpid.o)
 .data          0x000000000005ed2c        0x0 d:/Downloads/RFS/DE10_Nano_WiFi_Web_Server/software/ewaff_server_bsp/\libhal_bsp.a(alt_isatty.o)
 .data          0x000000000005ed2c        0x0 d:/Downloads/RFS/DE10_Nano_WiFi_Web_Server/software/ewaff_server_bsp/\libhal_bsp.a(alt_kill.o)
 .data          0x000000000005ed2c        0x0 d:/Downloads/RFS/DE10_Nano_WiFi_Web_Server/software/ewaff_server_bsp/\libhal_bsp.a(alt_load.o)
 .data          0x000000000005ed2c        0x0 d:/Downloads/RFS/DE10_Nano_WiFi_Web_Server/software/ewaff_server_bsp/\libhal_bsp.a(alt_lseek.o)
 .data          0x000000000005ed2c        0x0 d:/Downloads/RFS/DE10_Nano_WiFi_Web_Server/software/ewaff_server_bsp/\libhal_bsp.a(alt_main.o)
 .data          0x000000000005ed2c        0x0 d:/Downloads/RFS/DE10_Nano_WiFi_Web_Server/software/ewaff_server_bsp/\libhal_bsp.a(alt_malloc_lock.o)
 .data          0x000000000005ed2c        0x0 d:/Downloads/RFS/DE10_Nano_WiFi_Web_Server/software/ewaff_server_bsp/\libhal_bsp.a(alt_open.o)
 .data          0x000000000005ed2c        0x0 d:/Downloads/RFS/DE10_Nano_WiFi_Web_Server/software/ewaff_server_bsp/\libhal_bsp.a(alt_read.o)
 .data          0x000000000005ed2c        0x0 d:/Downloads/RFS/DE10_Nano_WiFi_Web_Server/software/ewaff_server_bsp/\libhal_bsp.a(alt_release_fd.o)
 .data          0x000000000005ed2c        0x0 d:/Downloads/RFS/DE10_Nano_WiFi_Web_Server/software/ewaff_server_bsp/\libhal_bsp.a(alt_sbrk.o)
 .data          0x000000000005ed2c        0x0 d:/Downloads/RFS/DE10_Nano_WiFi_Web_Server/software/ewaff_server_bsp/\libhal_bsp.a(alt_usleep.o)
 .data          0x000000000005ed2c        0x0 d:/Downloads/RFS/DE10_Nano_WiFi_Web_Server/software/ewaff_server_bsp/\libhal_bsp.a(alt_write.o)
 .data          0x000000000005ed2c     0x1124 d:/Downloads/RFS/DE10_Nano_WiFi_Web_Server/software/ewaff_server_bsp/\libhal_bsp.a(alt_sys_init.o)
 .data          0x000000000005fe50        0x0 d:/Downloads/RFS/DE10_Nano_WiFi_Web_Server/software/ewaff_server_bsp/\libhal_bsp.a(altera_avalon_jtag_uart_fd.o)
 .data          0x000000000005fe50        0x0 d:/Downloads/RFS/DE10_Nano_WiFi_Web_Server/software/ewaff_server_bsp/\libhal_bsp.a(altera_avalon_jtag_uart_init.o)
 .data          0x000000000005fe50        0x0 d:/Downloads/RFS/DE10_Nano_WiFi_Web_Server/software/ewaff_server_bsp/\libhal_bsp.a(altera_avalon_jtag_uart_ioctl.o)
 .data          0x000000000005fe50        0x0 d:/Downloads/RFS/DE10_Nano_WiFi_Web_Server/software/ewaff_server_bsp/\libhal_bsp.a(altera_avalon_jtag_uart_read.o)
 .data          0x000000000005fe50        0x0 d:/Downloads/RFS/DE10_Nano_WiFi_Web_Server/software/ewaff_server_bsp/\libhal_bsp.a(altera_avalon_jtag_uart_write.o)
 .data          0x000000000005fe50        0x0 d:/Downloads/RFS/DE10_Nano_WiFi_Web_Server/software/ewaff_server_bsp/\libhal_bsp.a(altera_avalon_timer_sc.o)
 .data          0x000000000005fe50        0x0 d:/Downloads/RFS/DE10_Nano_WiFi_Web_Server/software/ewaff_server_bsp/\libhal_bsp.a(altera_avalon_uart_fd.o)
 .data          0x000000000005fe50        0x0 d:/Downloads/RFS/DE10_Nano_WiFi_Web_Server/software/ewaff_server_bsp/\libhal_bsp.a(altera_avalon_uart_init.o)
 .data          0x000000000005fe50        0x0 d:/Downloads/RFS/DE10_Nano_WiFi_Web_Server/software/ewaff_server_bsp/\libhal_bsp.a(altera_avalon_uart_read.o)
 .data          0x000000000005fe50        0x0 d:/Downloads/RFS/DE10_Nano_WiFi_Web_Server/software/ewaff_server_bsp/\libhal_bsp.a(altera_avalon_uart_write.o)
 .data          0x000000000005fe50        0x0 d:/Downloads/RFS/DE10_Nano_WiFi_Web_Server/software/ewaff_server_bsp/\libhal_bsp.a(alt_alarm_start.o)
 .data          0x000000000005fe50        0x0 d:/Downloads/RFS/DE10_Nano_WiFi_Web_Server/software/ewaff_server_bsp/\libhal_bsp.a(alt_busy_sleep.o)
 .data          0x000000000005fe50        0x0 d:/Downloads/RFS/DE10_Nano_WiFi_Web_Server/software/ewaff_server_bsp/\libhal_bsp.a(alt_dcache_flush_all.o)
 .data          0x000000000005fe50        0x0 d:/Downloads/RFS/DE10_Nano_WiFi_Web_Server/software/ewaff_server_bsp/\libhal_bsp.a(alt_dev_llist_insert.o)
 .data          0x000000000005fe50        0x0 d:/Downloads/RFS/DE10_Nano_WiFi_Web_Server/software/ewaff_server_bsp/\libhal_bsp.a(alt_do_ctors.o)
 .data          0x000000000005fe50        0x0 d:/Downloads/RFS/DE10_Nano_WiFi_Web_Server/software/ewaff_server_bsp/\libhal_bsp.a(alt_do_dtors.o)
 .data          0x000000000005fe50        0x0 d:/Downloads/RFS/DE10_Nano_WiFi_Web_Server/software/ewaff_server_bsp/\libhal_bsp.a(alt_find_dev.o)
 .data          0x000000000005fe50        0x0 d:/Downloads/RFS/DE10_Nano_WiFi_Web_Server/software/ewaff_server_bsp/\libhal_bsp.a(alt_find_file.o)
 .data          0x000000000005fe50        0x0 d:/Downloads/RFS/DE10_Nano_WiFi_Web_Server/software/ewaff_server_bsp/\libhal_bsp.a(alt_get_fd.o)
 .data          0x000000000005fe50        0x0 d:/Downloads/RFS/DE10_Nano_WiFi_Web_Server/software/ewaff_server_bsp/\libhal_bsp.a(alt_icache_flush_all.o)
 .data          0x000000000005fe50        0x0 d:/Downloads/RFS/DE10_Nano_WiFi_Web_Server/software/ewaff_server_bsp/\libhal_bsp.a(alt_iic.o)
 .data          0x000000000005fe50        0x0 d:/Downloads/RFS/DE10_Nano_WiFi_Web_Server/software/ewaff_server_bsp/\libhal_bsp.a(alt_iic_isr_register.o)
 .data          0x000000000005fe50        0x0 d:/Downloads/RFS/DE10_Nano_WiFi_Web_Server/software/ewaff_server_bsp/\libhal_bsp.a(alt_io_redirect.o)
 .data          0x000000000005fe50        0x0 d:/Downloads/RFS/DE10_Nano_WiFi_Web_Server/software/ewaff_server_bsp/\libhal_bsp.a(alt_irq_entry.o)
 .data          0x000000000005fe50        0x0 d:/Downloads/RFS/DE10_Nano_WiFi_Web_Server/software/ewaff_server_bsp/\libhal_bsp.a(alt_irq_handler.o)
 .data          0x000000000005fe50        0x0 d:/Downloads/RFS/DE10_Nano_WiFi_Web_Server/software/ewaff_server_bsp/\libhal_bsp.a(alt_irq_vars.o)
 .data          0x000000000005fe50        0x0 d:/Downloads/RFS/DE10_Nano_WiFi_Web_Server/software/ewaff_server_bsp/\libhal_bsp.a(alt_tick.o)
 .data          0x000000000005fe50        0x0 d:/Downloads/RFS/DE10_Nano_WiFi_Web_Server/software/ewaff_server_bsp/\libhal_bsp.a(altera_nios2_gen2_irq.o)
 .data          0x000000000005fe50        0x0 d:/Downloads/RFS/DE10_Nano_WiFi_Web_Server/software/ewaff_server_bsp/\libhal_bsp.a(alt_exception_entry.o)
 .data          0x000000000005fe50        0x0 d:/Downloads/RFS/DE10_Nano_WiFi_Web_Server/software/ewaff_server_bsp/\libhal_bsp.a(alt_icache_flush.o)
 .data          0x000000000005fe50        0x0 d:/Downloads/RFS/DE10_Nano_WiFi_Web_Server/software/ewaff_server_bsp/\libhal_bsp.a(alt_instruction_exception_entry.o)
 .data          0x000000000005fe50        0x0 d:/intel_fpga/nios2eds/bin/gnu/h-x86_64-mingw32/bin/../lib/gcc/nios2-elf/10.3.1/../../../../../H-x86_64-mingw32/nios2-elf/lib\libc.a(lib_a-atexit.o)
 .data          0x000000000005fe50        0x0 d:/intel_fpga/nios2eds/bin/gnu/h-x86_64-mingw32/bin/../lib/gcc/nios2-elf/10.3.1/../../../../../H-x86_64-mingw32/nios2-elf/lib\libc.a(lib_a-exit.o)
 .data          0x000000000005fe50        0x0 d:/intel_fpga/nios2eds/bin/gnu/h-x86_64-mingw32/bin/../lib/gcc/nios2-elf/10.3.1/../../../../../H-x86_64-mingw32/nios2-elf/lib\libc.a(lib_a-__atexit.o)
 .data          0x000000000005fe50        0x0 d:/intel_fpga/nios2eds/bin/gnu/h-x86_64-mingw32/bin/../lib/gcc/nios2-elf/10.3.1/../../../../../H-x86_64-mingw32/nios2-elf/lib\libc.a(lib_a-__call_atexit.o)
                0x0000000000067e50                _gp = ABSOLUTE ((. + 0x8000))
                [!provide]                        PROVIDE (gp = _gp)
 *(.rwdata .rwdata.*)
 *(.sdata .sdata.* .gnu.linkonce.s.*)
 .sdata         0x000000000005fe50       0x34 obj/default/esp8266.o
                0x000000000005fe50                index_html_len
                0x000000000005fe54                fire_html_len
                0x000000000005fe58                __404_html_len
                0x000000000005fe5c                favicon_ico_len
                0x000000000005fe60                html_head
                0x000000000005fe64                favicon_ico_head
                0x000000000005fe68                jpg_head
                0x000000000005fe6c                __302_head
                0x000000000005fe70                __302_html
                0x000000000005fe74                __302_html_len
                0x000000000005fe78                __404_head
                0x000000000005fe7c                http_resp
                0x000000000005fe80                http_resp_len
 .sdata._global_impure_ptr
                0x000000000005fe84        0x4 d:/intel_fpga/nios2eds/bin/gnu/h-x86_64-mingw32/bin/../lib/gcc/nios2-elf/10.3.1/../../../../../H-x86_64-mingw32/nios2-elf/lib\libc.a(lib_a-impure.o)
                0x000000000005fe84                _global_impure_ptr
 .sdata._impure_ptr
                0x000000000005fe88        0x4 d:/intel_fpga/nios2eds/bin/gnu/h-x86_64-mingw32/bin/../lib/gcc/nios2-elf/10.3.1/../../../../../H-x86_64-mingw32/nios2-elf/lib\libc.a(lib_a-impure.o)
                0x000000000005fe88                _impure_ptr
 .sdata.__malloc_sbrk_base
                0x000000000005fe8c        0x4 d:/intel_fpga/nios2eds/bin/gnu/h-x86_64-mingw32/bin/../lib/gcc/nios2-elf/10.3.1/../../../../../H-x86_64-mingw32/nios2-elf/lib\libc.a(lib_a-mallocr.o)
                0x000000000005fe8c                __malloc_sbrk_base
 .sdata.__malloc_trim_threshold
                0x000000000005fe90        0x4 d:/intel_fpga/nios2eds/bin/gnu/h-x86_64-mingw32/bin/../lib/gcc/nios2-elf/10.3.1/../../../../../H-x86_64-mingw32/nios2-elf/lib\libc.a(lib_a-mallocr.o)
                0x000000000005fe90                __malloc_trim_threshold
 .sdata.numempty
                0x000000000005fe94        0x2 d:/intel_fpga/nios2eds/bin/gnu/h-x86_64-mingw32/bin/../lib/gcc/nios2-elf/10.3.1/../../../../../H-x86_64-mingw32/nios2-elf/lib\libc.a(lib_a-lnumeric.o)
 *fill*         0x000000000005fe96        0x2 
 .sdata         0x000000000005fe98       0x14 d:/Downloads/RFS/DE10_Nano_WiFi_Web_Server/software/ewaff_server_bsp/\libhal_bsp.a(alt_dev.o)
                0x000000000005fe98                alt_fs_list
                0x000000000005fea0                alt_dev_list
                0x000000000005fea8                alt_max_fd
 .sdata         0x000000000005feac        0x4 d:/Downloads/RFS/DE10_Nano_WiFi_Web_Server/software/ewaff_server_bsp/\libhal_bsp.a(alt_errno.o)
                0x000000000005feac                alt_errno
 .sdata         0x000000000005feb0        0x4 d:/Downloads/RFS/DE10_Nano_WiFi_Web_Server/software/ewaff_server_bsp/\libhal_bsp.a(alt_sbrk.o)
 .sdata         0x000000000005feb4        0x4 d:/Downloads/RFS/DE10_Nano_WiFi_Web_Server/software/ewaff_server_bsp/\libhal_bsp.a(alt_irq_vars.o)
                0x000000000005feb4                alt_priority_mask
 .sdata         0x000000000005feb8        0x8 d:/Downloads/RFS/DE10_Nano_WiFi_Web_Server/software/ewaff_server_bsp/\libhal_bsp.a(alt_tick.o)
                0x000000000005feb8                alt_alarm_list
 *(.sdata2 .sdata2.* .gnu.linkonce.s2.*)
                0x000000000005fec0                . = ALIGN (0x4)
                0x000000000005fec0                _edata = ABSOLUTE (.)
                [!provide]                        PROVIDE (edata = ABSOLUTE (.))
                0x000000000005fec0                PROVIDE (__ram_rwdata_end = ABSOLUTE (.))
                0x000000000005fec0                PROVIDE (__flash_rwdata_start = LOADADDR (.rwdata))

.bss            0x0000000000062294      0x560
                0x0000000000062294                __bss_start = ABSOLUTE (.)
                [!provide]                        PROVIDE (__sbss_start = ABSOLUTE (.))
                [!provide]                        PROVIDE (___sbss_start = ABSOLUTE (.))
 *(.dynsbss)
 *(.sbss .sbss.* .gnu.linkonce.sb.*)
 .sbss          0x0000000000062294        0x4 obj/default/esp8266.o
                0x0000000000062294                esp8266_file
 .sbss.errno    0x0000000000062298        0x4 d:/intel_fpga/nios2eds/bin/gnu/h-x86_64-mingw32/bin/../lib/gcc/nios2-elf/10.3.1/../../../../../H-x86_64-mingw32/nios2-elf/lib\libc.a(lib_a-int_errno.o)
                0x0000000000062298                errno
 .sbss.__malloc_max_total_mem
                0x000000000006229c        0x4 d:/intel_fpga/nios2eds/bin/gnu/h-x86_64-mingw32/bin/../lib/gcc/nios2-elf/10.3.1/../../../../../H-x86_64-mingw32/nios2-elf/lib\libc.a(lib_a-mallocr.o)
                0x000000000006229c                __malloc_max_total_mem
 .sbss.__malloc_max_sbrked_mem
                0x00000000000622a0        0x4 d:/intel_fpga/nios2eds/bin/gnu/h-x86_64-mingw32/bin/../lib/gcc/nios2-elf/10.3.1/../../../../../H-x86_64-mingw32/nios2-elf/lib\libc.a(lib_a-mallocr.o)
                0x00000000000622a0                __malloc_max_sbrked_mem
 .sbss.__malloc_top_pad
                0x00000000000622a4        0x4 d:/intel_fpga/nios2eds/bin/gnu/h-x86_64-mingw32/bin/../lib/gcc/nios2-elf/10.3.1/../../../../../H-x86_64-mingw32/nios2-elf/lib\libc.a(lib_a-mallocr.o)
                0x00000000000622a4                __malloc_top_pad
 .sbss._PathLocale
                0x00000000000622a8        0x4 d:/intel_fpga/nios2eds/bin/gnu/h-x86_64-mingw32/bin/../lib/gcc/nios2-elf/10.3.1/../../../../../H-x86_64-mingw32/nios2-elf/lib\libc.a(lib_a-locale.o)
                0x00000000000622a8                _PathLocale
 .sbss          0x00000000000622ac        0xc d:/Downloads/RFS/DE10_Nano_WiFi_Web_Server/software/ewaff_server_bsp/\libhal_bsp.a(alt_main.o)
                0x00000000000622ac                alt_argc
                0x00000000000622b0                alt_argv
                0x00000000000622b4                alt_envp
 .sbss          0x00000000000622b8        0x4 d:/Downloads/RFS/DE10_Nano_WiFi_Web_Server/software/ewaff_server_bsp/\libhal_bsp.a(alt_irq_vars.o)
                0x00000000000622b8                alt_irq_active
 .sbss          0x00000000000622bc        0xc d:/Downloads/RFS/DE10_Nano_WiFi_Web_Server/software/ewaff_server_bsp/\libhal_bsp.a(alt_tick.o)
                0x00000000000622bc                _alt_tick_rate
                0x00000000000622c0                _alt_nticks
 .sbss          0x00000000000622c8        0x4 d:/Downloads/RFS/DE10_Nano_WiFi_Web_Server/software/ewaff_server_bsp/\libhal_bsp.a(alt_instruction_exception_entry.o)
                0x00000000000622c8                alt_instruction_exception_handler
 *(.sbss2 .sbss2.* .gnu.linkonce.sb2.*)
 *(.scommon)
                [!provide]                        PROVIDE (__sbss_end = ABSOLUTE (.))
                [!provide]                        PROVIDE (___sbss_end = ABSOLUTE (.))
 *(.dynbss)
 *(.bss .bss.* .gnu.linkonce.b.*)
 .bss           0x00000000000622cc        0x0 d:/Downloads/RFS/DE10_Nano_WiFi_Web_Server/software/ewaff_server_bsp//obj/HAL/src/crt0.o
 .bss           0x00000000000622cc      0x400 obj/default/esp8266.o
                0x00000000000622cc                buffer
 .bss           0x00000000000626cc        0x0 obj/default/main.o
 .bss           0x00000000000626cc        0x0 d:/intel_fpga/nios2eds/bin/gnu/h-x86_64-mingw32/bin/../lib/gcc/nios2-elf/10.3.1\libgcc.a(fixsfsi.o)
 .bss           0x00000000000626cc        0x0 d:/intel_fpga/nios2eds/bin/gnu/h-x86_64-mingw32/bin/../lib/gcc/nios2-elf/10.3.1/../../../../../H-x86_64-mingw32/nios2-elf/lib\libc.a(lib_a-fflush.o)
 .bss           0x00000000000626cc        0x0 d:/intel_fpga/nios2eds/bin/gnu/h-x86_64-mingw32/bin/../lib/gcc/nios2-elf/10.3.1/../../../../../H-x86_64-mingw32/nios2-elf/lib\libc.a(lib_a-fgetc.o)
 .bss           0x00000000000626cc        0x0 d:/intel_fpga/nios2eds/bin/gnu/h-x86_64-mingw32/bin/../lib/gcc/nios2-elf/10.3.1/../../../../../H-x86_64-mingw32/nios2-elf/lib\libc.a(lib_a-fgets.o)
 .bss           0x00000000000626cc        0x0 d:/intel_fpga/nios2eds/bin/gnu/h-x86_64-mingw32/bin/../lib/gcc/nios2-elf/10.3.1/../../../../../H-x86_64-mingw32/nios2-elf/lib\libc.a(lib_a-fileno.o)
 .bss           0x00000000000626cc        0x0 d:/intel_fpga/nios2eds/bin/gnu/h-x86_64-mingw32/bin/../lib/gcc/nios2-elf/10.3.1/../../../../../H-x86_64-mingw32/nios2-elf/lib\libc.a(lib_a-findfp.o)
 .bss           0x00000000000626cc        0x0 d:/intel_fpga/nios2eds/bin/gnu/h-x86_64-mingw32/bin/../lib/gcc/nios2-elf/10.3.1/../../../../../H-x86_64-mingw32/nios2-elf/lib\libc.a(lib_a-fopen.o)
 .bss           0x00000000000626cc        0x0 d:/intel_fpga/nios2eds/bin/gnu/h-x86_64-mingw32/bin/../lib/gcc/nios2-elf/10.3.1/../../../../../H-x86_64-mingw32/nios2-elf/lib\libc.a(lib_a-fprintf.o)
 .bss           0x00000000000626cc        0x0 d:/intel_fpga/nios2eds/bin/gnu/h-x86_64-mingw32/bin/../lib/gcc/nios2-elf/10.3.1/../../../../../H-x86_64-mingw32/nios2-elf/lib\libc.a(lib_a-freer.o)
 .bss           0x00000000000626cc        0x0 d:/intel_fpga/nios2eds/bin/gnu/h-x86_64-mingw32/bin/../lib/gcc/nios2-elf/10.3.1/../../../../../H-x86_64-mingw32/nios2-elf/lib\libc.a(lib_a-fseek.o)
 .bss           0x00000000000626cc        0x0 d:/intel_fpga/nios2eds/bin/gnu/h-x86_64-mingw32/bin/../lib/gcc/nios2-elf/10.3.1/../../../../../H-x86_64-mingw32/nios2-elf/lib\libc.a(lib_a-fseeko.o)
 .bss           0x00000000000626cc        0x0 d:/intel_fpga/nios2eds/bin/gnu/h-x86_64-mingw32/bin/../lib/gcc/nios2-elf/10.3.1/../../../../../H-x86_64-mingw32/nios2-elf/lib\libc.a(lib_a-fstatr.o)
 .bss           0x00000000000626cc        0x0 d:/intel_fpga/nios2eds/bin/gnu/h-x86_64-mingw32/bin/../lib/gcc/nios2-elf/10.3.1/../../../../../H-x86_64-mingw32/nios2-elf/lib\libc.a(lib_a-fwalk.o)
 .bss           0x00000000000626cc        0x0 d:/intel_fpga/nios2eds/bin/gnu/h-x86_64-mingw32/bin/../lib/gcc/nios2-elf/10.3.1/../../../../../H-x86_64-mingw32/nios2-elf/lib\libc.a(lib_a-impure.o)
 .bss           0x00000000000626cc        0x0 d:/intel_fpga/nios2eds/bin/gnu/h-x86_64-mingw32/bin/../lib/gcc/nios2-elf/10.3.1/../../../../../H-x86_64-mingw32/nios2-elf/lib\libc.a(lib_a-int_errno.o)
 .bss           0x00000000000626cc        0x0 d:/intel_fpga/nios2eds/bin/gnu/h-x86_64-mingw32/bin/../lib/gcc/nios2-elf/10.3.1/../../../../../H-x86_64-mingw32/nios2-elf/lib\libc.a(lib_a-makebuf.o)
 .bss           0x00000000000626cc        0x0 d:/intel_fpga/nios2eds/bin/gnu/h-x86_64-mingw32/bin/../lib/gcc/nios2-elf/10.3.1/../../../../../H-x86_64-mingw32/nios2-elf/lib\libc.a(lib_a-malloc.o)
 .bss           0x00000000000626cc        0x0 d:/intel_fpga/nios2eds/bin/gnu/h-x86_64-mingw32/bin/../lib/gcc/nios2-elf/10.3.1/../../../../../H-x86_64-mingw32/nios2-elf/lib\libc.a(lib_a-mallocr.o)
 .bss.__malloc_current_mallinfo
                0x00000000000626cc       0x28 d:/intel_fpga/nios2eds/bin/gnu/h-x86_64-mingw32/bin/../lib/gcc/nios2-elf/10.3.1/../../../../../H-x86_64-mingw32/nios2-elf/lib\libc.a(lib_a-mallocr.o)
                0x00000000000626cc                __malloc_current_mallinfo
 .bss           0x00000000000626f4        0x0 d:/intel_fpga/nios2eds/bin/gnu/h-x86_64-mingw32/bin/../lib/gcc/nios2-elf/10.3.1/../../../../../H-x86_64-mingw32/nios2-elf/lib\libc.a(lib_a-memchr.o)
 .bss           0x00000000000626f4        0x0 d:/intel_fpga/nios2eds/bin/gnu/h-x86_64-mingw32/bin/../lib/gcc/nios2-elf/10.3.1/../../../../../H-x86_64-mingw32/nios2-elf/lib\libc.a(lib_a-memcpy.o)
 .bss           0x00000000000626f4        0x0 d:/intel_fpga/nios2eds/bin/gnu/h-x86_64-mingw32/bin/../lib/gcc/nios2-elf/10.3.1/../../../../../H-x86_64-mingw32/nios2-elf/lib\libc.a(lib_a-memset.o)
 .bss           0x00000000000626f4        0x0 d:/intel_fpga/nios2eds/bin/gnu/h-x86_64-mingw32/bin/../lib/gcc/nios2-elf/10.3.1/../../../../../H-x86_64-mingw32/nios2-elf/lib\libc.a(lib_a-openr.o)
 .bss           0x00000000000626f4        0x0 d:/intel_fpga/nios2eds/bin/gnu/h-x86_64-mingw32/bin/../lib/gcc/nios2-elf/10.3.1/../../../../../H-x86_64-mingw32/nios2-elf/lib\libc.a(lib_a-printf.o)
 .bss           0x00000000000626f4        0x0 d:/intel_fpga/nios2eds/bin/gnu/h-x86_64-mingw32/bin/../lib/gcc/nios2-elf/10.3.1/../../../../../H-x86_64-mingw32/nios2-elf/lib\libc.a(lib_a-puts.o)
 .bss           0x00000000000626f4        0x0 d:/intel_fpga/nios2eds/bin/gnu/h-x86_64-mingw32/bin/../lib/gcc/nios2-elf/10.3.1/../../../../../H-x86_64-mingw32/nios2-elf/lib\libc.a(lib_a-refill.o)
 .bss           0x00000000000626f4        0x0 d:/intel_fpga/nios2eds/bin/gnu/h-x86_64-mingw32/bin/../lib/gcc/nios2-elf/10.3.1/../../../../../H-x86_64-mingw32/nios2-elf/lib\libc.a(lib_a-rget.o)
 .bss           0x00000000000626f4        0x0 d:/intel_fpga/nios2eds/bin/gnu/h-x86_64-mingw32/bin/../lib/gcc/nios2-elf/10.3.1/../../../../../H-x86_64-mingw32/nios2-elf/lib\libc.a(lib_a-sbrkr.o)
 .bss           0x00000000000626f4        0x0 d:/intel_fpga/nios2eds/bin/gnu/h-x86_64-mingw32/bin/../lib/gcc/nios2-elf/10.3.1/../../../../../H-x86_64-mingw32/nios2-elf/lib\libc.a(lib_a-sprintf.o)
 .bss           0x00000000000626f4        0x0 d:/intel_fpga/nios2eds/bin/gnu/h-x86_64-mingw32/bin/../lib/gcc/nios2-elf/10.3.1/../../../../../H-x86_64-mingw32/nios2-elf/lib\libc.a(lib_a-sscanf.o)
 .bss           0x00000000000626f4        0x0 d:/intel_fpga/nios2eds/bin/gnu/h-x86_64-mingw32/bin/../lib/gcc/nios2-elf/10.3.1/../../../../../H-x86_64-mingw32/nios2-elf/lib\libc.a(lib_a-stdio.o)
 .bss           0x00000000000626f4        0x0 d:/intel_fpga/nios2eds/bin/gnu/h-x86_64-mingw32/bin/../lib/gcc/nios2-elf/10.3.1/../../../../../H-x86_64-mingw32/nios2-elf/lib\libc.a(lib_a-strcat.o)
 .bss           0x00000000000626f4        0x0 d:/intel_fpga/nios2eds/bin/gnu/h-x86_64-mingw32/bin/../lib/gcc/nios2-elf/10.3.1/../../../../../H-x86_64-mingw32/nios2-elf/lib\libc.a(lib_a-strchr.o)
 .bss           0x00000000000626f4        0x0 d:/intel_fpga/nios2eds/bin/gnu/h-x86_64-mingw32/bin/../lib/gcc/nios2-elf/10.3.1/../../../../../H-x86_64-mingw32/nios2-elf/lib\libc.a(lib_a-strcmp.o)
 .bss           0x00000000000626f4        0x0 d:/intel_fpga/nios2eds/bin/gnu/h-x86_64-mingw32/bin/../lib/gcc/nios2-elf/10.3.1/../../../../../H-x86_64-mingw32/nios2-elf/lib\libc.a(lib_a-strcpy.o)
 .bss           0x00000000000626f4        0x0 d:/intel_fpga/nios2eds/bin/gnu/h-x86_64-mingw32/bin/../lib/gcc/nios2-elf/10.3.1/../../../../../H-x86_64-mingw32/nios2-elf/lib\libc.a(lib_a-strlen.o)
 .bss           0x00000000000626f4        0x0 d:/intel_fpga/nios2eds/bin/gnu/h-x86_64-mingw32/bin/../lib/gcc/nios2-elf/10.3.1/../../../../../H-x86_64-mingw32/nios2-elf/lib\libc.a(lib_a-strstr.o)
 .bss           0x00000000000626f4        0x0 d:/intel_fpga/nios2eds/bin/gnu/h-x86_64-mingw32/bin/../lib/gcc/nios2-elf/10.3.1/../../../../../H-x86_64-mingw32/nios2-elf/lib\libc.a(lib_a-svfprintf.o)
 .bss           0x00000000000626f4        0x0 d:/intel_fpga/nios2eds/bin/gnu/h-x86_64-mingw32/bin/../lib/gcc/nios2-elf/10.3.1/../../../../../H-x86_64-mingw32/nios2-elf/lib\libc.a(lib_a-svfscanf.o)
 .bss           0x00000000000626f4        0x0 d:/intel_fpga/nios2eds/bin/gnu/h-x86_64-mingw32/bin/../lib/gcc/nios2-elf/10.3.1/../../../../../H-x86_64-mingw32/nios2-elf/lib\libc.a(lib_a-vfprintf.o)
 .bss           0x00000000000626f4        0x0 d:/intel_fpga/nios2eds/bin/gnu/h-x86_64-mingw32/bin/../lib/gcc/nios2-elf/10.3.1/../../../../../H-x86_64-mingw32/nios2-elf/lib\libc.a(lib_a-writer.o)
 .bss           0x00000000000626f4        0x0 d:/intel_fpga/nios2eds/bin/gnu/h-x86_64-mingw32/bin/../lib/gcc/nios2-elf/10.3.1/../../../../../H-x86_64-mingw32/nios2-elf/lib\libc.a(lib_a-wsetup.o)
 .bss           0x00000000000626f4        0x0 d:/intel_fpga/nios2eds/bin/gnu/h-x86_64-mingw32/bin/../lib/gcc/nios2-elf/10.3.1/../../../../../H-x86_64-mingw32/nios2-elf/lib\libc.a(closer.o)
 .bss           0x00000000000626f4        0x0 d:/intel_fpga/nios2eds/bin/gnu/h-x86_64-mingw32/bin/../lib/gcc/nios2-elf/10.3.1/../../../../../H-x86_64-mingw32/nios2-elf/lib\libc.a(lib_a-ctype_.o)
 .bss           0x00000000000626f4        0x0 d:/intel_fpga/nios2eds/bin/gnu/h-x86_64-mingw32/bin/../lib/gcc/nios2-elf/10.3.1/../../../../../H-x86_64-mingw32/nios2-elf/lib\libc.a(lib_a-dtoa.o)
 .bss           0x00000000000626f4        0x0 d:/intel_fpga/nios2eds/bin/gnu/h-x86_64-mingw32/bin/../lib/gcc/nios2-elf/10.3.1/../../../../../H-x86_64-mingw32/nios2-elf/lib\libc.a(lib_a-fclose.o)
 .bss           0x00000000000626f4        0x0 d:/intel_fpga/nios2eds/bin/gnu/h-x86_64-mingw32/bin/../lib/gcc/nios2-elf/10.3.1/../../../../../H-x86_64-mingw32/nios2-elf/lib\libc.a(lib_a-flags.o)
 .bss           0x00000000000626f4        0x0 d:/intel_fpga/nios2eds/bin/gnu/h-x86_64-mingw32/bin/../lib/gcc/nios2-elf/10.3.1/../../../../../H-x86_64-mingw32/nios2-elf/lib\libc.a(lib_a-fvwrite.o)
 .bss           0x00000000000626f4        0x0 d:/intel_fpga/nios2eds/bin/gnu/h-x86_64-mingw32/bin/../lib/gcc/nios2-elf/10.3.1/../../../../../H-x86_64-mingw32/nios2-elf/lib\libc.a(lib_a-isattyr.o)
 .bss           0x00000000000626f4        0x0 d:/intel_fpga/nios2eds/bin/gnu/h-x86_64-mingw32/bin/../lib/gcc/nios2-elf/10.3.1/../../../../../H-x86_64-mingw32/nios2-elf/lib\libc.a(lib_a-iswspace.o)
 .bss           0x00000000000626f4        0x0 d:/intel_fpga/nios2eds/bin/gnu/h-x86_64-mingw32/bin/../lib/gcc/nios2-elf/10.3.1/../../../../../H-x86_64-mingw32/nios2-elf/lib\libc.a(lib_a-iswspace_l.o)
 .bss           0x00000000000626f4        0x0 d:/intel_fpga/nios2eds/bin/gnu/h-x86_64-mingw32/bin/../lib/gcc/nios2-elf/10.3.1/../../../../../H-x86_64-mingw32/nios2-elf/lib\libc.a(lib_a-locale.o)
 .bss           0x00000000000626f4        0x0 d:/intel_fpga/nios2eds/bin/gnu/h-x86_64-mingw32/bin/../lib/gcc/nios2-elf/10.3.1/../../../../../H-x86_64-mingw32/nios2-elf/lib\libc.a(lib_a-localeconv.o)
 .bss           0x00000000000626f4        0x0 d:/intel_fpga/nios2eds/bin/gnu/h-x86_64-mingw32/bin/../lib/gcc/nios2-elf/10.3.1/../../../../../H-x86_64-mingw32/nios2-elf/lib\libc.a(lib_a-lseekr.o)
 .bss           0x00000000000626f4        0x0 d:/intel_fpga/nios2eds/bin/gnu/h-x86_64-mingw32/bin/../lib/gcc/nios2-elf/10.3.1/../../../../../H-x86_64-mingw32/nios2-elf/lib\libc.a(lib_a-mbrtowc.o)
 .bss           0x00000000000626f4        0x0 d:/intel_fpga/nios2eds/bin/gnu/h-x86_64-mingw32/bin/../lib/gcc/nios2-elf/10.3.1/../../../../../H-x86_64-mingw32/nios2-elf/lib\libc.a(lib_a-mbtowc_r.o)
 .bss           0x00000000000626f4        0x0 d:/intel_fpga/nios2eds/bin/gnu/h-x86_64-mingw32/bin/../lib/gcc/nios2-elf/10.3.1/../../../../../H-x86_64-mingw32/nios2-elf/lib\libc.a(lib_a-memcmp.o)
 .bss           0x00000000000626f4        0x0 d:/intel_fpga/nios2eds/bin/gnu/h-x86_64-mingw32/bin/../lib/gcc/nios2-elf/10.3.1/../../../../../H-x86_64-mingw32/nios2-elf/lib\libc.a(lib_a-memmove.o)
 .bss           0x00000000000626f4        0x0 d:/intel_fpga/nios2eds/bin/gnu/h-x86_64-mingw32/bin/../lib/gcc/nios2-elf/10.3.1/../../../../../H-x86_64-mingw32/nios2-elf/lib\libc.a(lib_a-mprec.o)
 .bss           0x00000000000626f4        0x0 d:/intel_fpga/nios2eds/bin/gnu/h-x86_64-mingw32/bin/../lib/gcc/nios2-elf/10.3.1/../../../../../H-x86_64-mingw32/nios2-elf/lib\libc.a(lib_a-readr.o)
 .bss           0x00000000000626f4        0x0 d:/intel_fpga/nios2eds/bin/gnu/h-x86_64-mingw32/bin/../lib/gcc/nios2-elf/10.3.1/../../../../../H-x86_64-mingw32/nios2-elf/lib\libc.a(lib_a-reallocr.o)
 .bss           0x00000000000626f4        0x0 d:/intel_fpga/nios2eds/bin/gnu/h-x86_64-mingw32/bin/../lib/gcc/nios2-elf/10.3.1/../../../../../H-x86_64-mingw32/nios2-elf/lib\libc.a(lib_a-sccl.o)
 .bss           0x00000000000626f4        0x0 d:/intel_fpga/nios2eds/bin/gnu/h-x86_64-mingw32/bin/../lib/gcc/nios2-elf/10.3.1/../../../../../H-x86_64-mingw32/nios2-elf/lib\libc.a(lib_a-strnlen.o)
 .bss           0x00000000000626f4        0x0 d:/intel_fpga/nios2eds/bin/gnu/h-x86_64-mingw32/bin/../lib/gcc/nios2-elf/10.3.1/../../../../../H-x86_64-mingw32/nios2-elf/lib\libc.a(lib_a-strtod.o)
 .bss           0x00000000000626f4        0x0 d:/intel_fpga/nios2eds/bin/gnu/h-x86_64-mingw32/bin/../lib/gcc/nios2-elf/10.3.1/../../../../../H-x86_64-mingw32/nios2-elf/lib\libc.a(lib_a-strtol.o)
 .bss           0x00000000000626f4        0x0 d:/intel_fpga/nios2eds/bin/gnu/h-x86_64-mingw32/bin/../lib/gcc/nios2-elf/10.3.1/../../../../../H-x86_64-mingw32/nios2-elf/lib\libc.a(lib_a-strtoll.o)
 .bss           0x00000000000626f4        0x0 d:/intel_fpga/nios2eds/bin/gnu/h-x86_64-mingw32/bin/../lib/gcc/nios2-elf/10.3.1/../../../../../H-x86_64-mingw32/nios2-elf/lib\libc.a(lib_a-strtoul.o)
 .bss           0x00000000000626f4        0x0 d:/intel_fpga/nios2eds/bin/gnu/h-x86_64-mingw32/bin/../lib/gcc/nios2-elf/10.3.1/../../../../../H-x86_64-mingw32/nios2-elf/lib\libc.a(lib_a-strtoull.o)
 .bss           0x00000000000626f4        0x0 d:/intel_fpga/nios2eds/bin/gnu/h-x86_64-mingw32/bin/../lib/gcc/nios2-elf/10.3.1/../../../../../H-x86_64-mingw32/nios2-elf/lib\libc.a(lib_a-svfiprintf.o)
 .bss           0x00000000000626f4        0x0 d:/intel_fpga/nios2eds/bin/gnu/h-x86_64-mingw32/bin/../lib/gcc/nios2-elf/10.3.1/../../../../../H-x86_64-mingw32/nios2-elf/lib\libc.a(lib_a-svfiscanf.o)
 .bss           0x00000000000626f4        0x0 d:/intel_fpga/nios2eds/bin/gnu/h-x86_64-mingw32/bin/../lib/gcc/nios2-elf/10.3.1/../../../../../H-x86_64-mingw32/nios2-elf/lib\libc.a(lib_a-ungetc.o)
 .bss           0x00000000000626f4        0x0 d:/intel_fpga/nios2eds/bin/gnu/h-x86_64-mingw32/bin/../lib/gcc/nios2-elf/10.3.1/../../../../../H-x86_64-mingw32/nios2-elf/lib\libc.a(lib_a-vfiprintf.o)
 .bss           0x00000000000626f4        0x0 d:/intel_fpga/nios2eds/bin/gnu/h-x86_64-mingw32/bin/../lib/gcc/nios2-elf/10.3.1/../../../../../H-x86_64-mingw32/nios2-elf/lib\libc.a(lib_a-wctomb_r.o)
 .bss           0x00000000000626f4        0x0 d:/intel_fpga/nios2eds/bin/gnu/h-x86_64-mingw32/bin/../lib/gcc/nios2-elf/10.3.1/../../../../../H-x86_64-mingw32/nios2-elf/lib\libc.a(lib_a-assert.o)
 .bss           0x00000000000626f4        0x0 d:/intel_fpga/nios2eds/bin/gnu/h-x86_64-mingw32/bin/../lib/gcc/nios2-elf/10.3.1/../../../../../H-x86_64-mingw32/nios2-elf/lib\libc.a(lib_a-callocr.o)
 .bss           0x00000000000626f4        0x0 d:/intel_fpga/nios2eds/bin/gnu/h-x86_64-mingw32/bin/../lib/gcc/nios2-elf/10.3.1/../../../../../H-x86_64-mingw32/nios2-elf/lib\libc.a(lib_a-errno.o)
 .bss           0x00000000000626f4        0x0 d:/intel_fpga/nios2eds/bin/gnu/h-x86_64-mingw32/bin/../lib/gcc/nios2-elf/10.3.1/../../../../../H-x86_64-mingw32/nios2-elf/lib\libc.a(lib_a-fiprintf.o)
 .bss           0x00000000000626f4        0x0 d:/intel_fpga/nios2eds/bin/gnu/h-x86_64-mingw32/bin/../lib/gcc/nios2-elf/10.3.1/../../../../../H-x86_64-mingw32/nios2-elf/lib\libc.a(lib_a-fputwc.o)
 .bss           0x00000000000626f4        0x0 d:/intel_fpga/nios2eds/bin/gnu/h-x86_64-mingw32/bin/../lib/gcc/nios2-elf/10.3.1/../../../../../H-x86_64-mingw32/nios2-elf/lib\libc.a(lib_a-gdtoa-gethex.o)
 .bss           0x00000000000626f4        0x0 d:/intel_fpga/nios2eds/bin/gnu/h-x86_64-mingw32/bin/../lib/gcc/nios2-elf/10.3.1/../../../../../H-x86_64-mingw32/nios2-elf/lib\libc.a(lib_a-gdtoa-hexnan.o)
 .bss           0x00000000000626f4        0x0 d:/intel_fpga/nios2eds/bin/gnu/h-x86_64-mingw32/bin/../lib/gcc/nios2-elf/10.3.1/../../../../../H-x86_64-mingw32/nios2-elf/lib\libc.a(lib_a-lnumeric.o)
 .bss           0x00000000000626f4        0x0 d:/intel_fpga/nios2eds/bin/gnu/h-x86_64-mingw32/bin/../lib/gcc/nios2-elf/10.3.1/../../../../../H-x86_64-mingw32/nios2-elf/lib\libc.a(lib_a-strncmp.o)
 .bss           0x00000000000626f4        0x0 d:/intel_fpga/nios2eds/bin/gnu/h-x86_64-mingw32/bin/../lib/gcc/nios2-elf/10.3.1/../../../../../H-x86_64-mingw32/nios2-elf/lib\libc.a(lib_a-vfiprintfr_1.o)
 .bss           0x00000000000626f4        0x0 d:/intel_fpga/nios2eds/bin/gnu/h-x86_64-mingw32/bin/../lib/gcc/nios2-elf/10.3.1/../../../../../H-x86_64-mingw32/nios2-elf/lib\libc.a(lib_a-wbuf.o)
 .bss           0x00000000000626f4        0x0 d:/intel_fpga/nios2eds/bin/gnu/h-x86_64-mingw32/bin/../lib/gcc/nios2-elf/10.3.1/../../../../../H-x86_64-mingw32/nios2-elf/lib\libc.a(lib_a-wcrtomb.o)
 .bss           0x00000000000626f4        0x0 d:/intel_fpga/nios2eds/bin/gnu/h-x86_64-mingw32/bin/../lib/gcc/nios2-elf/10.3.1/../../../../../H-x86_64-mingw32/nios2-elf/lib\libc.a(lib_a-abort.o)
 .bss           0x00000000000626f4        0x0 d:/intel_fpga/nios2eds/bin/gnu/h-x86_64-mingw32/bin/../lib/gcc/nios2-elf/10.3.1/../../../../../H-x86_64-mingw32/nios2-elf/lib\libc.a(lib_a-signal.o)
 .bss           0x00000000000626f4        0x0 d:/intel_fpga/nios2eds/bin/gnu/h-x86_64-mingw32/bin/../lib/gcc/nios2-elf/10.3.1/../../../../../H-x86_64-mingw32/nios2-elf/lib\libc.a(lib_a-signalr.o)
 .bss           0x00000000000626f4        0x0 d:/intel_fpga/nios2eds/bin/gnu/h-x86_64-mingw32/bin/../lib/gcc/nios2-elf/10.3.1\libgcc.a(_muldi3.o)
 .bss           0x00000000000626f4        0x0 d:/intel_fpga/nios2eds/bin/gnu/h-x86_64-mingw32/bin/../lib/gcc/nios2-elf/10.3.1\libgcc.a(_fixunsdfsi.o)
 .bss           0x00000000000626f4        0x0 d:/intel_fpga/nios2eds/bin/gnu/h-x86_64-mingw32/bin/../lib/gcc/nios2-elf/10.3.1\libgcc.a(_fixdfdi.o)
 .bss           0x00000000000626f4        0x0 d:/intel_fpga/nios2eds/bin/gnu/h-x86_64-mingw32/bin/../lib/gcc/nios2-elf/10.3.1\libgcc.a(_fixunsdfdi.o)
 .bss           0x00000000000626f4        0x0 d:/intel_fpga/nios2eds/bin/gnu/h-x86_64-mingw32/bin/../lib/gcc/nios2-elf/10.3.1\libgcc.a(_floatdidf.o)
 .bss           0x00000000000626f4        0x0 d:/intel_fpga/nios2eds/bin/gnu/h-x86_64-mingw32/bin/../lib/gcc/nios2-elf/10.3.1\libgcc.a(_udivdi3.o)
 .bss           0x00000000000626f4        0x0 d:/intel_fpga/nios2eds/bin/gnu/h-x86_64-mingw32/bin/../lib/gcc/nios2-elf/10.3.1\libgcc.a(_umoddi3.o)
 .bss           0x00000000000626f4        0x0 d:/intel_fpga/nios2eds/bin/gnu/h-x86_64-mingw32/bin/../lib/gcc/nios2-elf/10.3.1\libgcc.a(lib2-divmod.o)
 .bss           0x00000000000626f4        0x0 d:/intel_fpga/nios2eds/bin/gnu/h-x86_64-mingw32/bin/../lib/gcc/nios2-elf/10.3.1\libgcc.a(lesf2.o)
 .bss           0x00000000000626f4        0x0 d:/intel_fpga/nios2eds/bin/gnu/h-x86_64-mingw32/bin/../lib/gcc/nios2-elf/10.3.1\libgcc.a(unordsf2.o)
 .bss           0x00000000000626f4        0x0 d:/intel_fpga/nios2eds/bin/gnu/h-x86_64-mingw32/bin/../lib/gcc/nios2-elf/10.3.1\libgcc.a(adddf3.o)
 .bss           0x00000000000626f4        0x0 d:/intel_fpga/nios2eds/bin/gnu/h-x86_64-mingw32/bin/../lib/gcc/nios2-elf/10.3.1\libgcc.a(divdf3.o)
 .bss           0x00000000000626f4        0x0 d:/intel_fpga/nios2eds/bin/gnu/h-x86_64-mingw32/bin/../lib/gcc/nios2-elf/10.3.1\libgcc.a(eqdf2.o)
 .bss           0x00000000000626f4        0x0 d:/intel_fpga/nios2eds/bin/gnu/h-x86_64-mingw32/bin/../lib/gcc/nios2-elf/10.3.1\libgcc.a(gedf2.o)
 .bss           0x00000000000626f4        0x0 d:/intel_fpga/nios2eds/bin/gnu/h-x86_64-mingw32/bin/../lib/gcc/nios2-elf/10.3.1\libgcc.a(ledf2.o)
 .bss           0x00000000000626f4        0x0 d:/intel_fpga/nios2eds/bin/gnu/h-x86_64-mingw32/bin/../lib/gcc/nios2-elf/10.3.1\libgcc.a(muldf3.o)
 .bss           0x00000000000626f4        0x0 d:/intel_fpga/nios2eds/bin/gnu/h-x86_64-mingw32/bin/../lib/gcc/nios2-elf/10.3.1\libgcc.a(subdf3.o)
 .bss           0x00000000000626f4        0x0 d:/intel_fpga/nios2eds/bin/gnu/h-x86_64-mingw32/bin/../lib/gcc/nios2-elf/10.3.1\libgcc.a(unorddf2.o)
 .bss           0x00000000000626f4        0x0 d:/intel_fpga/nios2eds/bin/gnu/h-x86_64-mingw32/bin/../lib/gcc/nios2-elf/10.3.1\libgcc.a(fixdfsi.o)
 .bss           0x00000000000626f4        0x0 d:/intel_fpga/nios2eds/bin/gnu/h-x86_64-mingw32/bin/../lib/gcc/nios2-elf/10.3.1\libgcc.a(floatsidf.o)
 .bss           0x00000000000626f4        0x0 d:/intel_fpga/nios2eds/bin/gnu/h-x86_64-mingw32/bin/../lib/gcc/nios2-elf/10.3.1\libgcc.a(floatunsidf.o)
 .bss           0x00000000000626f4        0x0 d:/intel_fpga/nios2eds/bin/gnu/h-x86_64-mingw32/bin/../lib/gcc/nios2-elf/10.3.1\libgcc.a(truncdfsf2.o)
 .bss           0x00000000000626f4        0x0 d:/intel_fpga/nios2eds/bin/gnu/h-x86_64-mingw32/bin/../lib/gcc/nios2-elf/10.3.1\libgcc.a(_clz.o)
 .bss           0x00000000000626f4        0x0 d:/intel_fpga/nios2eds/bin/gnu/h-x86_64-mingw32/bin/../lib/gcc/nios2-elf/10.3.1\libgcc.a(_clzsi2.o)
 .bss           0x00000000000626f4        0x0 d:/Downloads/RFS/DE10_Nano_WiFi_Web_Server/software/ewaff_server_bsp/\libhal_bsp.a(alt_close.o)
 .bss           0x00000000000626f4        0x0 d:/Downloads/RFS/DE10_Nano_WiFi_Web_Server/software/ewaff_server_bsp/\libhal_bsp.a(alt_dev.o)
 .bss           0x00000000000626f4        0x0 d:/Downloads/RFS/DE10_Nano_WiFi_Web_Server/software/ewaff_server_bsp/\libhal_bsp.a(alt_errno.o)
 .bss           0x00000000000626f4        0x0 d:/Downloads/RFS/DE10_Nano_WiFi_Web_Server/software/ewaff_server_bsp/\libhal_bsp.a(alt_exit.o)
 .bss           0x00000000000626f4        0x0 d:/Downloads/RFS/DE10_Nano_WiFi_Web_Server/software/ewaff_server_bsp/\libhal_bsp.a(alt_fcntl.o)
 .bss           0x00000000000626f4        0x0 d:/Downloads/RFS/DE10_Nano_WiFi_Web_Server/software/ewaff_server_bsp/\libhal_bsp.a(alt_fstat.o)
 .bss           0x00000000000626f4        0x0 d:/Downloads/RFS/DE10_Nano_WiFi_Web_Server/software/ewaff_server_bsp/\libhal_bsp.a(alt_getpid.o)
 .bss           0x00000000000626f4        0x0 d:/Downloads/RFS/DE10_Nano_WiFi_Web_Server/software/ewaff_server_bsp/\libhal_bsp.a(alt_isatty.o)
 .bss           0x00000000000626f4        0x0 d:/Downloads/RFS/DE10_Nano_WiFi_Web_Server/software/ewaff_server_bsp/\libhal_bsp.a(alt_kill.o)
 .bss           0x00000000000626f4        0x0 d:/Downloads/RFS/DE10_Nano_WiFi_Web_Server/software/ewaff_server_bsp/\libhal_bsp.a(alt_load.o)
 .bss           0x00000000000626f4        0x0 d:/Downloads/RFS/DE10_Nano_WiFi_Web_Server/software/ewaff_server_bsp/\libhal_bsp.a(alt_lseek.o)
 .bss           0x00000000000626f4        0x0 d:/Downloads/RFS/DE10_Nano_WiFi_Web_Server/software/ewaff_server_bsp/\libhal_bsp.a(alt_main.o)
 .bss           0x00000000000626f4        0x0 d:/Downloads/RFS/DE10_Nano_WiFi_Web_Server/software/ewaff_server_bsp/\libhal_bsp.a(alt_malloc_lock.o)
 .bss           0x00000000000626f4        0x0 d:/Downloads/RFS/DE10_Nano_WiFi_Web_Server/software/ewaff_server_bsp/\libhal_bsp.a(alt_open.o)
 .bss           0x00000000000626f4        0x0 d:/Downloads/RFS/DE10_Nano_WiFi_Web_Server/software/ewaff_server_bsp/\libhal_bsp.a(alt_read.o)
 .bss           0x00000000000626f4        0x0 d:/Downloads/RFS/DE10_Nano_WiFi_Web_Server/software/ewaff_server_bsp/\libhal_bsp.a(alt_release_fd.o)
 .bss           0x00000000000626f4        0x0 d:/Downloads/RFS/DE10_Nano_WiFi_Web_Server/software/ewaff_server_bsp/\libhal_bsp.a(alt_sbrk.o)
 .bss           0x00000000000626f4        0x0 d:/Downloads/RFS/DE10_Nano_WiFi_Web_Server/software/ewaff_server_bsp/\libhal_bsp.a(alt_usleep.o)
 .bss           0x00000000000626f4        0x0 d:/Downloads/RFS/DE10_Nano_WiFi_Web_Server/software/ewaff_server_bsp/\libhal_bsp.a(alt_write.o)
 .bss           0x00000000000626f4        0x0 d:/Downloads/RFS/DE10_Nano_WiFi_Web_Server/software/ewaff_server_bsp/\libhal_bsp.a(alt_sys_init.o)
 .bss           0x00000000000626f4        0x0 d:/Downloads/RFS/DE10_Nano_WiFi_Web_Server/software/ewaff_server_bsp/\libhal_bsp.a(altera_avalon_jtag_uart_fd.o)
 .bss           0x00000000000626f4        0x0 d:/Downloads/RFS/DE10_Nano_WiFi_Web_Server/software/ewaff_server_bsp/\libhal_bsp.a(altera_avalon_jtag_uart_init.o)
 .bss           0x00000000000626f4        0x0 d:/Downloads/RFS/DE10_Nano_WiFi_Web_Server/software/ewaff_server_bsp/\libhal_bsp.a(altera_avalon_jtag_uart_ioctl.o)
 .bss           0x00000000000626f4        0x0 d:/Downloads/RFS/DE10_Nano_WiFi_Web_Server/software/ewaff_server_bsp/\libhal_bsp.a(altera_avalon_jtag_uart_read.o)
 .bss           0x00000000000626f4        0x0 d:/Downloads/RFS/DE10_Nano_WiFi_Web_Server/software/ewaff_server_bsp/\libhal_bsp.a(altera_avalon_jtag_uart_write.o)
 .bss           0x00000000000626f4        0x0 d:/Downloads/RFS/DE10_Nano_WiFi_Web_Server/software/ewaff_server_bsp/\libhal_bsp.a(altera_avalon_timer_sc.o)
 .bss           0x00000000000626f4        0x0 d:/Downloads/RFS/DE10_Nano_WiFi_Web_Server/software/ewaff_server_bsp/\libhal_bsp.a(altera_avalon_uart_fd.o)
 .bss           0x00000000000626f4        0x0 d:/Downloads/RFS/DE10_Nano_WiFi_Web_Server/software/ewaff_server_bsp/\libhal_bsp.a(altera_avalon_uart_init.o)
 .bss           0x00000000000626f4        0x0 d:/Downloads/RFS/DE10_Nano_WiFi_Web_Server/software/ewaff_server_bsp/\libhal_bsp.a(altera_avalon_uart_read.o)
 .bss           0x00000000000626f4        0x0 d:/Downloads/RFS/DE10_Nano_WiFi_Web_Server/software/ewaff_server_bsp/\libhal_bsp.a(altera_avalon_uart_write.o)
 .bss           0x00000000000626f4        0x0 d:/Downloads/RFS/DE10_Nano_WiFi_Web_Server/software/ewaff_server_bsp/\libhal_bsp.a(alt_alarm_start.o)
 .bss           0x00000000000626f4        0x0 d:/Downloads/RFS/DE10_Nano_WiFi_Web_Server/software/ewaff_server_bsp/\libhal_bsp.a(alt_busy_sleep.o)
 .bss           0x00000000000626f4        0x0 d:/Downloads/RFS/DE10_Nano_WiFi_Web_Server/software/ewaff_server_bsp/\libhal_bsp.a(alt_dcache_flush_all.o)
 .bss           0x00000000000626f4        0x0 d:/Downloads/RFS/DE10_Nano_WiFi_Web_Server/software/ewaff_server_bsp/\libhal_bsp.a(alt_dev_llist_insert.o)
 .bss           0x00000000000626f4        0x0 d:/Downloads/RFS/DE10_Nano_WiFi_Web_Server/software/ewaff_server_bsp/\libhal_bsp.a(alt_do_ctors.o)
 .bss           0x00000000000626f4        0x0 d:/Downloads/RFS/DE10_Nano_WiFi_Web_Server/software/ewaff_server_bsp/\libhal_bsp.a(alt_do_dtors.o)
 .bss           0x00000000000626f4        0x0 d:/Downloads/RFS/DE10_Nano_WiFi_Web_Server/software/ewaff_server_bsp/\libhal_bsp.a(alt_find_dev.o)
 .bss           0x00000000000626f4        0x0 d:/Downloads/RFS/DE10_Nano_WiFi_Web_Server/software/ewaff_server_bsp/\libhal_bsp.a(alt_find_file.o)
 .bss           0x00000000000626f4        0x0 d:/Downloads/RFS/DE10_Nano_WiFi_Web_Server/software/ewaff_server_bsp/\libhal_bsp.a(alt_get_fd.o)
 .bss           0x00000000000626f4        0x0 d:/Downloads/RFS/DE10_Nano_WiFi_Web_Server/software/ewaff_server_bsp/\libhal_bsp.a(alt_icache_flush_all.o)
 .bss           0x00000000000626f4        0x0 d:/Downloads/RFS/DE10_Nano_WiFi_Web_Server/software/ewaff_server_bsp/\libhal_bsp.a(alt_iic.o)
 .bss           0x00000000000626f4        0x0 d:/Downloads/RFS/DE10_Nano_WiFi_Web_Server/software/ewaff_server_bsp/\libhal_bsp.a(alt_iic_isr_register.o)
 .bss           0x00000000000626f4        0x0 d:/Downloads/RFS/DE10_Nano_WiFi_Web_Server/software/ewaff_server_bsp/\libhal_bsp.a(alt_io_redirect.o)
 .bss           0x00000000000626f4        0x0 d:/Downloads/RFS/DE10_Nano_WiFi_Web_Server/software/ewaff_server_bsp/\libhal_bsp.a(alt_irq_entry.o)
 .bss           0x00000000000626f4      0x100 d:/Downloads/RFS/DE10_Nano_WiFi_Web_Server/software/ewaff_server_bsp/\libhal_bsp.a(alt_irq_handler.o)
                0x00000000000626f4                alt_irq
 .bss           0x00000000000627f4        0x0 d:/Downloads/RFS/DE10_Nano_WiFi_Web_Server/software/ewaff_server_bsp/\libhal_bsp.a(alt_irq_vars.o)
 .bss           0x00000000000627f4        0x0 d:/Downloads/RFS/DE10_Nano_WiFi_Web_Server/software/ewaff_server_bsp/\libhal_bsp.a(alt_tick.o)
 .bss           0x00000000000627f4        0x0 d:/Downloads/RFS/DE10_Nano_WiFi_Web_Server/software/ewaff_server_bsp/\libhal_bsp.a(altera_nios2_gen2_irq.o)
 .bss           0x00000000000627f4        0x0 d:/Downloads/RFS/DE10_Nano_WiFi_Web_Server/software/ewaff_server_bsp/\libhal_bsp.a(alt_exception_entry.o)
 .bss           0x00000000000627f4        0x0 d:/Downloads/RFS/DE10_Nano_WiFi_Web_Server/software/ewaff_server_bsp/\libhal_bsp.a(alt_icache_flush.o)
 .bss           0x00000000000627f4        0x0 d:/Downloads/RFS/DE10_Nano_WiFi_Web_Server/software/ewaff_server_bsp/\libhal_bsp.a(alt_instruction_exception_entry.o)
 .bss           0x00000000000627f4        0x0 d:/intel_fpga/nios2eds/bin/gnu/h-x86_64-mingw32/bin/../lib/gcc/nios2-elf/10.3.1/../../../../../H-x86_64-mingw32/nios2-elf/lib\libc.a(lib_a-atexit.o)
 .bss           0x00000000000627f4        0x0 d:/intel_fpga/nios2eds/bin/gnu/h-x86_64-mingw32/bin/../lib/gcc/nios2-elf/10.3.1/../../../../../H-x86_64-mingw32/nios2-elf/lib\libc.a(lib_a-exit.o)
 .bss           0x00000000000627f4        0x0 d:/intel_fpga/nios2eds/bin/gnu/h-x86_64-mingw32/bin/../lib/gcc/nios2-elf/10.3.1/../../../../../H-x86_64-mingw32/nios2-elf/lib\libc.a(lib_a-__atexit.o)
 .bss           0x00000000000627f4        0x0 d:/intel_fpga/nios2eds/bin/gnu/h-x86_64-mingw32/bin/../lib/gcc/nios2-elf/10.3.1/../../../../../H-x86_64-mingw32/nios2-elf/lib\libc.a(lib_a-__call_atexit.o)
 *(COMMON)
                0x00000000000627f4                . = ALIGN (0x4)
                0x00000000000627f4                __bss_end = ABSOLUTE (.)

.onchip_memory2
                0x00000000000627f4        0x0
                [!provide]                        PROVIDE (_alt_partition_onchip_memory2_start = ABSOLUTE (.))
 *(.onchip_memory2 .onchip_memory2. onchip_memory2.*)
                0x00000000000627f4                . = ALIGN (0x4)
                [!provide]                        PROVIDE (_alt_partition_onchip_memory2_end = ABSOLUTE (.))
                0x00000000000627f4                _end = ABSOLUTE (.)
                0x00000000000627f4                end = ABSOLUTE (.)
                0x00000000000627f4                __alt_stack_base = ABSOLUTE (.)
                [!provide]                        PROVIDE (_alt_partition_onchip_memory2_load_addr = LOADADDR (.onchip_memory2))

.stab
 *(.stab)

.stabstr
 *(.stabstr)

.stab.excl
 *(.stab.excl)

.stab.exclstr
 *(.stab.exclstr)

.stab.index
 *(.stab.index)

.stab.indexstr
 *(.stab.indexstr)

.comment        0x0000000000000000       0x2d
 *(.comment)
 .comment       0x0000000000000000       0x2d obj/default/esp8266.o
                                         0x2e (size before relaxing)
 .comment       0x000000000000002d       0x2e obj/default/main.o
 .comment       0x000000000000002d       0x2e d:/intel_fpga/nios2eds/bin/gnu/h-x86_64-mingw32/bin/../lib/gcc/nios2-elf/10.3.1\libgcc.a(fixsfsi.o)
 .comment       0x000000000000002d       0x2e d:/intel_fpga/nios2eds/bin/gnu/h-x86_64-mingw32/bin/../lib/gcc/nios2-elf/10.3.1/../../../../../H-x86_64-mingw32/nios2-elf/lib\libc.a(lib_a-fflush.o)
 .comment       0x000000000000002d       0x2e d:/intel_fpga/nios2eds/bin/gnu/h-x86_64-mingw32/bin/../lib/gcc/nios2-elf/10.3.1/../../../../../H-x86_64-mingw32/nios2-elf/lib\libc.a(lib_a-fgetc.o)
 .comment       0x000000000000002d       0x2e d:/intel_fpga/nios2eds/bin/gnu/h-x86_64-mingw32/bin/../lib/gcc/nios2-elf/10.3.1/../../../../../H-x86_64-mingw32/nios2-elf/lib\libc.a(lib_a-fgets.o)
 .comment       0x000000000000002d       0x2e d:/intel_fpga/nios2eds/bin/gnu/h-x86_64-mingw32/bin/../lib/gcc/nios2-elf/10.3.1/../../../../../H-x86_64-mingw32/nios2-elf/lib\libc.a(lib_a-fileno.o)
 .comment       0x000000000000002d       0x2e d:/intel_fpga/nios2eds/bin/gnu/h-x86_64-mingw32/bin/../lib/gcc/nios2-elf/10.3.1/../../../../../H-x86_64-mingw32/nios2-elf/lib\libc.a(lib_a-findfp.o)
 .comment       0x000000000000002d       0x2e d:/intel_fpga/nios2eds/bin/gnu/h-x86_64-mingw32/bin/../lib/gcc/nios2-elf/10.3.1/../../../../../H-x86_64-mingw32/nios2-elf/lib\libc.a(lib_a-fopen.o)
 .comment       0x000000000000002d       0x2e d:/intel_fpga/nios2eds/bin/gnu/h-x86_64-mingw32/bin/../lib/gcc/nios2-elf/10.3.1/../../../../../H-x86_64-mingw32/nios2-elf/lib\libc.a(lib_a-fprintf.o)
 .comment       0x000000000000002d       0x2e d:/intel_fpga/nios2eds/bin/gnu/h-x86_64-mingw32/bin/../lib/gcc/nios2-elf/10.3.1/../../../../../H-x86_64-mingw32/nios2-elf/lib\libc.a(lib_a-freer.o)
 .comment       0x000000000000002d       0x2e d:/intel_fpga/nios2eds/bin/gnu/h-x86_64-mingw32/bin/../lib/gcc/nios2-elf/10.3.1/../../../../../H-x86_64-mingw32/nios2-elf/lib\libc.a(lib_a-fseek.o)
 .comment       0x000000000000002d       0x2e d:/intel_fpga/nios2eds/bin/gnu/h-x86_64-mingw32/bin/../lib/gcc/nios2-elf/10.3.1/../../../../../H-x86_64-mingw32/nios2-elf/lib\libc.a(lib_a-fseeko.o)
 .comment       0x000000000000002d       0x2e d:/intel_fpga/nios2eds/bin/gnu/h-x86_64-mingw32/bin/../lib/gcc/nios2-elf/10.3.1/../../../../../H-x86_64-mingw32/nios2-elf/lib\libc.a(lib_a-fstatr.o)
 .comment       0x000000000000002d       0x2e d:/intel_fpga/nios2eds/bin/gnu/h-x86_64-mingw32/bin/../lib/gcc/nios2-elf/10.3.1/../../../../../H-x86_64-mingw32/nios2-elf/lib\libc.a(lib_a-fwalk.o)
 .comment       0x000000000000002d       0x2e d:/intel_fpga/nios2eds/bin/gnu/h-x86_64-mingw32/bin/../lib/gcc/nios2-elf/10.3.1/../../../../../H-x86_64-mingw32/nios2-elf/lib\libc.a(lib_a-impure.o)
 .comment       0x000000000000002d       0x2e d:/intel_fpga/nios2eds/bin/gnu/h-x86_64-mingw32/bin/../lib/gcc/nios2-elf/10.3.1/../../../../../H-x86_64-mingw32/nios2-elf/lib\libc.a(lib_a-int_errno.o)
 .comment       0x000000000000002d       0x2e d:/intel_fpga/nios2eds/bin/gnu/h-x86_64-mingw32/bin/../lib/gcc/nios2-elf/10.3.1/../../../../../H-x86_64-mingw32/nios2-elf/lib\libc.a(lib_a-makebuf.o)
 .comment       0x000000000000002d       0x2e d:/intel_fpga/nios2eds/bin/gnu/h-x86_64-mingw32/bin/../lib/gcc/nios2-elf/10.3.1/../../../../../H-x86_64-mingw32/nios2-elf/lib\libc.a(lib_a-malloc.o)
 .comment       0x000000000000002d       0x2e d:/intel_fpga/nios2eds/bin/gnu/h-x86_64-mingw32/bin/../lib/gcc/nios2-elf/10.3.1/../../../../../H-x86_64-mingw32/nios2-elf/lib\libc.a(lib_a-mallocr.o)
 .comment       0x000000000000002d       0x2e d:/intel_fpga/nios2eds/bin/gnu/h-x86_64-mingw32/bin/../lib/gcc/nios2-elf/10.3.1/../../../../../H-x86_64-mingw32/nios2-elf/lib\libc.a(lib_a-memchr.o)
 .comment       0x000000000000002d       0x2e d:/intel_fpga/nios2eds/bin/gnu/h-x86_64-mingw32/bin/../lib/gcc/nios2-elf/10.3.1/../../../../../H-x86_64-mingw32/nios2-elf/lib\libc.a(lib_a-memcpy.o)
 .comment       0x000000000000002d       0x2e d:/intel_fpga/nios2eds/bin/gnu/h-x86_64-mingw32/bin/../lib/gcc/nios2-elf/10.3.1/../../../../../H-x86_64-mingw32/nios2-elf/lib\libc.a(lib_a-memset.o)
 .comment       0x000000000000002d       0x2e d:/intel_fpga/nios2eds/bin/gnu/h-x86_64-mingw32/bin/../lib/gcc/nios2-elf/10.3.1/../../../../../H-x86_64-mingw32/nios2-elf/lib\libc.a(lib_a-openr.o)
 .comment       0x000000000000002d       0x2e d:/intel_fpga/nios2eds/bin/gnu/h-x86_64-mingw32/bin/../lib/gcc/nios2-elf/10.3.1/../../../../../H-x86_64-mingw32/nios2-elf/lib\libc.a(lib_a-printf.o)
 .comment       0x000000000000002d       0x2e d:/intel_fpga/nios2eds/bin/gnu/h-x86_64-mingw32/bin/../lib/gcc/nios2-elf/10.3.1/../../../../../H-x86_64-mingw32/nios2-elf/lib\libc.a(lib_a-puts.o)
 .comment       0x000000000000002d       0x2e d:/intel_fpga/nios2eds/bin/gnu/h-x86_64-mingw32/bin/../lib/gcc/nios2-elf/10.3.1/../../../../../H-x86_64-mingw32/nios2-elf/lib\libc.a(lib_a-refill.o)
 .comment       0x000000000000002d       0x2e d:/intel_fpga/nios2eds/bin/gnu/h-x86_64-mingw32/bin/../lib/gcc/nios2-elf/10.3.1/../../../../../H-x86_64-mingw32/nios2-elf/lib\libc.a(lib_a-rget.o)
 .comment       0x000000000000002d       0x2e d:/intel_fpga/nios2eds/bin/gnu/h-x86_64-mingw32/bin/../lib/gcc/nios2-elf/10.3.1/../../../../../H-x86_64-mingw32/nios2-elf/lib\libc.a(lib_a-sbrkr.o)
 .comment       0x000000000000002d       0x2e d:/intel_fpga/nios2eds/bin/gnu/h-x86_64-mingw32/bin/../lib/gcc/nios2-elf/10.3.1/../../../../../H-x86_64-mingw32/nios2-elf/lib\libc.a(lib_a-sprintf.o)
 .comment       0x000000000000002d       0x2e d:/intel_fpga/nios2eds/bin/gnu/h-x86_64-mingw32/bin/../lib/gcc/nios2-elf/10.3.1/../../../../../H-x86_64-mingw32/nios2-elf/lib\libc.a(lib_a-sscanf.o)
 .comment       0x000000000000002d       0x2e d:/intel_fpga/nios2eds/bin/gnu/h-x86_64-mingw32/bin/../lib/gcc/nios2-elf/10.3.1/../../../../../H-x86_64-mingw32/nios2-elf/lib\libc.a(lib_a-stdio.o)
 .comment       0x000000000000002d       0x2e d:/intel_fpga/nios2eds/bin/gnu/h-x86_64-mingw32/bin/../lib/gcc/nios2-elf/10.3.1/../../../../../H-x86_64-mingw32/nios2-elf/lib\libc.a(lib_a-strcat.o)
 .comment       0x000000000000002d       0x2e d:/intel_fpga/nios2eds/bin/gnu/h-x86_64-mingw32/bin/../lib/gcc/nios2-elf/10.3.1/../../../../../H-x86_64-mingw32/nios2-elf/lib\libc.a(lib_a-strchr.o)
 .comment       0x000000000000002d       0x2e d:/intel_fpga/nios2eds/bin/gnu/h-x86_64-mingw32/bin/../lib/gcc/nios2-elf/10.3.1/../../../../../H-x86_64-mingw32/nios2-elf/lib\libc.a(lib_a-strcmp.o)
 .comment       0x000000000000002d       0x2e d:/intel_fpga/nios2eds/bin/gnu/h-x86_64-mingw32/bin/../lib/gcc/nios2-elf/10.3.1/../../../../../H-x86_64-mingw32/nios2-elf/lib\libc.a(lib_a-strcpy.o)
 .comment       0x000000000000002d       0x2e d:/intel_fpga/nios2eds/bin/gnu/h-x86_64-mingw32/bin/../lib/gcc/nios2-elf/10.3.1/../../../../../H-x86_64-mingw32/nios2-elf/lib\libc.a(lib_a-strlen.o)
 .comment       0x000000000000002d       0x2e d:/intel_fpga/nios2eds/bin/gnu/h-x86_64-mingw32/bin/../lib/gcc/nios2-elf/10.3.1/../../../../../H-x86_64-mingw32/nios2-elf/lib\libc.a(lib_a-strstr.o)
 .comment       0x000000000000002d       0x2e d:/intel_fpga/nios2eds/bin/gnu/h-x86_64-mingw32/bin/../lib/gcc/nios2-elf/10.3.1/../../../../../H-x86_64-mingw32/nios2-elf/lib\libc.a(lib_a-svfprintf.o)
 .comment       0x000000000000002d       0x2e d:/intel_fpga/nios2eds/bin/gnu/h-x86_64-mingw32/bin/../lib/gcc/nios2-elf/10.3.1/../../../../../H-x86_64-mingw32/nios2-elf/lib\libc.a(lib_a-svfscanf.o)
 .comment       0x000000000000002d       0x2e d:/intel_fpga/nios2eds/bin/gnu/h-x86_64-mingw32/bin/../lib/gcc/nios2-elf/10.3.1/../../../../../H-x86_64-mingw32/nios2-elf/lib\libc.a(lib_a-vfprintf.o)
 .comment       0x000000000000002d       0x2e d:/intel_fpga/nios2eds/bin/gnu/h-x86_64-mingw32/bin/../lib/gcc/nios2-elf/10.3.1/../../../../../H-x86_64-mingw32/nios2-elf/lib\libc.a(lib_a-writer.o)
 .comment       0x000000000000002d       0x2e d:/intel_fpga/nios2eds/bin/gnu/h-x86_64-mingw32/bin/../lib/gcc/nios2-elf/10.3.1/../../../../../H-x86_64-mingw32/nios2-elf/lib\libc.a(lib_a-wsetup.o)
 .comment       0x000000000000002d       0x2e d:/intel_fpga/nios2eds/bin/gnu/h-x86_64-mingw32/bin/../lib/gcc/nios2-elf/10.3.1/../../../../../H-x86_64-mingw32/nios2-elf/lib\libc.a(closer.o)
 .comment       0x000000000000002d       0x2e d:/intel_fpga/nios2eds/bin/gnu/h-x86_64-mingw32/bin/../lib/gcc/nios2-elf/10.3.1/../../../../../H-x86_64-mingw32/nios2-elf/lib\libc.a(lib_a-ctype_.o)
 .comment       0x000000000000002d       0x2e d:/intel_fpga/nios2eds/bin/gnu/h-x86_64-mingw32/bin/../lib/gcc/nios2-elf/10.3.1/../../../../../H-x86_64-mingw32/nios2-elf/lib\libc.a(lib_a-dtoa.o)
 .comment       0x000000000000002d       0x2e d:/intel_fpga/nios2eds/bin/gnu/h-x86_64-mingw32/bin/../lib/gcc/nios2-elf/10.3.1/../../../../../H-x86_64-mingw32/nios2-elf/lib\libc.a(lib_a-fclose.o)
 .comment       0x000000000000002d       0x2e d:/intel_fpga/nios2eds/bin/gnu/h-x86_64-mingw32/bin/../lib/gcc/nios2-elf/10.3.1/../../../../../H-x86_64-mingw32/nios2-elf/lib\libc.a(lib_a-flags.o)
 .comment       0x000000000000002d       0x2e d:/intel_fpga/nios2eds/bin/gnu/h-x86_64-mingw32/bin/../lib/gcc/nios2-elf/10.3.1/../../../../../H-x86_64-mingw32/nios2-elf/lib\libc.a(lib_a-fvwrite.o)
 .comment       0x000000000000002d       0x2e d:/intel_fpga/nios2eds/bin/gnu/h-x86_64-mingw32/bin/../lib/gcc/nios2-elf/10.3.1/../../../../../H-x86_64-mingw32/nios2-elf/lib\libc.a(lib_a-isattyr.o)
 .comment       0x000000000000002d       0x2e d:/intel_fpga/nios2eds/bin/gnu/h-x86_64-mingw32/bin/../lib/gcc/nios2-elf/10.3.1/../../../../../H-x86_64-mingw32/nios2-elf/lib\libc.a(lib_a-iswspace.o)
 .comment       0x000000000000002d       0x2e d:/intel_fpga/nios2eds/bin/gnu/h-x86_64-mingw32/bin/../lib/gcc/nios2-elf/10.3.1/../../../../../H-x86_64-mingw32/nios2-elf/lib\libc.a(lib_a-iswspace_l.o)
 .comment       0x000000000000002d       0x2e d:/intel_fpga/nios2eds/bin/gnu/h-x86_64-mingw32/bin/../lib/gcc/nios2-elf/10.3.1/../../../../../H-x86_64-mingw32/nios2-elf/lib\libc.a(lib_a-locale.o)
 .comment       0x000000000000002d       0x2e d:/intel_fpga/nios2eds/bin/gnu/h-x86_64-mingw32/bin/../lib/gcc/nios2-elf/10.3.1/../../../../../H-x86_64-mingw32/nios2-elf/lib\libc.a(lib_a-localeconv.o)
 .comment       0x000000000000002d       0x2e d:/intel_fpga/nios2eds/bin/gnu/h-x86_64-mingw32/bin/../lib/gcc/nios2-elf/10.3.1/../../../../../H-x86_64-mingw32/nios2-elf/lib\libc.a(lib_a-lseekr.o)
 .comment       0x000000000000002d       0x2e d:/intel_fpga/nios2eds/bin/gnu/h-x86_64-mingw32/bin/../lib/gcc/nios2-elf/10.3.1/../../../../../H-x86_64-mingw32/nios2-elf/lib\libc.a(lib_a-mbrtowc.o)
 .comment       0x000000000000002d       0x2e d:/intel_fpga/nios2eds/bin/gnu/h-x86_64-mingw32/bin/../lib/gcc/nios2-elf/10.3.1/../../../../../H-x86_64-mingw32/nios2-elf/lib\libc.a(lib_a-mbtowc_r.o)
 .comment       0x000000000000002d       0x2e d:/intel_fpga/nios2eds/bin/gnu/h-x86_64-mingw32/bin/../lib/gcc/nios2-elf/10.3.1/../../../../../H-x86_64-mingw32/nios2-elf/lib\libc.a(lib_a-memcmp.o)
 .comment       0x000000000000002d       0x2e d:/intel_fpga/nios2eds/bin/gnu/h-x86_64-mingw32/bin/../lib/gcc/nios2-elf/10.3.1/../../../../../H-x86_64-mingw32/nios2-elf/lib\libc.a(lib_a-memmove.o)
 .comment       0x000000000000002d       0x2e d:/intel_fpga/nios2eds/bin/gnu/h-x86_64-mingw32/bin/../lib/gcc/nios2-elf/10.3.1/../../../../../H-x86_64-mingw32/nios2-elf/lib\libc.a(lib_a-mprec.o)
 .comment       0x000000000000002d       0x2e d:/intel_fpga/nios2eds/bin/gnu/h-x86_64-mingw32/bin/../lib/gcc/nios2-elf/10.3.1/../../../../../H-x86_64-mingw32/nios2-elf/lib\libc.a(lib_a-readr.o)
 .comment       0x000000000000002d       0x2e d:/intel_fpga/nios2eds/bin/gnu/h-x86_64-mingw32/bin/../lib/gcc/nios2-elf/10.3.1/../../../../../H-x86_64-mingw32/nios2-elf/lib\libc.a(lib_a-reallocr.o)
 .comment       0x000000000000002d       0x2e d:/intel_fpga/nios2eds/bin/gnu/h-x86_64-mingw32/bin/../lib/gcc/nios2-elf/10.3.1/../../../../../H-x86_64-mingw32/nios2-elf/lib\libc.a(lib_a-sccl.o)
 .comment       0x000000000000002d       0x2e d:/intel_fpga/nios2eds/bin/gnu/h-x86_64-mingw32/bin/../lib/gcc/nios2-elf/10.3.1/../../../../../H-x86_64-mingw32/nios2-elf/lib\libc.a(lib_a-strnlen.o)
 .comment       0x000000000000002d       0x2e d:/intel_fpga/nios2eds/bin/gnu/h-x86_64-mingw32/bin/../lib/gcc/nios2-elf/10.3.1/../../../../../H-x86_64-mingw32/nios2-elf/lib\libc.a(lib_a-strtod.o)
 .comment       0x000000000000002d       0x2e d:/intel_fpga/nios2eds/bin/gnu/h-x86_64-mingw32/bin/../lib/gcc/nios2-elf/10.3.1/../../../../../H-x86_64-mingw32/nios2-elf/lib\libc.a(lib_a-strtol.o)
 .comment       0x000000000000002d       0x2e d:/intel_fpga/nios2eds/bin/gnu/h-x86_64-mingw32/bin/../lib/gcc/nios2-elf/10.3.1/../../../../../H-x86_64-mingw32/nios2-elf/lib\libc.a(lib_a-strtoll.o)
 .comment       0x000000000000002d       0x2e d:/intel_fpga/nios2eds/bin/gnu/h-x86_64-mingw32/bin/../lib/gcc/nios2-elf/10.3.1/../../../../../H-x86_64-mingw32/nios2-elf/lib\libc.a(lib_a-strtoul.o)
 .comment       0x000000000000002d       0x2e d:/intel_fpga/nios2eds/bin/gnu/h-x86_64-mingw32/bin/../lib/gcc/nios2-elf/10.3.1/../../../../../H-x86_64-mingw32/nios2-elf/lib\libc.a(lib_a-strtoull.o)
 .comment       0x000000000000002d       0x2e d:/intel_fpga/nios2eds/bin/gnu/h-x86_64-mingw32/bin/../lib/gcc/nios2-elf/10.3.1/../../../../../H-x86_64-mingw32/nios2-elf/lib\libc.a(lib_a-svfiprintf.o)
 .comment       0x000000000000002d       0x2e d:/intel_fpga/nios2eds/bin/gnu/h-x86_64-mingw32/bin/../lib/gcc/nios2-elf/10.3.1/../../../../../H-x86_64-mingw32/nios2-elf/lib\libc.a(lib_a-svfiscanf.o)
 .comment       0x000000000000002d       0x2e d:/intel_fpga/nios2eds/bin/gnu/h-x86_64-mingw32/bin/../lib/gcc/nios2-elf/10.3.1/../../../../../H-x86_64-mingw32/nios2-elf/lib\libc.a(lib_a-ungetc.o)
 .comment       0x000000000000002d       0x2e d:/intel_fpga/nios2eds/bin/gnu/h-x86_64-mingw32/bin/../lib/gcc/nios2-elf/10.3.1/../../../../../H-x86_64-mingw32/nios2-elf/lib\libc.a(lib_a-vfiprintf.o)
 .comment       0x000000000000002d       0x2e d:/intel_fpga/nios2eds/bin/gnu/h-x86_64-mingw32/bin/../lib/gcc/nios2-elf/10.3.1/../../../../../H-x86_64-mingw32/nios2-elf/lib\libc.a(lib_a-wctomb_r.o)
 .comment       0x000000000000002d       0x2e d:/intel_fpga/nios2eds/bin/gnu/h-x86_64-mingw32/bin/../lib/gcc/nios2-elf/10.3.1/../../../../../H-x86_64-mingw32/nios2-elf/lib\libc.a(lib_a-assert.o)
 .comment       0x000000000000002d       0x2e d:/intel_fpga/nios2eds/bin/gnu/h-x86_64-mingw32/bin/../lib/gcc/nios2-elf/10.3.1/../../../../../H-x86_64-mingw32/nios2-elf/lib\libc.a(lib_a-callocr.o)
 .comment       0x000000000000002d       0x2e d:/intel_fpga/nios2eds/bin/gnu/h-x86_64-mingw32/bin/../lib/gcc/nios2-elf/10.3.1/../../../../../H-x86_64-mingw32/nios2-elf/lib\libc.a(lib_a-errno.o)
 .comment       0x000000000000002d       0x2e d:/intel_fpga/nios2eds/bin/gnu/h-x86_64-mingw32/bin/../lib/gcc/nios2-elf/10.3.1/../../../../../H-x86_64-mingw32/nios2-elf/lib\libc.a(lib_a-fiprintf.o)
 .comment       0x000000000000002d       0x2e d:/intel_fpga/nios2eds/bin/gnu/h-x86_64-mingw32/bin/../lib/gcc/nios2-elf/10.3.1/../../../../../H-x86_64-mingw32/nios2-elf/lib\libc.a(lib_a-fputwc.o)
 .comment       0x000000000000002d       0x2e d:/intel_fpga/nios2eds/bin/gnu/h-x86_64-mingw32/bin/../lib/gcc/nios2-elf/10.3.1/../../../../../H-x86_64-mingw32/nios2-elf/lib\libc.a(lib_a-gdtoa-gethex.o)
 .comment       0x000000000000002d       0x2e d:/intel_fpga/nios2eds/bin/gnu/h-x86_64-mingw32/bin/../lib/gcc/nios2-elf/10.3.1/../../../../../H-x86_64-mingw32/nios2-elf/lib\libc.a(lib_a-gdtoa-hexnan.o)
 .comment       0x000000000000002d       0x2e d:/intel_fpga/nios2eds/bin/gnu/h-x86_64-mingw32/bin/../lib/gcc/nios2-elf/10.3.1/../../../../../H-x86_64-mingw32/nios2-elf/lib\libc.a(lib_a-lnumeric.o)
 .comment       0x000000000000002d       0x2e d:/intel_fpga/nios2eds/bin/gnu/h-x86_64-mingw32/bin/../lib/gcc/nios2-elf/10.3.1/../../../../../H-x86_64-mingw32/nios2-elf/lib\libc.a(lib_a-strncmp.o)
 .comment       0x000000000000002d       0x2e d:/intel_fpga/nios2eds/bin/gnu/h-x86_64-mingw32/bin/../lib/gcc/nios2-elf/10.3.1/../../../../../H-x86_64-mingw32/nios2-elf/lib\libc.a(lib_a-vfiprintfr_1.o)
 .comment       0x000000000000002d       0x2e d:/intel_fpga/nios2eds/bin/gnu/h-x86_64-mingw32/bin/../lib/gcc/nios2-elf/10.3.1/../../../../../H-x86_64-mingw32/nios2-elf/lib\libc.a(lib_a-wbuf.o)
 .comment       0x000000000000002d       0x2e d:/intel_fpga/nios2eds/bin/gnu/h-x86_64-mingw32/bin/../lib/gcc/nios2-elf/10.3.1/../../../../../H-x86_64-mingw32/nios2-elf/lib\libc.a(lib_a-wcrtomb.o)
 .comment       0x000000000000002d       0x2e d:/intel_fpga/nios2eds/bin/gnu/h-x86_64-mingw32/bin/../lib/gcc/nios2-elf/10.3.1/../../../../../H-x86_64-mingw32/nios2-elf/lib\libc.a(lib_a-abort.o)
 .comment       0x000000000000002d       0x2e d:/intel_fpga/nios2eds/bin/gnu/h-x86_64-mingw32/bin/../lib/gcc/nios2-elf/10.3.1/../../../../../H-x86_64-mingw32/nios2-elf/lib\libc.a(lib_a-signal.o)
 .comment       0x000000000000002d       0x2e d:/intel_fpga/nios2eds/bin/gnu/h-x86_64-mingw32/bin/../lib/gcc/nios2-elf/10.3.1/../../../../../H-x86_64-mingw32/nios2-elf/lib\libc.a(lib_a-signalr.o)
 .comment       0x000000000000002d       0x2e d:/intel_fpga/nios2eds/bin/gnu/h-x86_64-mingw32/bin/../lib/gcc/nios2-elf/10.3.1\libgcc.a(_muldi3.o)
 .comment       0x000000000000002d       0x2e d:/intel_fpga/nios2eds/bin/gnu/h-x86_64-mingw32/bin/../lib/gcc/nios2-elf/10.3.1\libgcc.a(_fixunsdfsi.o)
 .comment       0x000000000000002d       0x2e d:/intel_fpga/nios2eds/bin/gnu/h-x86_64-mingw32/bin/../lib/gcc/nios2-elf/10.3.1\libgcc.a(_fixdfdi.o)
 .comment       0x000000000000002d       0x2e d:/intel_fpga/nios2eds/bin/gnu/h-x86_64-mingw32/bin/../lib/gcc/nios2-elf/10.3.1\libgcc.a(_fixunsdfdi.o)
 .comment       0x000000000000002d       0x2e d:/intel_fpga/nios2eds/bin/gnu/h-x86_64-mingw32/bin/../lib/gcc/nios2-elf/10.3.1\libgcc.a(_floatdidf.o)
 .comment       0x000000000000002d       0x2e d:/intel_fpga/nios2eds/bin/gnu/h-x86_64-mingw32/bin/../lib/gcc/nios2-elf/10.3.1\libgcc.a(_udivdi3.o)
 .comment       0x000000000000002d       0x2e d:/intel_fpga/nios2eds/bin/gnu/h-x86_64-mingw32/bin/../lib/gcc/nios2-elf/10.3.1\libgcc.a(_umoddi3.o)
 .comment       0x000000000000002d       0x2e d:/intel_fpga/nios2eds/bin/gnu/h-x86_64-mingw32/bin/../lib/gcc/nios2-elf/10.3.1\libgcc.a(lib2-divmod.o)
 .comment       0x000000000000002d       0x2e d:/intel_fpga/nios2eds/bin/gnu/h-x86_64-mingw32/bin/../lib/gcc/nios2-elf/10.3.1\libgcc.a(lesf2.o)
 .comment       0x000000000000002d       0x2e d:/intel_fpga/nios2eds/bin/gnu/h-x86_64-mingw32/bin/../lib/gcc/nios2-elf/10.3.1\libgcc.a(unordsf2.o)
 .comment       0x000000000000002d       0x2e d:/intel_fpga/nios2eds/bin/gnu/h-x86_64-mingw32/bin/../lib/gcc/nios2-elf/10.3.1\libgcc.a(adddf3.o)
 .comment       0x000000000000002d       0x2e d:/intel_fpga/nios2eds/bin/gnu/h-x86_64-mingw32/bin/../lib/gcc/nios2-elf/10.3.1\libgcc.a(divdf3.o)
 .comment       0x000000000000002d       0x2e d:/intel_fpga/nios2eds/bin/gnu/h-x86_64-mingw32/bin/../lib/gcc/nios2-elf/10.3.1\libgcc.a(eqdf2.o)
 .comment       0x000000000000002d       0x2e d:/intel_fpga/nios2eds/bin/gnu/h-x86_64-mingw32/bin/../lib/gcc/nios2-elf/10.3.1\libgcc.a(gedf2.o)
 .comment       0x000000000000002d       0x2e d:/intel_fpga/nios2eds/bin/gnu/h-x86_64-mingw32/bin/../lib/gcc/nios2-elf/10.3.1\libgcc.a(ledf2.o)
 .comment       0x000000000000002d       0x2e d:/intel_fpga/nios2eds/bin/gnu/h-x86_64-mingw32/bin/../lib/gcc/nios2-elf/10.3.1\libgcc.a(muldf3.o)
 .comment       0x000000000000002d       0x2e d:/intel_fpga/nios2eds/bin/gnu/h-x86_64-mingw32/bin/../lib/gcc/nios2-elf/10.3.1\libgcc.a(subdf3.o)
 .comment       0x000000000000002d       0x2e d:/intel_fpga/nios2eds/bin/gnu/h-x86_64-mingw32/bin/../lib/gcc/nios2-elf/10.3.1\libgcc.a(unorddf2.o)
 .comment       0x000000000000002d       0x2e d:/intel_fpga/nios2eds/bin/gnu/h-x86_64-mingw32/bin/../lib/gcc/nios2-elf/10.3.1\libgcc.a(fixdfsi.o)
 .comment       0x000000000000002d       0x2e d:/intel_fpga/nios2eds/bin/gnu/h-x86_64-mingw32/bin/../lib/gcc/nios2-elf/10.3.1\libgcc.a(floatsidf.o)
 .comment       0x000000000000002d       0x2e d:/intel_fpga/nios2eds/bin/gnu/h-x86_64-mingw32/bin/../lib/gcc/nios2-elf/10.3.1\libgcc.a(floatunsidf.o)
 .comment       0x000000000000002d       0x2e d:/intel_fpga/nios2eds/bin/gnu/h-x86_64-mingw32/bin/../lib/gcc/nios2-elf/10.3.1\libgcc.a(truncdfsf2.o)
 .comment       0x000000000000002d       0x2e d:/intel_fpga/nios2eds/bin/gnu/h-x86_64-mingw32/bin/../lib/gcc/nios2-elf/10.3.1\libgcc.a(_clz.o)
 .comment       0x000000000000002d       0x2e d:/intel_fpga/nios2eds/bin/gnu/h-x86_64-mingw32/bin/../lib/gcc/nios2-elf/10.3.1\libgcc.a(_clzsi2.o)
 .comment       0x000000000000002d       0x2e d:/Downloads/RFS/DE10_Nano_WiFi_Web_Server/software/ewaff_server_bsp/\libhal_bsp.a(alt_close.o)
 .comment       0x000000000000002d       0x2e d:/Downloads/RFS/DE10_Nano_WiFi_Web_Server/software/ewaff_server_bsp/\libhal_bsp.a(alt_dev.o)
 .comment       0x000000000000002d       0x2e d:/Downloads/RFS/DE10_Nano_WiFi_Web_Server/software/ewaff_server_bsp/\libhal_bsp.a(alt_errno.o)
 .comment       0x000000000000002d       0x2e d:/Downloads/RFS/DE10_Nano_WiFi_Web_Server/software/ewaff_server_bsp/\libhal_bsp.a(alt_exit.o)
 .comment       0x000000000000002d       0x2e d:/Downloads/RFS/DE10_Nano_WiFi_Web_Server/software/ewaff_server_bsp/\libhal_bsp.a(alt_fcntl.o)
 .comment       0x000000000000002d       0x2e d:/Downloads/RFS/DE10_Nano_WiFi_Web_Server/software/ewaff_server_bsp/\libhal_bsp.a(alt_fstat.o)
 .comment       0x000000000000002d       0x2e d:/Downloads/RFS/DE10_Nano_WiFi_Web_Server/software/ewaff_server_bsp/\libhal_bsp.a(alt_getpid.o)
 .comment       0x000000000000002d       0x2e d:/Downloads/RFS/DE10_Nano_WiFi_Web_Server/software/ewaff_server_bsp/\libhal_bsp.a(alt_isatty.o)
 .comment       0x000000000000002d       0x2e d:/Downloads/RFS/DE10_Nano_WiFi_Web_Server/software/ewaff_server_bsp/\libhal_bsp.a(alt_kill.o)
 .comment       0x000000000000002d       0x2e d:/Downloads/RFS/DE10_Nano_WiFi_Web_Server/software/ewaff_server_bsp/\libhal_bsp.a(alt_load.o)
 .comment       0x000000000000002d       0x2e d:/Downloads/RFS/DE10_Nano_WiFi_Web_Server/software/ewaff_server_bsp/\libhal_bsp.a(alt_lseek.o)
 .comment       0x000000000000002d       0x2e d:/Downloads/RFS/DE10_Nano_WiFi_Web_Server/software/ewaff_server_bsp/\libhal_bsp.a(alt_main.o)
 .comment       0x000000000000002d       0x2e d:/Downloads/RFS/DE10_Nano_WiFi_Web_Server/software/ewaff_server_bsp/\libhal_bsp.a(alt_malloc_lock.o)
 .comment       0x000000000000002d       0x2e d:/Downloads/RFS/DE10_Nano_WiFi_Web_Server/software/ewaff_server_bsp/\libhal_bsp.a(alt_open.o)
 .comment       0x000000000000002d       0x2e d:/Downloads/RFS/DE10_Nano_WiFi_Web_Server/software/ewaff_server_bsp/\libhal_bsp.a(alt_read.o)
 .comment       0x000000000000002d       0x2e d:/Downloads/RFS/DE10_Nano_WiFi_Web_Server/software/ewaff_server_bsp/\libhal_bsp.a(alt_release_fd.o)
 .comment       0x000000000000002d       0x2e d:/Downloads/RFS/DE10_Nano_WiFi_Web_Server/software/ewaff_server_bsp/\libhal_bsp.a(alt_sbrk.o)
 .comment       0x000000000000002d       0x2e d:/Downloads/RFS/DE10_Nano_WiFi_Web_Server/software/ewaff_server_bsp/\libhal_bsp.a(alt_usleep.o)
 .comment       0x000000000000002d       0x2e d:/Downloads/RFS/DE10_Nano_WiFi_Web_Server/software/ewaff_server_bsp/\libhal_bsp.a(alt_write.o)
 .comment       0x000000000000002d       0x2e d:/Downloads/RFS/DE10_Nano_WiFi_Web_Server/software/ewaff_server_bsp/\libhal_bsp.a(alt_sys_init.o)
 .comment       0x000000000000002d       0x2e d:/Downloads/RFS/DE10_Nano_WiFi_Web_Server/software/ewaff_server_bsp/\libhal_bsp.a(altera_avalon_jtag_uart_fd.o)
 .comment       0x000000000000002d       0x2e d:/Downloads/RFS/DE10_Nano_WiFi_Web_Server/software/ewaff_server_bsp/\libhal_bsp.a(altera_avalon_jtag_uart_init.o)
 .comment       0x000000000000002d       0x2e d:/Downloads/RFS/DE10_Nano_WiFi_Web_Server/software/ewaff_server_bsp/\libhal_bsp.a(altera_avalon_jtag_uart_ioctl.o)
 .comment       0x000000000000002d       0x2e d:/Downloads/RFS/DE10_Nano_WiFi_Web_Server/software/ewaff_server_bsp/\libhal_bsp.a(altera_avalon_jtag_uart_read.o)
 .comment       0x000000000000002d       0x2e d:/Downloads/RFS/DE10_Nano_WiFi_Web_Server/software/ewaff_server_bsp/\libhal_bsp.a(altera_avalon_jtag_uart_write.o)
 .comment       0x000000000000002d       0x2e d:/Downloads/RFS/DE10_Nano_WiFi_Web_Server/software/ewaff_server_bsp/\libhal_bsp.a(altera_avalon_timer_sc.o)
 .comment       0x000000000000002d       0x2e d:/Downloads/RFS/DE10_Nano_WiFi_Web_Server/software/ewaff_server_bsp/\libhal_bsp.a(altera_avalon_uart_fd.o)
 .comment       0x000000000000002d       0x2e d:/Downloads/RFS/DE10_Nano_WiFi_Web_Server/software/ewaff_server_bsp/\libhal_bsp.a(altera_avalon_uart_init.o)
 .comment       0x000000000000002d       0x2e d:/Downloads/RFS/DE10_Nano_WiFi_Web_Server/software/ewaff_server_bsp/\libhal_bsp.a(altera_avalon_uart_read.o)
 .comment       0x000000000000002d       0x2e d:/Downloads/RFS/DE10_Nano_WiFi_Web_Server/software/ewaff_server_bsp/\libhal_bsp.a(altera_avalon_uart_write.o)
 .comment       0x000000000000002d       0x2e d:/Downloads/RFS/DE10_Nano_WiFi_Web_Server/software/ewaff_server_bsp/\libhal_bsp.a(alt_alarm_start.o)
 .comment       0x000000000000002d       0x2e d:/Downloads/RFS/DE10_Nano_WiFi_Web_Server/software/ewaff_server_bsp/\libhal_bsp.a(alt_busy_sleep.o)
 .comment       0x000000000000002d       0x2e d:/Downloads/RFS/DE10_Nano_WiFi_Web_Server/software/ewaff_server_bsp/\libhal_bsp.a(alt_dcache_flush_all.o)
 .comment       0x000000000000002d       0x2e d:/Downloads/RFS/DE10_Nano_WiFi_Web_Server/software/ewaff_server_bsp/\libhal_bsp.a(alt_dev_llist_insert.o)
 .comment       0x000000000000002d       0x2e d:/Downloads/RFS/DE10_Nano_WiFi_Web_Server/software/ewaff_server_bsp/\libhal_bsp.a(alt_do_ctors.o)
 .comment       0x000000000000002d       0x2e d:/Downloads/RFS/DE10_Nano_WiFi_Web_Server/software/ewaff_server_bsp/\libhal_bsp.a(alt_do_dtors.o)
 .comment       0x000000000000002d       0x2e d:/Downloads/RFS/DE10_Nano_WiFi_Web_Server/software/ewaff_server_bsp/\libhal_bsp.a(alt_find_dev.o)
 .comment       0x000000000000002d       0x2e d:/Downloads/RFS/DE10_Nano_WiFi_Web_Server/software/ewaff_server_bsp/\libhal_bsp.a(alt_find_file.o)
 .comment       0x000000000000002d       0x2e d:/Downloads/RFS/DE10_Nano_WiFi_Web_Server/software/ewaff_server_bsp/\libhal_bsp.a(alt_get_fd.o)
 .comment       0x000000000000002d       0x2e d:/Downloads/RFS/DE10_Nano_WiFi_Web_Server/software/ewaff_server_bsp/\libhal_bsp.a(alt_icache_flush_all.o)
 .comment       0x000000000000002d       0x2e d:/Downloads/RFS/DE10_Nano_WiFi_Web_Server/software/ewaff_server_bsp/\libhal_bsp.a(alt_iic.o)
 .comment       0x000000000000002d       0x2e d:/Downloads/RFS/DE10_Nano_WiFi_Web_Server/software/ewaff_server_bsp/\libhal_bsp.a(alt_iic_isr_register.o)
 .comment       0x000000000000002d       0x2e d:/Downloads/RFS/DE10_Nano_WiFi_Web_Server/software/ewaff_server_bsp/\libhal_bsp.a(alt_io_redirect.o)
 .comment       0x000000000000002d       0x2e d:/Downloads/RFS/DE10_Nano_WiFi_Web_Server/software/ewaff_server_bsp/\libhal_bsp.a(alt_irq_handler.o)
 .comment       0x000000000000002d       0x2e d:/Downloads/RFS/DE10_Nano_WiFi_Web_Server/software/ewaff_server_bsp/\libhal_bsp.a(alt_irq_vars.o)
 .comment       0x000000000000002d       0x2e d:/Downloads/RFS/DE10_Nano_WiFi_Web_Server/software/ewaff_server_bsp/\libhal_bsp.a(alt_tick.o)
 .comment       0x000000000000002d       0x2e d:/Downloads/RFS/DE10_Nano_WiFi_Web_Server/software/ewaff_server_bsp/\libhal_bsp.a(altera_nios2_gen2_irq.o)
 .comment       0x000000000000002d       0x2e d:/Downloads/RFS/DE10_Nano_WiFi_Web_Server/software/ewaff_server_bsp/\libhal_bsp.a(alt_icache_flush.o)
 .comment       0x000000000000002d       0x2e d:/Downloads/RFS/DE10_Nano_WiFi_Web_Server/software/ewaff_server_bsp/\libhal_bsp.a(alt_instruction_exception_entry.o)
 .comment       0x000000000000002d       0x2e d:/intel_fpga/nios2eds/bin/gnu/h-x86_64-mingw32/bin/../lib/gcc/nios2-elf/10.3.1/../../../../../H-x86_64-mingw32/nios2-elf/lib\libc.a(lib_a-atexit.o)
 .comment       0x000000000000002d       0x2e d:/intel_fpga/nios2eds/bin/gnu/h-x86_64-mingw32/bin/../lib/gcc/nios2-elf/10.3.1/../../../../../H-x86_64-mingw32/nios2-elf/lib\libc.a(lib_a-exit.o)
 .comment       0x000000000000002d       0x2e d:/intel_fpga/nios2eds/bin/gnu/h-x86_64-mingw32/bin/../lib/gcc/nios2-elf/10.3.1/../../../../../H-x86_64-mingw32/nios2-elf/lib\libc.a(lib_a-__atexit.o)
 .comment       0x000000000000002d       0x2e d:/intel_fpga/nios2eds/bin/gnu/h-x86_64-mingw32/bin/../lib/gcc/nios2-elf/10.3.1/../../../../../H-x86_64-mingw32/nios2-elf/lib\libc.a(lib_a-__call_atexit.o)

.debug
 *(.debug)

.line
 *(.line)

.debug_srcinfo
 *(.debug_srcinfo)

.debug_sfnames
 *(.debug_sfnames)

.debug_aranges  0x0000000000000000     0x1870
 *(.debug_aranges)
 .debug_aranges
                0x0000000000000000       0x28 d:/Downloads/RFS/DE10_Nano_WiFi_Web_Server/software/ewaff_server_bsp//obj/HAL/src/crt0.o
 .debug_aranges
                0x0000000000000028       0x20 obj/default/esp8266.o
 .debug_aranges
                0x0000000000000048       0x20 obj/default/main.o
 .debug_aranges
                0x0000000000000068       0x20 d:/intel_fpga/nios2eds/bin/gnu/h-x86_64-mingw32/bin/../lib/gcc/nios2-elf/10.3.1\libgcc.a(fixsfsi.o)
 .debug_aranges
                0x0000000000000088       0x30 d:/intel_fpga/nios2eds/bin/gnu/h-x86_64-mingw32/bin/../lib/gcc/nios2-elf/10.3.1/../../../../../H-x86_64-mingw32/nios2-elf/lib\libc.a(lib_a-fflush.o)
 .debug_aranges
                0x00000000000000b8       0x28 d:/intel_fpga/nios2eds/bin/gnu/h-x86_64-mingw32/bin/../lib/gcc/nios2-elf/10.3.1/../../../../../H-x86_64-mingw32/nios2-elf/lib\libc.a(lib_a-fgetc.o)
 .debug_aranges
                0x00000000000000e0       0x28 d:/intel_fpga/nios2eds/bin/gnu/h-x86_64-mingw32/bin/../lib/gcc/nios2-elf/10.3.1/../../../../../H-x86_64-mingw32/nios2-elf/lib\libc.a(lib_a-fgets.o)
 .debug_aranges
                0x0000000000000108       0x20 d:/intel_fpga/nios2eds/bin/gnu/h-x86_64-mingw32/bin/../lib/gcc/nios2-elf/10.3.1/../../../../../H-x86_64-mingw32/nios2-elf/lib\libc.a(lib_a-fileno.o)
 .debug_aranges
                0x0000000000000128       0x68 d:/intel_fpga/nios2eds/bin/gnu/h-x86_64-mingw32/bin/../lib/gcc/nios2-elf/10.3.1/../../../../../H-x86_64-mingw32/nios2-elf/lib\libc.a(lib_a-findfp.o)
 .debug_aranges
                0x0000000000000190       0x28 d:/intel_fpga/nios2eds/bin/gnu/h-x86_64-mingw32/bin/../lib/gcc/nios2-elf/10.3.1/../../../../../H-x86_64-mingw32/nios2-elf/lib\libc.a(lib_a-fopen.o)
 .debug_aranges
                0x00000000000001b8       0x28 d:/intel_fpga/nios2eds/bin/gnu/h-x86_64-mingw32/bin/../lib/gcc/nios2-elf/10.3.1/../../../../../H-x86_64-mingw32/nios2-elf/lib\libc.a(lib_a-fprintf.o)
 .debug_aranges
                0x00000000000001e0       0x28 d:/intel_fpga/nios2eds/bin/gnu/h-x86_64-mingw32/bin/../lib/gcc/nios2-elf/10.3.1/../../../../../H-x86_64-mingw32/nios2-elf/lib\libc.a(lib_a-freer.o)
 .debug_aranges
                0x0000000000000208       0x28 d:/intel_fpga/nios2eds/bin/gnu/h-x86_64-mingw32/bin/../lib/gcc/nios2-elf/10.3.1/../../../../../H-x86_64-mingw32/nios2-elf/lib\libc.a(lib_a-fseek.o)
 .debug_aranges
                0x0000000000000230       0x28 d:/intel_fpga/nios2eds/bin/gnu/h-x86_64-mingw32/bin/../lib/gcc/nios2-elf/10.3.1/../../../../../H-x86_64-mingw32/nios2-elf/lib\libc.a(lib_a-fseeko.o)
 .debug_aranges
                0x0000000000000258       0x20 d:/intel_fpga/nios2eds/bin/gnu/h-x86_64-mingw32/bin/../lib/gcc/nios2-elf/10.3.1/../../../../../H-x86_64-mingw32/nios2-elf/lib\libc.a(lib_a-fstatr.o)
 .debug_aranges
                0x0000000000000278       0x28 d:/intel_fpga/nios2eds/bin/gnu/h-x86_64-mingw32/bin/../lib/gcc/nios2-elf/10.3.1/../../../../../H-x86_64-mingw32/nios2-elf/lib\libc.a(lib_a-fwalk.o)
 .debug_aranges
                0x00000000000002a0       0x18 d:/intel_fpga/nios2eds/bin/gnu/h-x86_64-mingw32/bin/../lib/gcc/nios2-elf/10.3.1/../../../../../H-x86_64-mingw32/nios2-elf/lib\libc.a(lib_a-impure.o)
 .debug_aranges
                0x00000000000002b8       0x18 d:/intel_fpga/nios2eds/bin/gnu/h-x86_64-mingw32/bin/../lib/gcc/nios2-elf/10.3.1/../../../../../H-x86_64-mingw32/nios2-elf/lib\libc.a(lib_a-int_errno.o)
 .debug_aranges
                0x00000000000002d0       0x28 d:/intel_fpga/nios2eds/bin/gnu/h-x86_64-mingw32/bin/../lib/gcc/nios2-elf/10.3.1/../../../../../H-x86_64-mingw32/nios2-elf/lib\libc.a(lib_a-makebuf.o)
 .debug_aranges
                0x00000000000002f8       0x28 d:/intel_fpga/nios2eds/bin/gnu/h-x86_64-mingw32/bin/../lib/gcc/nios2-elf/10.3.1/../../../../../H-x86_64-mingw32/nios2-elf/lib\libc.a(lib_a-malloc.o)
 .debug_aranges
                0x0000000000000320       0x20 d:/intel_fpga/nios2eds/bin/gnu/h-x86_64-mingw32/bin/../lib/gcc/nios2-elf/10.3.1/../../../../../H-x86_64-mingw32/nios2-elf/lib\libc.a(lib_a-mallocr.o)
 .debug_aranges
                0x0000000000000340       0x20 d:/intel_fpga/nios2eds/bin/gnu/h-x86_64-mingw32/bin/../lib/gcc/nios2-elf/10.3.1/../../../../../H-x86_64-mingw32/nios2-elf/lib\libc.a(lib_a-memchr.o)
 .debug_aranges
                0x0000000000000360       0x20 d:/intel_fpga/nios2eds/bin/gnu/h-x86_64-mingw32/bin/../lib/gcc/nios2-elf/10.3.1/../../../../../H-x86_64-mingw32/nios2-elf/lib\libc.a(lib_a-memcpy.o)
 .debug_aranges
                0x0000000000000380       0x20 d:/intel_fpga/nios2eds/bin/gnu/h-x86_64-mingw32/bin/../lib/gcc/nios2-elf/10.3.1/../../../../../H-x86_64-mingw32/nios2-elf/lib\libc.a(lib_a-memset.o)
 .debug_aranges
                0x00000000000003a0       0x20 d:/intel_fpga/nios2eds/bin/gnu/h-x86_64-mingw32/bin/../lib/gcc/nios2-elf/10.3.1/../../../../../H-x86_64-mingw32/nios2-elf/lib\libc.a(lib_a-openr.o)
 .debug_aranges
                0x00000000000003c0       0x28 d:/intel_fpga/nios2eds/bin/gnu/h-x86_64-mingw32/bin/../lib/gcc/nios2-elf/10.3.1/../../../../../H-x86_64-mingw32/nios2-elf/lib\libc.a(lib_a-printf.o)
 .debug_aranges
                0x00000000000003e8       0x28 d:/intel_fpga/nios2eds/bin/gnu/h-x86_64-mingw32/bin/../lib/gcc/nios2-elf/10.3.1/../../../../../H-x86_64-mingw32/nios2-elf/lib\libc.a(lib_a-puts.o)
 .debug_aranges
                0x0000000000000410       0x28 d:/intel_fpga/nios2eds/bin/gnu/h-x86_64-mingw32/bin/../lib/gcc/nios2-elf/10.3.1/../../../../../H-x86_64-mingw32/nios2-elf/lib\libc.a(lib_a-refill.o)
 .debug_aranges
                0x0000000000000438       0x28 d:/intel_fpga/nios2eds/bin/gnu/h-x86_64-mingw32/bin/../lib/gcc/nios2-elf/10.3.1/../../../../../H-x86_64-mingw32/nios2-elf/lib\libc.a(lib_a-rget.o)
 .debug_aranges
                0x0000000000000460       0x20 d:/intel_fpga/nios2eds/bin/gnu/h-x86_64-mingw32/bin/../lib/gcc/nios2-elf/10.3.1/../../../../../H-x86_64-mingw32/nios2-elf/lib\libc.a(lib_a-sbrkr.o)
 .debug_aranges
                0x0000000000000480       0x28 d:/intel_fpga/nios2eds/bin/gnu/h-x86_64-mingw32/bin/../lib/gcc/nios2-elf/10.3.1/../../../../../H-x86_64-mingw32/nios2-elf/lib\libc.a(lib_a-sprintf.o)
 .debug_aranges
                0x00000000000004a8       0x28 d:/intel_fpga/nios2eds/bin/gnu/h-x86_64-mingw32/bin/../lib/gcc/nios2-elf/10.3.1/../../../../../H-x86_64-mingw32/nios2-elf/lib\libc.a(lib_a-sscanf.o)
 .debug_aranges
                0x00000000000004d0       0x40 d:/intel_fpga/nios2eds/bin/gnu/h-x86_64-mingw32/bin/../lib/gcc/nios2-elf/10.3.1/../../../../../H-x86_64-mingw32/nios2-elf/lib\libc.a(lib_a-stdio.o)
 .debug_aranges
                0x0000000000000510       0x20 d:/intel_fpga/nios2eds/bin/gnu/h-x86_64-mingw32/bin/../lib/gcc/nios2-elf/10.3.1/../../../../../H-x86_64-mingw32/nios2-elf/lib\libc.a(lib_a-strcat.o)
 .debug_aranges
                0x0000000000000530       0x20 d:/intel_fpga/nios2eds/bin/gnu/h-x86_64-mingw32/bin/../lib/gcc/nios2-elf/10.3.1/../../../../../H-x86_64-mingw32/nios2-elf/lib\libc.a(lib_a-strchr.o)
 .debug_aranges
                0x0000000000000550       0x20 d:/intel_fpga/nios2eds/bin/gnu/h-x86_64-mingw32/bin/../lib/gcc/nios2-elf/10.3.1/../../../../../H-x86_64-mingw32/nios2-elf/lib\libc.a(lib_a-strcmp.o)
 .debug_aranges
                0x0000000000000570       0x20 d:/intel_fpga/nios2eds/bin/gnu/h-x86_64-mingw32/bin/../lib/gcc/nios2-elf/10.3.1/../../../../../H-x86_64-mingw32/nios2-elf/lib\libc.a(lib_a-strcpy.o)
 .debug_aranges
                0x0000000000000590       0x20 d:/intel_fpga/nios2eds/bin/gnu/h-x86_64-mingw32/bin/../lib/gcc/nios2-elf/10.3.1/../../../../../H-x86_64-mingw32/nios2-elf/lib\libc.a(lib_a-strlen.o)
 .debug_aranges
                0x00000000000005b0       0x28 d:/intel_fpga/nios2eds/bin/gnu/h-x86_64-mingw32/bin/../lib/gcc/nios2-elf/10.3.1/../../../../../H-x86_64-mingw32/nios2-elf/lib\libc.a(lib_a-strstr.o)
 .debug_aranges
                0x00000000000005d8       0x20 d:/intel_fpga/nios2eds/bin/gnu/h-x86_64-mingw32/bin/../lib/gcc/nios2-elf/10.3.1/../../../../../H-x86_64-mingw32/nios2-elf/lib\libc.a(lib_a-svfprintf.o)
 .debug_aranges
                0x00000000000005f8       0x20 d:/intel_fpga/nios2eds/bin/gnu/h-x86_64-mingw32/bin/../lib/gcc/nios2-elf/10.3.1/../../../../../H-x86_64-mingw32/nios2-elf/lib\libc.a(lib_a-svfscanf.o)
 .debug_aranges
                0x0000000000000618       0x30 d:/intel_fpga/nios2eds/bin/gnu/h-x86_64-mingw32/bin/../lib/gcc/nios2-elf/10.3.1/../../../../../H-x86_64-mingw32/nios2-elf/lib\libc.a(lib_a-vfprintf.o)
 .debug_aranges
                0x0000000000000648       0x20 d:/intel_fpga/nios2eds/bin/gnu/h-x86_64-mingw32/bin/../lib/gcc/nios2-elf/10.3.1/../../../../../H-x86_64-mingw32/nios2-elf/lib\libc.a(lib_a-writer.o)
 .debug_aranges
                0x0000000000000668       0x20 d:/intel_fpga/nios2eds/bin/gnu/h-x86_64-mingw32/bin/../lib/gcc/nios2-elf/10.3.1/../../../../../H-x86_64-mingw32/nios2-elf/lib\libc.a(lib_a-wsetup.o)
 .debug_aranges
                0x0000000000000688       0x20 d:/intel_fpga/nios2eds/bin/gnu/h-x86_64-mingw32/bin/../lib/gcc/nios2-elf/10.3.1/../../../../../H-x86_64-mingw32/nios2-elf/lib\libc.a(closer.o)
 .debug_aranges
                0x00000000000006a8       0x18 d:/intel_fpga/nios2eds/bin/gnu/h-x86_64-mingw32/bin/../lib/gcc/nios2-elf/10.3.1/../../../../../H-x86_64-mingw32/nios2-elf/lib\libc.a(lib_a-ctype_.o)
 .debug_aranges
                0x00000000000006c0       0x28 d:/intel_fpga/nios2eds/bin/gnu/h-x86_64-mingw32/bin/../lib/gcc/nios2-elf/10.3.1/../../../../../H-x86_64-mingw32/nios2-elf/lib\libc.a(lib_a-dtoa.o)
 .debug_aranges
                0x00000000000006e8       0x30 d:/intel_fpga/nios2eds/bin/gnu/h-x86_64-mingw32/bin/../lib/gcc/nios2-elf/10.3.1/../../../../../H-x86_64-mingw32/nios2-elf/lib\libc.a(lib_a-fclose.o)
 .debug_aranges
                0x0000000000000718       0x20 d:/intel_fpga/nios2eds/bin/gnu/h-x86_64-mingw32/bin/../lib/gcc/nios2-elf/10.3.1/../../../../../H-x86_64-mingw32/nios2-elf/lib\libc.a(lib_a-flags.o)
 .debug_aranges
                0x0000000000000738       0x20 d:/intel_fpga/nios2eds/bin/gnu/h-x86_64-mingw32/bin/../lib/gcc/nios2-elf/10.3.1/../../../../../H-x86_64-mingw32/nios2-elf/lib\libc.a(lib_a-fvwrite.o)
 .debug_aranges
                0x0000000000000758       0x20 d:/intel_fpga/nios2eds/bin/gnu/h-x86_64-mingw32/bin/../lib/gcc/nios2-elf/10.3.1/../../../../../H-x86_64-mingw32/nios2-elf/lib\libc.a(lib_a-isattyr.o)
 .debug_aranges
                0x0000000000000778       0x20 d:/intel_fpga/nios2eds/bin/gnu/h-x86_64-mingw32/bin/../lib/gcc/nios2-elf/10.3.1/../../../../../H-x86_64-mingw32/nios2-elf/lib\libc.a(lib_a-iswspace.o)
 .debug_aranges
                0x0000000000000798       0x20 d:/intel_fpga/nios2eds/bin/gnu/h-x86_64-mingw32/bin/../lib/gcc/nios2-elf/10.3.1/../../../../../H-x86_64-mingw32/nios2-elf/lib\libc.a(lib_a-iswspace_l.o)
 .debug_aranges
                0x00000000000007b8       0x30 d:/intel_fpga/nios2eds/bin/gnu/h-x86_64-mingw32/bin/../lib/gcc/nios2-elf/10.3.1/../../../../../H-x86_64-mingw32/nios2-elf/lib\libc.a(lib_a-locale.o)
 .debug_aranges
                0x00000000000007e8       0x30 d:/intel_fpga/nios2eds/bin/gnu/h-x86_64-mingw32/bin/../lib/gcc/nios2-elf/10.3.1/../../../../../H-x86_64-mingw32/nios2-elf/lib\libc.a(lib_a-localeconv.o)
 .debug_aranges
                0x0000000000000818       0x20 d:/intel_fpga/nios2eds/bin/gnu/h-x86_64-mingw32/bin/../lib/gcc/nios2-elf/10.3.1/../../../../../H-x86_64-mingw32/nios2-elf/lib\libc.a(lib_a-lseekr.o)
 .debug_aranges
                0x0000000000000838       0x28 d:/intel_fpga/nios2eds/bin/gnu/h-x86_64-mingw32/bin/../lib/gcc/nios2-elf/10.3.1/../../../../../H-x86_64-mingw32/nios2-elf/lib\libc.a(lib_a-mbrtowc.o)
 .debug_aranges
                0x0000000000000860       0x28 d:/intel_fpga/nios2eds/bin/gnu/h-x86_64-mingw32/bin/../lib/gcc/nios2-elf/10.3.1/../../../../../H-x86_64-mingw32/nios2-elf/lib\libc.a(lib_a-mbtowc_r.o)
 .debug_aranges
                0x0000000000000888       0x20 d:/intel_fpga/nios2eds/bin/gnu/h-x86_64-mingw32/bin/../lib/gcc/nios2-elf/10.3.1/../../../../../H-x86_64-mingw32/nios2-elf/lib\libc.a(lib_a-memcmp.o)
 .debug_aranges
                0x00000000000008a8       0x20 d:/intel_fpga/nios2eds/bin/gnu/h-x86_64-mingw32/bin/../lib/gcc/nios2-elf/10.3.1/../../../../../H-x86_64-mingw32/nios2-elf/lib\libc.a(lib_a-memmove.o)
 .debug_aranges
                0x00000000000008c8       0xb0 d:/intel_fpga/nios2eds/bin/gnu/h-x86_64-mingw32/bin/../lib/gcc/nios2-elf/10.3.1/../../../../../H-x86_64-mingw32/nios2-elf/lib\libc.a(lib_a-mprec.o)
 .debug_aranges
                0x0000000000000978       0x20 d:/intel_fpga/nios2eds/bin/gnu/h-x86_64-mingw32/bin/../lib/gcc/nios2-elf/10.3.1/../../../../../H-x86_64-mingw32/nios2-elf/lib\libc.a(lib_a-readr.o)
 .debug_aranges
                0x0000000000000998       0x20 d:/intel_fpga/nios2eds/bin/gnu/h-x86_64-mingw32/bin/../lib/gcc/nios2-elf/10.3.1/../../../../../H-x86_64-mingw32/nios2-elf/lib\libc.a(lib_a-reallocr.o)
 .debug_aranges
                0x00000000000009b8       0x20 d:/intel_fpga/nios2eds/bin/gnu/h-x86_64-mingw32/bin/../lib/gcc/nios2-elf/10.3.1/../../../../../H-x86_64-mingw32/nios2-elf/lib\libc.a(lib_a-sccl.o)
 .debug_aranges
                0x00000000000009d8       0x20 d:/intel_fpga/nios2eds/bin/gnu/h-x86_64-mingw32/bin/../lib/gcc/nios2-elf/10.3.1/../../../../../H-x86_64-mingw32/nios2-elf/lib\libc.a(lib_a-strnlen.o)
 .debug_aranges
                0x00000000000009f8       0x48 d:/intel_fpga/nios2eds/bin/gnu/h-x86_64-mingw32/bin/../lib/gcc/nios2-elf/10.3.1/../../../../../H-x86_64-mingw32/nios2-elf/lib\libc.a(lib_a-strtod.o)
 .debug_aranges
                0x0000000000000a40       0x38 d:/intel_fpga/nios2eds/bin/gnu/h-x86_64-mingw32/bin/../lib/gcc/nios2-elf/10.3.1/../../../../../H-x86_64-mingw32/nios2-elf/lib\libc.a(lib_a-strtol.o)
 .debug_aranges
                0x0000000000000a78       0x38 d:/intel_fpga/nios2eds/bin/gnu/h-x86_64-mingw32/bin/../lib/gcc/nios2-elf/10.3.1/../../../../../H-x86_64-mingw32/nios2-elf/lib\libc.a(lib_a-strtoll.o)
 .debug_aranges
                0x0000000000000ab0       0x38 d:/intel_fpga/nios2eds/bin/gnu/h-x86_64-mingw32/bin/../lib/gcc/nios2-elf/10.3.1/../../../../../H-x86_64-mingw32/nios2-elf/lib\libc.a(lib_a-strtoul.o)
 .debug_aranges
                0x0000000000000ae8       0x38 d:/intel_fpga/nios2eds/bin/gnu/h-x86_64-mingw32/bin/../lib/gcc/nios2-elf/10.3.1/../../../../../H-x86_64-mingw32/nios2-elf/lib\libc.a(lib_a-strtoull.o)
 .debug_aranges
                0x0000000000000b20       0x28 d:/intel_fpga/nios2eds/bin/gnu/h-x86_64-mingw32/bin/../lib/gcc/nios2-elf/10.3.1/../../../../../H-x86_64-mingw32/nios2-elf/lib\libc.a(lib_a-svfiprintf.o)
 .debug_aranges
                0x0000000000000b48       0x38 d:/intel_fpga/nios2eds/bin/gnu/h-x86_64-mingw32/bin/../lib/gcc/nios2-elf/10.3.1/../../../../../H-x86_64-mingw32/nios2-elf/lib\libc.a(lib_a-svfiscanf.o)
 .debug_aranges
                0x0000000000000b80       0x30 d:/intel_fpga/nios2eds/bin/gnu/h-x86_64-mingw32/bin/../lib/gcc/nios2-elf/10.3.1/../../../../../H-x86_64-mingw32/nios2-elf/lib\libc.a(lib_a-ungetc.o)
 .debug_aranges
                0x0000000000000bb0       0x40 d:/intel_fpga/nios2eds/bin/gnu/h-x86_64-mingw32/bin/../lib/gcc/nios2-elf/10.3.1/../../../../../H-x86_64-mingw32/nios2-elf/lib\libc.a(lib_a-vfiprintf.o)
 .debug_aranges
                0x0000000000000bf0       0x28 d:/intel_fpga/nios2eds/bin/gnu/h-x86_64-mingw32/bin/../lib/gcc/nios2-elf/10.3.1/../../../../../H-x86_64-mingw32/nios2-elf/lib\libc.a(lib_a-wctomb_r.o)
 .debug_aranges
                0x0000000000000c18       0x28 d:/intel_fpga/nios2eds/bin/gnu/h-x86_64-mingw32/bin/../lib/gcc/nios2-elf/10.3.1/../../../../../H-x86_64-mingw32/nios2-elf/lib\libc.a(lib_a-assert.o)
 .debug_aranges
                0x0000000000000c40       0x20 d:/intel_fpga/nios2eds/bin/gnu/h-x86_64-mingw32/bin/../lib/gcc/nios2-elf/10.3.1/../../../../../H-x86_64-mingw32/nios2-elf/lib\libc.a(lib_a-callocr.o)
 .debug_aranges
                0x0000000000000c60       0x20 d:/intel_fpga/nios2eds/bin/gnu/h-x86_64-mingw32/bin/../lib/gcc/nios2-elf/10.3.1/../../../../../H-x86_64-mingw32/nios2-elf/lib\libc.a(lib_a-errno.o)
 .debug_aranges
                0x0000000000000c80       0x28 d:/intel_fpga/nios2eds/bin/gnu/h-x86_64-mingw32/bin/../lib/gcc/nios2-elf/10.3.1/../../../../../H-x86_64-mingw32/nios2-elf/lib\libc.a(lib_a-fiprintf.o)
 .debug_aranges
                0x0000000000000ca8       0x30 d:/intel_fpga/nios2eds/bin/gnu/h-x86_64-mingw32/bin/../lib/gcc/nios2-elf/10.3.1/../../../../../H-x86_64-mingw32/nios2-elf/lib\libc.a(lib_a-fputwc.o)
 .debug_aranges
                0x0000000000000cd8       0x28 d:/intel_fpga/nios2eds/bin/gnu/h-x86_64-mingw32/bin/../lib/gcc/nios2-elf/10.3.1/../../../../../H-x86_64-mingw32/nios2-elf/lib\libc.a(lib_a-gdtoa-gethex.o)
 .debug_aranges
                0x0000000000000d00       0x28 d:/intel_fpga/nios2eds/bin/gnu/h-x86_64-mingw32/bin/../lib/gcc/nios2-elf/10.3.1/../../../../../H-x86_64-mingw32/nios2-elf/lib\libc.a(lib_a-gdtoa-hexnan.o)
 .debug_aranges
                0x0000000000000d28       0x20 d:/intel_fpga/nios2eds/bin/gnu/h-x86_64-mingw32/bin/../lib/gcc/nios2-elf/10.3.1/../../../../../H-x86_64-mingw32/nios2-elf/lib\libc.a(lib_a-lnumeric.o)
 .debug_aranges
                0x0000000000000d48       0x20 d:/intel_fpga/nios2eds/bin/gnu/h-x86_64-mingw32/bin/../lib/gcc/nios2-elf/10.3.1/../../../../../H-x86_64-mingw32/nios2-elf/lib\libc.a(lib_a-strncmp.o)
 .debug_aranges
                0x0000000000000d68       0x20 d:/intel_fpga/nios2eds/bin/gnu/h-x86_64-mingw32/bin/../lib/gcc/nios2-elf/10.3.1/../../../../../H-x86_64-mingw32/nios2-elf/lib\libc.a(lib_a-vfiprintfr_1.o)
 .debug_aranges
                0x0000000000000d88       0x28 d:/intel_fpga/nios2eds/bin/gnu/h-x86_64-mingw32/bin/../lib/gcc/nios2-elf/10.3.1/../../../../../H-x86_64-mingw32/nios2-elf/lib\libc.a(lib_a-wbuf.o)
 .debug_aranges
                0x0000000000000db0       0x28 d:/intel_fpga/nios2eds/bin/gnu/h-x86_64-mingw32/bin/../lib/gcc/nios2-elf/10.3.1/../../../../../H-x86_64-mingw32/nios2-elf/lib\libc.a(lib_a-wcrtomb.o)
 .debug_aranges
                0x0000000000000dd8       0x20 d:/intel_fpga/nios2eds/bin/gnu/h-x86_64-mingw32/bin/../lib/gcc/nios2-elf/10.3.1/../../../../../H-x86_64-mingw32/nios2-elf/lib\libc.a(lib_a-abort.o)
 .debug_aranges
                0x0000000000000df8       0x58 d:/intel_fpga/nios2eds/bin/gnu/h-x86_64-mingw32/bin/../lib/gcc/nios2-elf/10.3.1/../../../../../H-x86_64-mingw32/nios2-elf/lib\libc.a(lib_a-signal.o)
 .debug_aranges
                0x0000000000000e50       0x28 d:/intel_fpga/nios2eds/bin/gnu/h-x86_64-mingw32/bin/../lib/gcc/nios2-elf/10.3.1/../../../../../H-x86_64-mingw32/nios2-elf/lib\libc.a(lib_a-signalr.o)
 .debug_aranges
                0x0000000000000e78       0x20 d:/intel_fpga/nios2eds/bin/gnu/h-x86_64-mingw32/bin/../lib/gcc/nios2-elf/10.3.1\libgcc.a(_muldi3.o)
 .debug_aranges
                0x0000000000000e98       0x20 d:/intel_fpga/nios2eds/bin/gnu/h-x86_64-mingw32/bin/../lib/gcc/nios2-elf/10.3.1\libgcc.a(_fixunsdfsi.o)
 .debug_aranges
                0x0000000000000eb8       0x20 d:/intel_fpga/nios2eds/bin/gnu/h-x86_64-mingw32/bin/../lib/gcc/nios2-elf/10.3.1\libgcc.a(_fixdfdi.o)
 .debug_aranges
                0x0000000000000ed8       0x20 d:/intel_fpga/nios2eds/bin/gnu/h-x86_64-mingw32/bin/../lib/gcc/nios2-elf/10.3.1\libgcc.a(_fixunsdfdi.o)
 .debug_aranges
                0x0000000000000ef8       0x20 d:/intel_fpga/nios2eds/bin/gnu/h-x86_64-mingw32/bin/../lib/gcc/nios2-elf/10.3.1\libgcc.a(_floatdidf.o)
 .debug_aranges
                0x0000000000000f18       0x20 d:/intel_fpga/nios2eds/bin/gnu/h-x86_64-mingw32/bin/../lib/gcc/nios2-elf/10.3.1\libgcc.a(_udivdi3.o)
 .debug_aranges
                0x0000000000000f38       0x20 d:/intel_fpga/nios2eds/bin/gnu/h-x86_64-mingw32/bin/../lib/gcc/nios2-elf/10.3.1\libgcc.a(_umoddi3.o)
 .debug_aranges
                0x0000000000000f58       0x20 d:/intel_fpga/nios2eds/bin/gnu/h-x86_64-mingw32/bin/../lib/gcc/nios2-elf/10.3.1\libgcc.a(lib2-divmod.o)
 .debug_aranges
                0x0000000000000f78       0x20 d:/intel_fpga/nios2eds/bin/gnu/h-x86_64-mingw32/bin/../lib/gcc/nios2-elf/10.3.1\libgcc.a(lesf2.o)
 .debug_aranges
                0x0000000000000f98       0x20 d:/intel_fpga/nios2eds/bin/gnu/h-x86_64-mingw32/bin/../lib/gcc/nios2-elf/10.3.1\libgcc.a(unordsf2.o)
 .debug_aranges
                0x0000000000000fb8       0x20 d:/intel_fpga/nios2eds/bin/gnu/h-x86_64-mingw32/bin/../lib/gcc/nios2-elf/10.3.1\libgcc.a(adddf3.o)
 .debug_aranges
                0x0000000000000fd8       0x20 d:/intel_fpga/nios2eds/bin/gnu/h-x86_64-mingw32/bin/../lib/gcc/nios2-elf/10.3.1\libgcc.a(divdf3.o)
 .debug_aranges
                0x0000000000000ff8       0x20 d:/intel_fpga/nios2eds/bin/gnu/h-x86_64-mingw32/bin/../lib/gcc/nios2-elf/10.3.1\libgcc.a(eqdf2.o)
 .debug_aranges
                0x0000000000001018       0x20 d:/intel_fpga/nios2eds/bin/gnu/h-x86_64-mingw32/bin/../lib/gcc/nios2-elf/10.3.1\libgcc.a(gedf2.o)
 .debug_aranges
                0x0000000000001038       0x20 d:/intel_fpga/nios2eds/bin/gnu/h-x86_64-mingw32/bin/../lib/gcc/nios2-elf/10.3.1\libgcc.a(ledf2.o)
 .debug_aranges
                0x0000000000001058       0x20 d:/intel_fpga/nios2eds/bin/gnu/h-x86_64-mingw32/bin/../lib/gcc/nios2-elf/10.3.1\libgcc.a(muldf3.o)
 .debug_aranges
                0x0000000000001078       0x20 d:/intel_fpga/nios2eds/bin/gnu/h-x86_64-mingw32/bin/../lib/gcc/nios2-elf/10.3.1\libgcc.a(subdf3.o)
 .debug_aranges
                0x0000000000001098       0x20 d:/intel_fpga/nios2eds/bin/gnu/h-x86_64-mingw32/bin/../lib/gcc/nios2-elf/10.3.1\libgcc.a(unorddf2.o)
 .debug_aranges
                0x00000000000010b8       0x20 d:/intel_fpga/nios2eds/bin/gnu/h-x86_64-mingw32/bin/../lib/gcc/nios2-elf/10.3.1\libgcc.a(fixdfsi.o)
 .debug_aranges
                0x00000000000010d8       0x20 d:/intel_fpga/nios2eds/bin/gnu/h-x86_64-mingw32/bin/../lib/gcc/nios2-elf/10.3.1\libgcc.a(floatsidf.o)
 .debug_aranges
                0x00000000000010f8       0x20 d:/intel_fpga/nios2eds/bin/gnu/h-x86_64-mingw32/bin/../lib/gcc/nios2-elf/10.3.1\libgcc.a(floatunsidf.o)
 .debug_aranges
                0x0000000000001118       0x20 d:/intel_fpga/nios2eds/bin/gnu/h-x86_64-mingw32/bin/../lib/gcc/nios2-elf/10.3.1\libgcc.a(truncdfsf2.o)
 .debug_aranges
                0x0000000000001138       0x18 d:/intel_fpga/nios2eds/bin/gnu/h-x86_64-mingw32/bin/../lib/gcc/nios2-elf/10.3.1\libgcc.a(_clz.o)
 .debug_aranges
                0x0000000000001150       0x20 d:/intel_fpga/nios2eds/bin/gnu/h-x86_64-mingw32/bin/../lib/gcc/nios2-elf/10.3.1\libgcc.a(_clzsi2.o)
 .debug_aranges
                0x0000000000001170       0x20 d:/Downloads/RFS/DE10_Nano_WiFi_Web_Server/software/ewaff_server_bsp/\libhal_bsp.a(alt_close.o)
 .debug_aranges
                0x0000000000001190       0x20 d:/Downloads/RFS/DE10_Nano_WiFi_Web_Server/software/ewaff_server_bsp/\libhal_bsp.a(alt_dev.o)
 .debug_aranges
                0x00000000000011b0       0x18 d:/Downloads/RFS/DE10_Nano_WiFi_Web_Server/software/ewaff_server_bsp/\libhal_bsp.a(alt_errno.o)
 .debug_aranges
                0x00000000000011c8       0x20 d:/Downloads/RFS/DE10_Nano_WiFi_Web_Server/software/ewaff_server_bsp/\libhal_bsp.a(alt_exit.o)
 .debug_aranges
                0x00000000000011e8       0x20 d:/Downloads/RFS/DE10_Nano_WiFi_Web_Server/software/ewaff_server_bsp/\libhal_bsp.a(alt_fcntl.o)
 .debug_aranges
                0x0000000000001208       0x20 d:/Downloads/RFS/DE10_Nano_WiFi_Web_Server/software/ewaff_server_bsp/\libhal_bsp.a(alt_fstat.o)
 .debug_aranges
                0x0000000000001228       0x20 d:/Downloads/RFS/DE10_Nano_WiFi_Web_Server/software/ewaff_server_bsp/\libhal_bsp.a(alt_getpid.o)
 .debug_aranges
                0x0000000000001248       0x20 d:/Downloads/RFS/DE10_Nano_WiFi_Web_Server/software/ewaff_server_bsp/\libhal_bsp.a(alt_isatty.o)
 .debug_aranges
                0x0000000000001268       0x20 d:/Downloads/RFS/DE10_Nano_WiFi_Web_Server/software/ewaff_server_bsp/\libhal_bsp.a(alt_kill.o)
 .debug_aranges
                0x0000000000001288       0x20 d:/Downloads/RFS/DE10_Nano_WiFi_Web_Server/software/ewaff_server_bsp/\libhal_bsp.a(alt_load.o)
 .debug_aranges
                0x00000000000012a8       0x20 d:/Downloads/RFS/DE10_Nano_WiFi_Web_Server/software/ewaff_server_bsp/\libhal_bsp.a(alt_lseek.o)
 .debug_aranges
                0x00000000000012c8       0x20 d:/Downloads/RFS/DE10_Nano_WiFi_Web_Server/software/ewaff_server_bsp/\libhal_bsp.a(alt_main.o)
 .debug_aranges
                0x00000000000012e8       0x20 d:/Downloads/RFS/DE10_Nano_WiFi_Web_Server/software/ewaff_server_bsp/\libhal_bsp.a(alt_malloc_lock.o)
 .debug_aranges
                0x0000000000001308       0x20 d:/Downloads/RFS/DE10_Nano_WiFi_Web_Server/software/ewaff_server_bsp/\libhal_bsp.a(alt_open.o)
 .debug_aranges
                0x0000000000001328       0x20 d:/Downloads/RFS/DE10_Nano_WiFi_Web_Server/software/ewaff_server_bsp/\libhal_bsp.a(alt_read.o)
 .debug_aranges
                0x0000000000001348       0x20 d:/Downloads/RFS/DE10_Nano_WiFi_Web_Server/software/ewaff_server_bsp/\libhal_bsp.a(alt_release_fd.o)
 .debug_aranges
                0x0000000000001368       0x20 d:/Downloads/RFS/DE10_Nano_WiFi_Web_Server/software/ewaff_server_bsp/\libhal_bsp.a(alt_sbrk.o)
 .debug_aranges
                0x0000000000001388       0x20 d:/Downloads/RFS/DE10_Nano_WiFi_Web_Server/software/ewaff_server_bsp/\libhal_bsp.a(alt_usleep.o)
 .debug_aranges
                0x00000000000013a8       0x20 d:/Downloads/RFS/DE10_Nano_WiFi_Web_Server/software/ewaff_server_bsp/\libhal_bsp.a(alt_write.o)
 .debug_aranges
                0x00000000000013c8       0x20 d:/Downloads/RFS/DE10_Nano_WiFi_Web_Server/software/ewaff_server_bsp/\libhal_bsp.a(alt_sys_init.o)
 .debug_aranges
                0x00000000000013e8       0x20 d:/Downloads/RFS/DE10_Nano_WiFi_Web_Server/software/ewaff_server_bsp/\libhal_bsp.a(altera_avalon_jtag_uart_fd.o)
 .debug_aranges
                0x0000000000001408       0x20 d:/Downloads/RFS/DE10_Nano_WiFi_Web_Server/software/ewaff_server_bsp/\libhal_bsp.a(altera_avalon_jtag_uart_init.o)
 .debug_aranges
                0x0000000000001428       0x20 d:/Downloads/RFS/DE10_Nano_WiFi_Web_Server/software/ewaff_server_bsp/\libhal_bsp.a(altera_avalon_jtag_uart_ioctl.o)
 .debug_aranges
                0x0000000000001448       0x20 d:/Downloads/RFS/DE10_Nano_WiFi_Web_Server/software/ewaff_server_bsp/\libhal_bsp.a(altera_avalon_jtag_uart_read.o)
 .debug_aranges
                0x0000000000001468       0x20 d:/Downloads/RFS/DE10_Nano_WiFi_Web_Server/software/ewaff_server_bsp/\libhal_bsp.a(altera_avalon_jtag_uart_write.o)
 .debug_aranges
                0x0000000000001488       0x20 d:/Downloads/RFS/DE10_Nano_WiFi_Web_Server/software/ewaff_server_bsp/\libhal_bsp.a(altera_avalon_timer_sc.o)
 .debug_aranges
                0x00000000000014a8       0x20 d:/Downloads/RFS/DE10_Nano_WiFi_Web_Server/software/ewaff_server_bsp/\libhal_bsp.a(altera_avalon_uart_fd.o)
 .debug_aranges
                0x00000000000014c8       0x20 d:/Downloads/RFS/DE10_Nano_WiFi_Web_Server/software/ewaff_server_bsp/\libhal_bsp.a(altera_avalon_uart_init.o)
 .debug_aranges
                0x00000000000014e8       0x20 d:/Downloads/RFS/DE10_Nano_WiFi_Web_Server/software/ewaff_server_bsp/\libhal_bsp.a(altera_avalon_uart_read.o)
 .debug_aranges
                0x0000000000001508       0x20 d:/Downloads/RFS/DE10_Nano_WiFi_Web_Server/software/ewaff_server_bsp/\libhal_bsp.a(altera_avalon_uart_write.o)
 .debug_aranges
                0x0000000000001528       0x20 d:/Downloads/RFS/DE10_Nano_WiFi_Web_Server/software/ewaff_server_bsp/\libhal_bsp.a(alt_alarm_start.o)
 .debug_aranges
                0x0000000000001548       0x20 d:/Downloads/RFS/DE10_Nano_WiFi_Web_Server/software/ewaff_server_bsp/\libhal_bsp.a(alt_busy_sleep.o)
 .debug_aranges
                0x0000000000001568       0x20 d:/Downloads/RFS/DE10_Nano_WiFi_Web_Server/software/ewaff_server_bsp/\libhal_bsp.a(alt_dcache_flush_all.o)
 .debug_aranges
                0x0000000000001588       0x20 d:/Downloads/RFS/DE10_Nano_WiFi_Web_Server/software/ewaff_server_bsp/\libhal_bsp.a(alt_dev_llist_insert.o)
 .debug_aranges
                0x00000000000015a8       0x20 d:/Downloads/RFS/DE10_Nano_WiFi_Web_Server/software/ewaff_server_bsp/\libhal_bsp.a(alt_do_ctors.o)
 .debug_aranges
                0x00000000000015c8       0x20 d:/Downloads/RFS/DE10_Nano_WiFi_Web_Server/software/ewaff_server_bsp/\libhal_bsp.a(alt_do_dtors.o)
 .debug_aranges
                0x00000000000015e8       0x20 d:/Downloads/RFS/DE10_Nano_WiFi_Web_Server/software/ewaff_server_bsp/\libhal_bsp.a(alt_find_dev.o)
 .debug_aranges
                0x0000000000001608       0x20 d:/Downloads/RFS/DE10_Nano_WiFi_Web_Server/software/ewaff_server_bsp/\libhal_bsp.a(alt_find_file.o)
 .debug_aranges
                0x0000000000001628       0x20 d:/Downloads/RFS/DE10_Nano_WiFi_Web_Server/software/ewaff_server_bsp/\libhal_bsp.a(alt_get_fd.o)
 .debug_aranges
                0x0000000000001648       0x20 d:/Downloads/RFS/DE10_Nano_WiFi_Web_Server/software/ewaff_server_bsp/\libhal_bsp.a(alt_icache_flush_all.o)
 .debug_aranges
                0x0000000000001668       0x20 d:/Downloads/RFS/DE10_Nano_WiFi_Web_Server/software/ewaff_server_bsp/\libhal_bsp.a(alt_iic.o)
 .debug_aranges
                0x0000000000001688       0x20 d:/Downloads/RFS/DE10_Nano_WiFi_Web_Server/software/ewaff_server_bsp/\libhal_bsp.a(alt_iic_isr_register.o)
 .debug_aranges
                0x00000000000016a8       0x20 d:/Downloads/RFS/DE10_Nano_WiFi_Web_Server/software/ewaff_server_bsp/\libhal_bsp.a(alt_io_redirect.o)
 .debug_aranges
                0x00000000000016c8       0x30 d:/Downloads/RFS/DE10_Nano_WiFi_Web_Server/software/ewaff_server_bsp/\libhal_bsp.a(alt_irq_entry.o)
 .debug_aranges
                0x00000000000016f8       0x20 d:/Downloads/RFS/DE10_Nano_WiFi_Web_Server/software/ewaff_server_bsp/\libhal_bsp.a(alt_irq_handler.o)
 .debug_aranges
                0x0000000000001718       0x18 d:/Downloads/RFS/DE10_Nano_WiFi_Web_Server/software/ewaff_server_bsp/\libhal_bsp.a(alt_irq_vars.o)
 .debug_aranges
                0x0000000000001730       0x20 d:/Downloads/RFS/DE10_Nano_WiFi_Web_Server/software/ewaff_server_bsp/\libhal_bsp.a(alt_tick.o)
 .debug_aranges
                0x0000000000001750       0x20 d:/Downloads/RFS/DE10_Nano_WiFi_Web_Server/software/ewaff_server_bsp/\libhal_bsp.a(altera_nios2_gen2_irq.o)
 .debug_aranges
                0x0000000000001770       0x38 d:/Downloads/RFS/DE10_Nano_WiFi_Web_Server/software/ewaff_server_bsp/\libhal_bsp.a(alt_exception_entry.o)
 .debug_aranges
                0x00000000000017a8       0x20 d:/Downloads/RFS/DE10_Nano_WiFi_Web_Server/software/ewaff_server_bsp/\libhal_bsp.a(alt_icache_flush.o)
 .debug_aranges
                0x00000000000017c8       0x28 d:/Downloads/RFS/DE10_Nano_WiFi_Web_Server/software/ewaff_server_bsp/\libhal_bsp.a(alt_instruction_exception_entry.o)
 .debug_aranges
                0x00000000000017f0       0x20 d:/intel_fpga/nios2eds/bin/gnu/h-x86_64-mingw32/bin/../lib/gcc/nios2-elf/10.3.1/../../../../../H-x86_64-mingw32/nios2-elf/lib\libc.a(lib_a-atexit.o)
 .debug_aranges
                0x0000000000001810       0x20 d:/intel_fpga/nios2eds/bin/gnu/h-x86_64-mingw32/bin/../lib/gcc/nios2-elf/10.3.1/../../../../../H-x86_64-mingw32/nios2-elf/lib\libc.a(lib_a-exit.o)
 .debug_aranges
                0x0000000000001830       0x20 d:/intel_fpga/nios2eds/bin/gnu/h-x86_64-mingw32/bin/../lib/gcc/nios2-elf/10.3.1/../../../../../H-x86_64-mingw32/nios2-elf/lib\libc.a(lib_a-__atexit.o)
 .debug_aranges
                0x0000000000001850       0x20 d:/intel_fpga/nios2eds/bin/gnu/h-x86_64-mingw32/bin/../lib/gcc/nios2-elf/10.3.1/../../../../../H-x86_64-mingw32/nios2-elf/lib\libc.a(lib_a-__call_atexit.o)

.debug_pubnames
 *(.debug_pubnames)

.debug_info     0x0000000000000000    0x4c03c
 *(.debug_info .gnu.linkonce.wi.*)
 .debug_info    0x0000000000000000       0x22 d:/Downloads/RFS/DE10_Nano_WiFi_Web_Server/software/ewaff_server_bsp//obj/HAL/src/crt0.o
 .debug_info    0x0000000000000022     0x10b0 obj/default/esp8266.o
 .debug_info    0x00000000000010d2       0x90 obj/default/main.o
 .debug_info    0x0000000000001162      0x1cd d:/intel_fpga/nios2eds/bin/gnu/h-x86_64-mingw32/bin/../lib/gcc/nios2-elf/10.3.1\libgcc.a(fixsfsi.o)
 .debug_info    0x000000000000132f      0xbf6 d:/intel_fpga/nios2eds/bin/gnu/h-x86_64-mingw32/bin/../lib/gcc/nios2-elf/10.3.1/../../../../../H-x86_64-mingw32/nios2-elf/lib\libc.a(lib_a-fflush.o)
 .debug_info    0x0000000000001f25      0xa4e d:/intel_fpga/nios2eds/bin/gnu/h-x86_64-mingw32/bin/../lib/gcc/nios2-elf/10.3.1/../../../../../H-x86_64-mingw32/nios2-elf/lib\libc.a(lib_a-fgetc.o)
 .debug_info    0x0000000000002973      0xb07 d:/intel_fpga/nios2eds/bin/gnu/h-x86_64-mingw32/bin/../lib/gcc/nios2-elf/10.3.1/../../../../../H-x86_64-mingw32/nios2-elf/lib\libc.a(lib_a-fgets.o)
 .debug_info    0x000000000000347a      0x982 d:/intel_fpga/nios2eds/bin/gnu/h-x86_64-mingw32/bin/../lib/gcc/nios2-elf/10.3.1/../../../../../H-x86_64-mingw32/nios2-elf/lib\libc.a(lib_a-fileno.o)
 .debug_info    0x0000000000003dfc      0xee9 d:/intel_fpga/nios2eds/bin/gnu/h-x86_64-mingw32/bin/../lib/gcc/nios2-elf/10.3.1/../../../../../H-x86_64-mingw32/nios2-elf/lib\libc.a(lib_a-findfp.o)
 .debug_info    0x0000000000004ce5      0xae4 d:/intel_fpga/nios2eds/bin/gnu/h-x86_64-mingw32/bin/../lib/gcc/nios2-elf/10.3.1/../../../../../H-x86_64-mingw32/nios2-elf/lib\libc.a(lib_a-fopen.o)
 .debug_info    0x00000000000057c9      0xa5d d:/intel_fpga/nios2eds/bin/gnu/h-x86_64-mingw32/bin/../lib/gcc/nios2-elf/10.3.1/../../../../../H-x86_64-mingw32/nios2-elf/lib\libc.a(lib_a-fprintf.o)
 .debug_info    0x0000000000006226      0xced d:/intel_fpga/nios2eds/bin/gnu/h-x86_64-mingw32/bin/../lib/gcc/nios2-elf/10.3.1/../../../../../H-x86_64-mingw32/nios2-elf/lib\libc.a(lib_a-freer.o)
 .debug_info    0x0000000000006f13      0xa81 d:/intel_fpga/nios2eds/bin/gnu/h-x86_64-mingw32/bin/../lib/gcc/nios2-elf/10.3.1/../../../../../H-x86_64-mingw32/nios2-elf/lib\libc.a(lib_a-fseek.o)
 .debug_info    0x0000000000007994      0xe5e d:/intel_fpga/nios2eds/bin/gnu/h-x86_64-mingw32/bin/../lib/gcc/nios2-elf/10.3.1/../../../../../H-x86_64-mingw32/nios2-elf/lib\libc.a(lib_a-fseeko.o)
 .debug_info    0x00000000000087f2      0xb8a d:/intel_fpga/nios2eds/bin/gnu/h-x86_64-mingw32/bin/../lib/gcc/nios2-elf/10.3.1/../../../../../H-x86_64-mingw32/nios2-elf/lib\libc.a(lib_a-fstatr.o)
 .debug_info    0x000000000000937c      0xa6d d:/intel_fpga/nios2eds/bin/gnu/h-x86_64-mingw32/bin/../lib/gcc/nios2-elf/10.3.1/../../../../../H-x86_64-mingw32/nios2-elf/lib\libc.a(lib_a-fwalk.o)
 .debug_info    0x0000000000009de9      0x931 d:/intel_fpga/nios2eds/bin/gnu/h-x86_64-mingw32/bin/../lib/gcc/nios2-elf/10.3.1/../../../../../H-x86_64-mingw32/nios2-elf/lib\libc.a(lib_a-impure.o)
 .debug_info    0x000000000000a71a       0x84 d:/intel_fpga/nios2eds/bin/gnu/h-x86_64-mingw32/bin/../lib/gcc/nios2-elf/10.3.1/../../../../../H-x86_64-mingw32/nios2-elf/lib\libc.a(lib_a-int_errno.o)
 .debug_info    0x000000000000a79e      0xe0b d:/intel_fpga/nios2eds/bin/gnu/h-x86_64-mingw32/bin/../lib/gcc/nios2-elf/10.3.1/../../../../../H-x86_64-mingw32/nios2-elf/lib\libc.a(lib_a-makebuf.o)
 .debug_info    0x000000000000b5a9      0x99f d:/intel_fpga/nios2eds/bin/gnu/h-x86_64-mingw32/bin/../lib/gcc/nios2-elf/10.3.1/../../../../../H-x86_64-mingw32/nios2-elf/lib\libc.a(lib_a-malloc.o)
 .debug_info    0x000000000000bf48      0xe9a d:/intel_fpga/nios2eds/bin/gnu/h-x86_64-mingw32/bin/../lib/gcc/nios2-elf/10.3.1/../../../../../H-x86_64-mingw32/nios2-elf/lib\libc.a(lib_a-mallocr.o)
 .debug_info    0x000000000000cde2      0x155 d:/intel_fpga/nios2eds/bin/gnu/h-x86_64-mingw32/bin/../lib/gcc/nios2-elf/10.3.1/../../../../../H-x86_64-mingw32/nios2-elf/lib\libc.a(lib_a-memchr.o)
 .debug_info    0x000000000000cf37      0x162 d:/intel_fpga/nios2eds/bin/gnu/h-x86_64-mingw32/bin/../lib/gcc/nios2-elf/10.3.1/../../../../../H-x86_64-mingw32/nios2-elf/lib\libc.a(lib_a-memcpy.o)
 .debug_info    0x000000000000d099      0x13d d:/intel_fpga/nios2eds/bin/gnu/h-x86_64-mingw32/bin/../lib/gcc/nios2-elf/10.3.1/../../../../../H-x86_64-mingw32/nios2-elf/lib\libc.a(lib_a-memset.o)
 .debug_info    0x000000000000d1d6      0x9a8 d:/intel_fpga/nios2eds/bin/gnu/h-x86_64-mingw32/bin/../lib/gcc/nios2-elf/10.3.1/../../../../../H-x86_64-mingw32/nios2-elf/lib\libc.a(lib_a-openr.o)
 .debug_info    0x000000000000db7e      0xa3e d:/intel_fpga/nios2eds/bin/gnu/h-x86_64-mingw32/bin/../lib/gcc/nios2-elf/10.3.1/../../../../../H-x86_64-mingw32/nios2-elf/lib\libc.a(lib_a-printf.o)
 .debug_info    0x000000000000e5bc      0xae3 d:/intel_fpga/nios2eds/bin/gnu/h-x86_64-mingw32/bin/../lib/gcc/nios2-elf/10.3.1/../../../../../H-x86_64-mingw32/nios2-elf/lib\libc.a(lib_a-puts.o)
 .debug_info    0x000000000000f09f      0xaaf d:/intel_fpga/nios2eds/bin/gnu/h-x86_64-mingw32/bin/../lib/gcc/nios2-elf/10.3.1/../../../../../H-x86_64-mingw32/nios2-elf/lib\libc.a(lib_a-refill.o)
 .debug_info    0x000000000000fb4e      0xa64 d:/intel_fpga/nios2eds/bin/gnu/h-x86_64-mingw32/bin/../lib/gcc/nios2-elf/10.3.1/../../../../../H-x86_64-mingw32/nios2-elf/lib\libc.a(lib_a-rget.o)
 .debug_info    0x00000000000105b2      0x994 d:/intel_fpga/nios2eds/bin/gnu/h-x86_64-mingw32/bin/../lib/gcc/nios2-elf/10.3.1/../../../../../H-x86_64-mingw32/nios2-elf/lib\libc.a(lib_a-sbrkr.o)
 .debug_info    0x0000000000010f46      0xabb d:/intel_fpga/nios2eds/bin/gnu/h-x86_64-mingw32/bin/../lib/gcc/nios2-elf/10.3.1/../../../../../H-x86_64-mingw32/nios2-elf/lib\libc.a(lib_a-sprintf.o)
 .debug_info    0x0000000000011a01      0xac2 d:/intel_fpga/nios2eds/bin/gnu/h-x86_64-mingw32/bin/../lib/gcc/nios2-elf/10.3.1/../../../../../H-x86_64-mingw32/nios2-elf/lib\libc.a(lib_a-sscanf.o)
 .debug_info    0x00000000000124c3      0xc23 d:/intel_fpga/nios2eds/bin/gnu/h-x86_64-mingw32/bin/../lib/gcc/nios2-elf/10.3.1/../../../../../H-x86_64-mingw32/nios2-elf/lib\libc.a(lib_a-stdio.o)
 .debug_info    0x00000000000130e6      0x125 d:/intel_fpga/nios2eds/bin/gnu/h-x86_64-mingw32/bin/../lib/gcc/nios2-elf/10.3.1/../../../../../H-x86_64-mingw32/nios2-elf/lib\libc.a(lib_a-strcat.o)
 .debug_info    0x000000000001320b      0x13a d:/intel_fpga/nios2eds/bin/gnu/h-x86_64-mingw32/bin/../lib/gcc/nios2-elf/10.3.1/../../../../../H-x86_64-mingw32/nios2-elf/lib\libc.a(lib_a-strchr.o)
 .debug_info    0x0000000000013345       0xf2 d:/intel_fpga/nios2eds/bin/gnu/h-x86_64-mingw32/bin/../lib/gcc/nios2-elf/10.3.1/../../../../../H-x86_64-mingw32/nios2-elf/lib\libc.a(lib_a-strcmp.o)
 .debug_info    0x0000000000013437      0x12f d:/intel_fpga/nios2eds/bin/gnu/h-x86_64-mingw32/bin/../lib/gcc/nios2-elf/10.3.1/../../../../../H-x86_64-mingw32/nios2-elf/lib\libc.a(lib_a-strcpy.o)
 .debug_info    0x0000000000013566       0xee d:/intel_fpga/nios2eds/bin/gnu/h-x86_64-mingw32/bin/../lib/gcc/nios2-elf/10.3.1/../../../../../H-x86_64-mingw32/nios2-elf/lib\libc.a(lib_a-strlen.o)
 .debug_info    0x0000000000013654      0x74f d:/intel_fpga/nios2eds/bin/gnu/h-x86_64-mingw32/bin/../lib/gcc/nios2-elf/10.3.1/../../../../../H-x86_64-mingw32/nios2-elf/lib\libc.a(lib_a-strstr.o)
 .debug_info    0x0000000000013da3     0x1966 d:/intel_fpga/nios2eds/bin/gnu/h-x86_64-mingw32/bin/../lib/gcc/nios2-elf/10.3.1/../../../../../H-x86_64-mingw32/nios2-elf/lib\libc.a(lib_a-svfprintf.o)
 .debug_info    0x0000000000015709     0x16cb d:/intel_fpga/nios2eds/bin/gnu/h-x86_64-mingw32/bin/../lib/gcc/nios2-elf/10.3.1/../../../../../H-x86_64-mingw32/nios2-elf/lib\libc.a(lib_a-svfscanf.o)
 .debug_info    0x0000000000016dd4     0x1b5a d:/intel_fpga/nios2eds/bin/gnu/h-x86_64-mingw32/bin/../lib/gcc/nios2-elf/10.3.1/../../../../../H-x86_64-mingw32/nios2-elf/lib\libc.a(lib_a-vfprintf.o)
 .debug_info    0x000000000001892e      0x9c6 d:/intel_fpga/nios2eds/bin/gnu/h-x86_64-mingw32/bin/../lib/gcc/nios2-elf/10.3.1/../../../../../H-x86_64-mingw32/nios2-elf/lib\libc.a(lib_a-writer.o)
 .debug_info    0x00000000000192f4      0x9c9 d:/intel_fpga/nios2eds/bin/gnu/h-x86_64-mingw32/bin/../lib/gcc/nios2-elf/10.3.1/../../../../../H-x86_64-mingw32/nios2-elf/lib\libc.a(lib_a-wsetup.o)
 .debug_info    0x0000000000019cbd      0x971 d:/intel_fpga/nios2eds/bin/gnu/h-x86_64-mingw32/bin/../lib/gcc/nios2-elf/10.3.1/../../../../../H-x86_64-mingw32/nios2-elf/lib\libc.a(closer.o)
 .debug_info    0x000000000001a62e       0xec d:/intel_fpga/nios2eds/bin/gnu/h-x86_64-mingw32/bin/../lib/gcc/nios2-elf/10.3.1/../../../../../H-x86_64-mingw32/nios2-elf/lib\libc.a(lib_a-ctype_.o)
 .debug_info    0x000000000001a71a     0x1a40 d:/intel_fpga/nios2eds/bin/gnu/h-x86_64-mingw32/bin/../lib/gcc/nios2-elf/10.3.1/../../../../../H-x86_64-mingw32/nios2-elf/lib\libc.a(lib_a-dtoa.o)
 .debug_info    0x000000000001c15a      0xb4b d:/intel_fpga/nios2eds/bin/gnu/h-x86_64-mingw32/bin/../lib/gcc/nios2-elf/10.3.1/../../../../../H-x86_64-mingw32/nios2-elf/lib\libc.a(lib_a-fclose.o)
 .debug_info    0x000000000001cca5      0x981 d:/intel_fpga/nios2eds/bin/gnu/h-x86_64-mingw32/bin/../lib/gcc/nios2-elf/10.3.1/../../../../../H-x86_64-mingw32/nios2-elf/lib\libc.a(lib_a-flags.o)
 .debug_info    0x000000000001d626      0xca0 d:/intel_fpga/nios2eds/bin/gnu/h-x86_64-mingw32/bin/../lib/gcc/nios2-elf/10.3.1/../../../../../H-x86_64-mingw32/nios2-elf/lib\libc.a(lib_a-fvwrite.o)
 .debug_info    0x000000000001e2c6      0x971 d:/intel_fpga/nios2eds/bin/gnu/h-x86_64-mingw32/bin/../lib/gcc/nios2-elf/10.3.1/../../../../../H-x86_64-mingw32/nios2-elf/lib\libc.a(lib_a-isattyr.o)
 .debug_info    0x000000000001ec37       0xc8 d:/intel_fpga/nios2eds/bin/gnu/h-x86_64-mingw32/bin/../lib/gcc/nios2-elf/10.3.1/../../../../../H-x86_64-mingw32/nios2-elf/lib\libc.a(lib_a-iswspace.o)
 .debug_info    0x000000000001ecff      0xbbb d:/intel_fpga/nios2eds/bin/gnu/h-x86_64-mingw32/bin/../lib/gcc/nios2-elf/10.3.1/../../../../../H-x86_64-mingw32/nios2-elf/lib\libc.a(lib_a-iswspace_l.o)
 .debug_info    0x000000000001f8ba      0xd9f d:/intel_fpga/nios2eds/bin/gnu/h-x86_64-mingw32/bin/../lib/gcc/nios2-elf/10.3.1/../../../../../H-x86_64-mingw32/nios2-elf/lib\libc.a(lib_a-locale.o)
 .debug_info    0x0000000000020659      0xc39 d:/intel_fpga/nios2eds/bin/gnu/h-x86_64-mingw32/bin/../lib/gcc/nios2-elf/10.3.1/../../../../../H-x86_64-mingw32/nios2-elf/lib\libc.a(lib_a-localeconv.o)
 .debug_info    0x0000000000021292      0x9a7 d:/intel_fpga/nios2eds/bin/gnu/h-x86_64-mingw32/bin/../lib/gcc/nios2-elf/10.3.1/../../../../../H-x86_64-mingw32/nios2-elf/lib\libc.a(lib_a-lseekr.o)
 .debug_info    0x0000000000021c39      0xd67 d:/intel_fpga/nios2eds/bin/gnu/h-x86_64-mingw32/bin/../lib/gcc/nios2-elf/10.3.1/../../../../../H-x86_64-mingw32/nios2-elf/lib\libc.a(lib_a-mbrtowc.o)
 .debug_info    0x00000000000229a0      0xcc5 d:/intel_fpga/nios2eds/bin/gnu/h-x86_64-mingw32/bin/../lib/gcc/nios2-elf/10.3.1/../../../../../H-x86_64-mingw32/nios2-elf/lib\libc.a(lib_a-mbtowc_r.o)
 .debug_info    0x0000000000023665      0x138 d:/intel_fpga/nios2eds/bin/gnu/h-x86_64-mingw32/bin/../lib/gcc/nios2-elf/10.3.1/../../../../../H-x86_64-mingw32/nios2-elf/lib\libc.a(lib_a-memcmp.o)
 .debug_info    0x000000000002379d      0x158 d:/intel_fpga/nios2eds/bin/gnu/h-x86_64-mingw32/bin/../lib/gcc/nios2-elf/10.3.1/../../../../../H-x86_64-mingw32/nios2-elf/lib\libc.a(lib_a-memmove.o)
 .debug_info    0x00000000000238f5     0x2139 d:/intel_fpga/nios2eds/bin/gnu/h-x86_64-mingw32/bin/../lib/gcc/nios2-elf/10.3.1/../../../../../H-x86_64-mingw32/nios2-elf/lib\libc.a(lib_a-mprec.o)
 .debug_info    0x0000000000025a2e      0x9bf d:/intel_fpga/nios2eds/bin/gnu/h-x86_64-mingw32/bin/../lib/gcc/nios2-elf/10.3.1/../../../../../H-x86_64-mingw32/nios2-elf/lib\libc.a(lib_a-readr.o)
 .debug_info    0x00000000000263ed      0xd8d d:/intel_fpga/nios2eds/bin/gnu/h-x86_64-mingw32/bin/../lib/gcc/nios2-elf/10.3.1/../../../../../H-x86_64-mingw32/nios2-elf/lib\libc.a(lib_a-reallocr.o)
 .debug_info    0x000000000002717a      0x17e d:/intel_fpga/nios2eds/bin/gnu/h-x86_64-mingw32/bin/../lib/gcc/nios2-elf/10.3.1/../../../../../H-x86_64-mingw32/nios2-elf/lib\libc.a(lib_a-sccl.o)
 .debug_info    0x00000000000272f8       0xe2 d:/intel_fpga/nios2eds/bin/gnu/h-x86_64-mingw32/bin/../lib/gcc/nios2-elf/10.3.1/../../../../../H-x86_64-mingw32/nios2-elf/lib\libc.a(lib_a-strnlen.o)
 .debug_info    0x00000000000273da     0x1e71 d:/intel_fpga/nios2eds/bin/gnu/h-x86_64-mingw32/bin/../lib/gcc/nios2-elf/10.3.1/../../../../../H-x86_64-mingw32/nios2-elf/lib\libc.a(lib_a-strtod.o)
 .debug_info    0x000000000002924b     0x10ce d:/intel_fpga/nios2eds/bin/gnu/h-x86_64-mingw32/bin/../lib/gcc/nios2-elf/10.3.1/../../../../../H-x86_64-mingw32/nios2-elf/lib\libc.a(lib_a-strtol.o)
 .debug_info    0x000000000002a319      0xf41 d:/intel_fpga/nios2eds/bin/gnu/h-x86_64-mingw32/bin/../lib/gcc/nios2-elf/10.3.1/../../../../../H-x86_64-mingw32/nios2-elf/lib\libc.a(lib_a-strtoll.o)
 .debug_info    0x000000000002b25a      0xf3f d:/intel_fpga/nios2eds/bin/gnu/h-x86_64-mingw32/bin/../lib/gcc/nios2-elf/10.3.1/../../../../../H-x86_64-mingw32/nios2-elf/lib\libc.a(lib_a-strtoul.o)
 .debug_info    0x000000000002c199      0xf53 d:/intel_fpga/nios2eds/bin/gnu/h-x86_64-mingw32/bin/../lib/gcc/nios2-elf/10.3.1/../../../../../H-x86_64-mingw32/nios2-elf/lib\libc.a(lib_a-strtoull.o)
 .debug_info    0x000000000002d0ec     0x1366 d:/intel_fpga/nios2eds/bin/gnu/h-x86_64-mingw32/bin/../lib/gcc/nios2-elf/10.3.1/../../../../../H-x86_64-mingw32/nios2-elf/lib\libc.a(lib_a-svfiprintf.o)
 .debug_info    0x000000000002e452     0x1afc d:/intel_fpga/nios2eds/bin/gnu/h-x86_64-mingw32/bin/../lib/gcc/nios2-elf/10.3.1/../../../../../H-x86_64-mingw32/nios2-elf/lib\libc.a(lib_a-svfiscanf.o)
 .debug_info    0x000000000002ff4e      0xb14 d:/intel_fpga/nios2eds/bin/gnu/h-x86_64-mingw32/bin/../lib/gcc/nios2-elf/10.3.1/../../../../../H-x86_64-mingw32/nios2-elf/lib\libc.a(lib_a-ungetc.o)
 .debug_info    0x0000000000030a62     0x1a05 d:/intel_fpga/nios2eds/bin/gnu/h-x86_64-mingw32/bin/../lib/gcc/nios2-elf/10.3.1/../../../../../H-x86_64-mingw32/nios2-elf/lib\libc.a(lib_a-vfiprintf.o)
 .debug_info    0x0000000000032467      0xc81 d:/intel_fpga/nios2eds/bin/gnu/h-x86_64-mingw32/bin/../lib/gcc/nios2-elf/10.3.1/../../../../../H-x86_64-mingw32/nios2-elf/lib\libc.a(lib_a-wctomb_r.o)
 .debug_info    0x00000000000330e8      0xa1e d:/intel_fpga/nios2eds/bin/gnu/h-x86_64-mingw32/bin/../lib/gcc/nios2-elf/10.3.1/../../../../../H-x86_64-mingw32/nios2-elf/lib\libc.a(lib_a-assert.o)
 .debug_info    0x0000000000033b06      0xa80 d:/intel_fpga/nios2eds/bin/gnu/h-x86_64-mingw32/bin/../lib/gcc/nios2-elf/10.3.1/../../../../../H-x86_64-mingw32/nios2-elf/lib\libc.a(lib_a-callocr.o)
 .debug_info    0x0000000000034586      0x91b d:/intel_fpga/nios2eds/bin/gnu/h-x86_64-mingw32/bin/../lib/gcc/nios2-elf/10.3.1/../../../../../H-x86_64-mingw32/nios2-elf/lib\libc.a(lib_a-errno.o)
 .debug_info    0x0000000000034ea1      0xa69 d:/intel_fpga/nios2eds/bin/gnu/h-x86_64-mingw32/bin/../lib/gcc/nios2-elf/10.3.1/../../../../../H-x86_64-mingw32/nios2-elf/lib\libc.a(lib_a-fiprintf.o)
 .debug_info    0x000000000003590a      0xbb1 d:/intel_fpga/nios2eds/bin/gnu/h-x86_64-mingw32/bin/../lib/gcc/nios2-elf/10.3.1/../../../../../H-x86_64-mingw32/nios2-elf/lib\libc.a(lib_a-fputwc.o)
 .debug_info    0x00000000000364bb     0x148d d:/intel_fpga/nios2eds/bin/gnu/h-x86_64-mingw32/bin/../lib/gcc/nios2-elf/10.3.1/../../../../../H-x86_64-mingw32/nios2-elf/lib\libc.a(lib_a-gdtoa-gethex.o)
 .debug_info    0x0000000000037948      0x40c d:/intel_fpga/nios2eds/bin/gnu/h-x86_64-mingw32/bin/../lib/gcc/nios2-elf/10.3.1/../../../../../H-x86_64-mingw32/nios2-elf/lib\libc.a(lib_a-gdtoa-hexnan.o)
 .debug_info    0x0000000000037d54      0xc47 d:/intel_fpga/nios2eds/bin/gnu/h-x86_64-mingw32/bin/../lib/gcc/nios2-elf/10.3.1/../../../../../H-x86_64-mingw32/nios2-elf/lib\libc.a(lib_a-lnumeric.o)
 .debug_info    0x000000000003899b      0x110 d:/intel_fpga/nios2eds/bin/gnu/h-x86_64-mingw32/bin/../lib/gcc/nios2-elf/10.3.1/../../../../../H-x86_64-mingw32/nios2-elf/lib\libc.a(lib_a-strncmp.o)
 .debug_info    0x0000000000038aab      0x9dc d:/intel_fpga/nios2eds/bin/gnu/h-x86_64-mingw32/bin/../lib/gcc/nios2-elf/10.3.1/../../../../../H-x86_64-mingw32/nios2-elf/lib\libc.a(lib_a-vfiprintfr_1.o)
 .debug_info    0x0000000000039487      0xa66 d:/intel_fpga/nios2eds/bin/gnu/h-x86_64-mingw32/bin/../lib/gcc/nios2-elf/10.3.1/../../../../../H-x86_64-mingw32/nios2-elf/lib\libc.a(lib_a-wbuf.o)
 .debug_info    0x0000000000039eed      0xd46 d:/intel_fpga/nios2eds/bin/gnu/h-x86_64-mingw32/bin/../lib/gcc/nios2-elf/10.3.1/../../../../../H-x86_64-mingw32/nios2-elf/lib\libc.a(lib_a-wcrtomb.o)
 .debug_info    0x000000000003ac33       0xcb d:/intel_fpga/nios2eds/bin/gnu/h-x86_64-mingw32/bin/../lib/gcc/nios2-elf/10.3.1/../../../../../H-x86_64-mingw32/nios2-elf/lib\libc.a(lib_a-abort.o)
 .debug_info    0x000000000003acfe      0xfd7 d:/intel_fpga/nios2eds/bin/gnu/h-x86_64-mingw32/bin/../lib/gcc/nios2-elf/10.3.1/../../../../../H-x86_64-mingw32/nios2-elf/lib\libc.a(lib_a-signal.o)
 .debug_info    0x000000000003bcd5      0x9dd d:/intel_fpga/nios2eds/bin/gnu/h-x86_64-mingw32/bin/../lib/gcc/nios2-elf/10.3.1/../../../../../H-x86_64-mingw32/nios2-elf/lib\libc.a(lib_a-signalr.o)
 .debug_info    0x000000000003c6b2      0x22d d:/intel_fpga/nios2eds/bin/gnu/h-x86_64-mingw32/bin/../lib/gcc/nios2-elf/10.3.1\libgcc.a(_muldi3.o)
 .debug_info    0x000000000003c8df      0x11a d:/intel_fpga/nios2eds/bin/gnu/h-x86_64-mingw32/bin/../lib/gcc/nios2-elf/10.3.1\libgcc.a(_fixunsdfsi.o)
 .debug_info    0x000000000003c9f9      0x100 d:/intel_fpga/nios2eds/bin/gnu/h-x86_64-mingw32/bin/../lib/gcc/nios2-elf/10.3.1\libgcc.a(_fixdfdi.o)
 .debug_info    0x000000000003caf9      0x15a d:/intel_fpga/nios2eds/bin/gnu/h-x86_64-mingw32/bin/../lib/gcc/nios2-elf/10.3.1\libgcc.a(_fixunsdfdi.o)
 .debug_info    0x000000000003cc53      0x142 d:/intel_fpga/nios2eds/bin/gnu/h-x86_64-mingw32/bin/../lib/gcc/nios2-elf/10.3.1\libgcc.a(_floatdidf.o)
 .debug_info    0x000000000003cd95      0x916 d:/intel_fpga/nios2eds/bin/gnu/h-x86_64-mingw32/bin/../lib/gcc/nios2-elf/10.3.1\libgcc.a(_udivdi3.o)
 .debug_info    0x000000000003d6ab      0x98e d:/intel_fpga/nios2eds/bin/gnu/h-x86_64-mingw32/bin/../lib/gcc/nios2-elf/10.3.1\libgcc.a(_umoddi3.o)
 .debug_info    0x000000000003e039      0x368 d:/intel_fpga/nios2eds/bin/gnu/h-x86_64-mingw32/bin/../lib/gcc/nios2-elf/10.3.1\libgcc.a(lib2-divmod.o)
 .debug_info    0x000000000003e3a1      0x23e d:/intel_fpga/nios2eds/bin/gnu/h-x86_64-mingw32/bin/../lib/gcc/nios2-elf/10.3.1\libgcc.a(lesf2.o)
 .debug_info    0x000000000003e5df      0x21b d:/intel_fpga/nios2eds/bin/gnu/h-x86_64-mingw32/bin/../lib/gcc/nios2-elf/10.3.1\libgcc.a(unordsf2.o)
 .debug_info    0x000000000003e7fa      0x614 d:/intel_fpga/nios2eds/bin/gnu/h-x86_64-mingw32/bin/../lib/gcc/nios2-elf/10.3.1\libgcc.a(adddf3.o)
 .debug_info    0x000000000003ee0e      0x87b d:/intel_fpga/nios2eds/bin/gnu/h-x86_64-mingw32/bin/../lib/gcc/nios2-elf/10.3.1\libgcc.a(divdf3.o)
 .debug_info    0x000000000003f689      0x273 d:/intel_fpga/nios2eds/bin/gnu/h-x86_64-mingw32/bin/../lib/gcc/nios2-elf/10.3.1\libgcc.a(eqdf2.o)
 .debug_info    0x000000000003f8fc      0x274 d:/intel_fpga/nios2eds/bin/gnu/h-x86_64-mingw32/bin/../lib/gcc/nios2-elf/10.3.1\libgcc.a(gedf2.o)
 .debug_info    0x000000000003fb70      0x274 d:/intel_fpga/nios2eds/bin/gnu/h-x86_64-mingw32/bin/../lib/gcc/nios2-elf/10.3.1\libgcc.a(ledf2.o)
 .debug_info    0x000000000003fde4      0x841 d:/intel_fpga/nios2eds/bin/gnu/h-x86_64-mingw32/bin/../lib/gcc/nios2-elf/10.3.1\libgcc.a(muldf3.o)
 .debug_info    0x0000000000040625      0x614 d:/intel_fpga/nios2eds/bin/gnu/h-x86_64-mingw32/bin/../lib/gcc/nios2-elf/10.3.1\libgcc.a(subdf3.o)
 .debug_info    0x0000000000040c39      0x24b d:/intel_fpga/nios2eds/bin/gnu/h-x86_64-mingw32/bin/../lib/gcc/nios2-elf/10.3.1\libgcc.a(unorddf2.o)
 .debug_info    0x0000000000040e84      0x1f7 d:/intel_fpga/nios2eds/bin/gnu/h-x86_64-mingw32/bin/../lib/gcc/nios2-elf/10.3.1\libgcc.a(fixdfsi.o)
 .debug_info    0x000000000004107b      0x2bf d:/intel_fpga/nios2eds/bin/gnu/h-x86_64-mingw32/bin/../lib/gcc/nios2-elf/10.3.1\libgcc.a(floatsidf.o)
 .debug_info    0x000000000004133a      0x2b2 d:/intel_fpga/nios2eds/bin/gnu/h-x86_64-mingw32/bin/../lib/gcc/nios2-elf/10.3.1\libgcc.a(floatunsidf.o)
 .debug_info    0x00000000000415ec      0x2c2 d:/intel_fpga/nios2eds/bin/gnu/h-x86_64-mingw32/bin/../lib/gcc/nios2-elf/10.3.1\libgcc.a(truncdfsf2.o)
 .debug_info    0x00000000000418ae       0xc2 d:/intel_fpga/nios2eds/bin/gnu/h-x86_64-mingw32/bin/../lib/gcc/nios2-elf/10.3.1\libgcc.a(_clz.o)
 .debug_info    0x0000000000041970      0x133 d:/intel_fpga/nios2eds/bin/gnu/h-x86_64-mingw32/bin/../lib/gcc/nios2-elf/10.3.1\libgcc.a(_clzsi2.o)
 .debug_info    0x0000000000041aa3      0x32c d:/Downloads/RFS/DE10_Nano_WiFi_Web_Server/software/ewaff_server_bsp/\libhal_bsp.a(alt_close.o)
 .debug_info    0x0000000000041dcf      0x57d d:/Downloads/RFS/DE10_Nano_WiFi_Web_Server/software/ewaff_server_bsp/\libhal_bsp.a(alt_dev.o)
 .debug_info    0x000000000004234c       0x9d d:/Downloads/RFS/DE10_Nano_WiFi_Web_Server/software/ewaff_server_bsp/\libhal_bsp.a(alt_errno.o)
 .debug_info    0x00000000000423e9       0xe1 d:/Downloads/RFS/DE10_Nano_WiFi_Web_Server/software/ewaff_server_bsp/\libhal_bsp.a(alt_exit.o)
 .debug_info    0x00000000000424ca      0x574 d:/Downloads/RFS/DE10_Nano_WiFi_Web_Server/software/ewaff_server_bsp/\libhal_bsp.a(alt_fcntl.o)
 .debug_info    0x0000000000042a3e      0x52a d:/Downloads/RFS/DE10_Nano_WiFi_Web_Server/software/ewaff_server_bsp/\libhal_bsp.a(alt_fstat.o)
 .debug_info    0x0000000000042f68       0x43 d:/Downloads/RFS/DE10_Nano_WiFi_Web_Server/software/ewaff_server_bsp/\libhal_bsp.a(alt_getpid.o)
 .debug_info    0x0000000000042fab      0x52d d:/Downloads/RFS/DE10_Nano_WiFi_Web_Server/software/ewaff_server_bsp/\libhal_bsp.a(alt_isatty.o)
 .debug_info    0x00000000000434d8      0x101 d:/Downloads/RFS/DE10_Nano_WiFi_Web_Server/software/ewaff_server_bsp/\libhal_bsp.a(alt_kill.o)
 .debug_info    0x00000000000435d9      0x14d d:/Downloads/RFS/DE10_Nano_WiFi_Web_Server/software/ewaff_server_bsp/\libhal_bsp.a(alt_load.o)
 .debug_info    0x0000000000043726      0x36d d:/Downloads/RFS/DE10_Nano_WiFi_Web_Server/software/ewaff_server_bsp/\libhal_bsp.a(alt_lseek.o)
 .debug_info    0x0000000000043a93       0xef d:/Downloads/RFS/DE10_Nano_WiFi_Web_Server/software/ewaff_server_bsp/\libhal_bsp.a(alt_main.o)
 .debug_info    0x0000000000043b82      0x938 d:/Downloads/RFS/DE10_Nano_WiFi_Web_Server/software/ewaff_server_bsp/\libhal_bsp.a(alt_malloc_lock.o)
 .debug_info    0x00000000000444ba      0x3dd d:/Downloads/RFS/DE10_Nano_WiFi_Web_Server/software/ewaff_server_bsp/\libhal_bsp.a(alt_open.o)
 .debug_info    0x0000000000044897      0x555 d:/Downloads/RFS/DE10_Nano_WiFi_Web_Server/software/ewaff_server_bsp/\libhal_bsp.a(alt_read.o)
 .debug_info    0x0000000000044dec      0x2b9 d:/Downloads/RFS/DE10_Nano_WiFi_Web_Server/software/ewaff_server_bsp/\libhal_bsp.a(alt_release_fd.o)
 .debug_info    0x00000000000450a5      0x19c d:/Downloads/RFS/DE10_Nano_WiFi_Web_Server/software/ewaff_server_bsp/\libhal_bsp.a(alt_sbrk.o)
 .debug_info    0x0000000000045241       0xb7 d:/Downloads/RFS/DE10_Nano_WiFi_Web_Server/software/ewaff_server_bsp/\libhal_bsp.a(alt_usleep.o)
 .debug_info    0x00000000000452f8      0x55c d:/Downloads/RFS/DE10_Nano_WiFi_Web_Server/software/ewaff_server_bsp/\libhal_bsp.a(alt_write.o)
 .debug_info    0x0000000000045854      0x5c4 d:/Downloads/RFS/DE10_Nano_WiFi_Web_Server/software/ewaff_server_bsp/\libhal_bsp.a(alt_sys_init.o)
 .debug_info    0x0000000000045e18      0x53c d:/Downloads/RFS/DE10_Nano_WiFi_Web_Server/software/ewaff_server_bsp/\libhal_bsp.a(altera_avalon_jtag_uart_fd.o)
 .debug_info    0x0000000000046354      0x3cf d:/Downloads/RFS/DE10_Nano_WiFi_Web_Server/software/ewaff_server_bsp/\libhal_bsp.a(altera_avalon_jtag_uart_init.o)
 .debug_info    0x0000000000046723      0x266 d:/Downloads/RFS/DE10_Nano_WiFi_Web_Server/software/ewaff_server_bsp/\libhal_bsp.a(altera_avalon_jtag_uart_ioctl.o)
 .debug_info    0x0000000000046989      0x335 d:/Downloads/RFS/DE10_Nano_WiFi_Web_Server/software/ewaff_server_bsp/\libhal_bsp.a(altera_avalon_jtag_uart_read.o)
 .debug_info    0x0000000000046cbe      0x330 d:/Downloads/RFS/DE10_Nano_WiFi_Web_Server/software/ewaff_server_bsp/\libhal_bsp.a(altera_avalon_jtag_uart_write.o)
 .debug_info    0x0000000000046fee      0x1d5 d:/Downloads/RFS/DE10_Nano_WiFi_Web_Server/software/ewaff_server_bsp/\libhal_bsp.a(altera_avalon_timer_sc.o)
 .debug_info    0x00000000000471c3      0x463 d:/Downloads/RFS/DE10_Nano_WiFi_Web_Server/software/ewaff_server_bsp/\libhal_bsp.a(altera_avalon_uart_fd.o)
 .debug_info    0x0000000000047626      0x2ea d:/Downloads/RFS/DE10_Nano_WiFi_Web_Server/software/ewaff_server_bsp/\libhal_bsp.a(altera_avalon_uart_init.o)
 .debug_info    0x0000000000047910      0x2ec d:/Downloads/RFS/DE10_Nano_WiFi_Web_Server/software/ewaff_server_bsp/\libhal_bsp.a(altera_avalon_uart_read.o)
 .debug_info    0x0000000000047bfc      0x2f1 d:/Downloads/RFS/DE10_Nano_WiFi_Web_Server/software/ewaff_server_bsp/\libhal_bsp.a(altera_avalon_uart_write.o)
 .debug_info    0x0000000000047eed      0x2d0 d:/Downloads/RFS/DE10_Nano_WiFi_Web_Server/software/ewaff_server_bsp/\libhal_bsp.a(alt_alarm_start.o)
 .debug_info    0x00000000000481bd       0xd6 d:/Downloads/RFS/DE10_Nano_WiFi_Web_Server/software/ewaff_server_bsp/\libhal_bsp.a(alt_busy_sleep.o)
 .debug_info    0x0000000000048293       0xa0 d:/Downloads/RFS/DE10_Nano_WiFi_Web_Server/software/ewaff_server_bsp/\libhal_bsp.a(alt_dcache_flush_all.o)
 .debug_info    0x0000000000048333      0x1b0 d:/Downloads/RFS/DE10_Nano_WiFi_Web_Server/software/ewaff_server_bsp/\libhal_bsp.a(alt_dev_llist_insert.o)
 .debug_info    0x00000000000484e3       0x88 d:/Downloads/RFS/DE10_Nano_WiFi_Web_Server/software/ewaff_server_bsp/\libhal_bsp.a(alt_do_ctors.o)
 .debug_info    0x000000000004856b       0x88 d:/Downloads/RFS/DE10_Nano_WiFi_Web_Server/software/ewaff_server_bsp/\libhal_bsp.a(alt_do_dtors.o)
 .debug_info    0x00000000000485f3      0x2ee d:/Downloads/RFS/DE10_Nano_WiFi_Web_Server/software/ewaff_server_bsp/\libhal_bsp.a(alt_find_dev.o)
 .debug_info    0x00000000000488e1      0x2eb d:/Downloads/RFS/DE10_Nano_WiFi_Web_Server/software/ewaff_server_bsp/\libhal_bsp.a(alt_find_file.o)
 .debug_info    0x0000000000048bcc      0x31c d:/Downloads/RFS/DE10_Nano_WiFi_Web_Server/software/ewaff_server_bsp/\libhal_bsp.a(alt_get_fd.o)
 .debug_info    0x0000000000048ee8       0x8c d:/Downloads/RFS/DE10_Nano_WiFi_Web_Server/software/ewaff_server_bsp/\libhal_bsp.a(alt_icache_flush_all.o)
 .debug_info    0x0000000000048f74      0x32c d:/Downloads/RFS/DE10_Nano_WiFi_Web_Server/software/ewaff_server_bsp/\libhal_bsp.a(alt_iic.o)
 .debug_info    0x00000000000492a0      0x1f0 d:/Downloads/RFS/DE10_Nano_WiFi_Web_Server/software/ewaff_server_bsp/\libhal_bsp.a(alt_iic_isr_register.o)
 .debug_info    0x0000000000049490      0x546 d:/Downloads/RFS/DE10_Nano_WiFi_Web_Server/software/ewaff_server_bsp/\libhal_bsp.a(alt_io_redirect.o)
 .debug_info    0x00000000000499d6       0x22 d:/Downloads/RFS/DE10_Nano_WiFi_Web_Server/software/ewaff_server_bsp/\libhal_bsp.a(alt_irq_entry.o)
 .debug_info    0x00000000000499f8      0x175 d:/Downloads/RFS/DE10_Nano_WiFi_Web_Server/software/ewaff_server_bsp/\libhal_bsp.a(alt_irq_handler.o)
 .debug_info    0x0000000000049b6d       0x8b d:/Downloads/RFS/DE10_Nano_WiFi_Web_Server/software/ewaff_server_bsp/\libhal_bsp.a(alt_irq_vars.o)
 .debug_info    0x0000000000049bf8      0x2b0 d:/Downloads/RFS/DE10_Nano_WiFi_Web_Server/software/ewaff_server_bsp/\libhal_bsp.a(alt_tick.o)
 .debug_info    0x0000000000049ea8       0x8c d:/Downloads/RFS/DE10_Nano_WiFi_Web_Server/software/ewaff_server_bsp/\libhal_bsp.a(altera_nios2_gen2_irq.o)
 .debug_info    0x0000000000049f34       0x22 d:/Downloads/RFS/DE10_Nano_WiFi_Web_Server/software/ewaff_server_bsp/\libhal_bsp.a(alt_exception_entry.o)
 .debug_info    0x0000000000049f56       0xdb d:/Downloads/RFS/DE10_Nano_WiFi_Web_Server/software/ewaff_server_bsp/\libhal_bsp.a(alt_icache_flush.o)
 .debug_info    0x000000000004a031      0x1f1 d:/Downloads/RFS/DE10_Nano_WiFi_Web_Server/software/ewaff_server_bsp/\libhal_bsp.a(alt_instruction_exception_entry.o)
 .debug_info    0x000000000004a222      0x100 d:/intel_fpga/nios2eds/bin/gnu/h-x86_64-mingw32/bin/../lib/gcc/nios2-elf/10.3.1/../../../../../H-x86_64-mingw32/nios2-elf/lib\libc.a(lib_a-atexit.o)
 .debug_info    0x000000000004a322      0x970 d:/intel_fpga/nios2eds/bin/gnu/h-x86_64-mingw32/bin/../lib/gcc/nios2-elf/10.3.1/../../../../../H-x86_64-mingw32/nios2-elf/lib\libc.a(lib_a-exit.o)
 .debug_info    0x000000000004ac92      0x9b1 d:/intel_fpga/nios2eds/bin/gnu/h-x86_64-mingw32/bin/../lib/gcc/nios2-elf/10.3.1/../../../../../H-x86_64-mingw32/nios2-elf/lib\libc.a(lib_a-__atexit.o)
 .debug_info    0x000000000004b643      0x9f9 d:/intel_fpga/nios2eds/bin/gnu/h-x86_64-mingw32/bin/../lib/gcc/nios2-elf/10.3.1/../../../../../H-x86_64-mingw32/nios2-elf/lib\libc.a(lib_a-__call_atexit.o)

.debug_abbrev   0x0000000000000000    0x12264
 *(.debug_abbrev)
 .debug_abbrev  0x0000000000000000       0x12 d:/Downloads/RFS/DE10_Nano_WiFi_Web_Server/software/ewaff_server_bsp//obj/HAL/src/crt0.o
 .debug_abbrev  0x0000000000000012      0x318 obj/default/esp8266.o
 .debug_abbrev  0x000000000000032a       0x44 obj/default/main.o
 .debug_abbrev  0x000000000000036e      0x142 d:/intel_fpga/nios2eds/bin/gnu/h-x86_64-mingw32/bin/../lib/gcc/nios2-elf/10.3.1\libgcc.a(fixsfsi.o)
 .debug_abbrev  0x00000000000004b0      0x344 d:/intel_fpga/nios2eds/bin/gnu/h-x86_64-mingw32/bin/../lib/gcc/nios2-elf/10.3.1/../../../../../H-x86_64-mingw32/nios2-elf/lib\libc.a(lib_a-fflush.o)
 .debug_abbrev  0x00000000000007f4      0x276 d:/intel_fpga/nios2eds/bin/gnu/h-x86_64-mingw32/bin/../lib/gcc/nios2-elf/10.3.1/../../../../../H-x86_64-mingw32/nios2-elf/lib\libc.a(lib_a-fgetc.o)
 .debug_abbrev  0x0000000000000a6a      0x29c d:/intel_fpga/nios2eds/bin/gnu/h-x86_64-mingw32/bin/../lib/gcc/nios2-elf/10.3.1/../../../../../H-x86_64-mingw32/nios2-elf/lib\libc.a(lib_a-fgets.o)
 .debug_abbrev  0x0000000000000d06      0x21e d:/intel_fpga/nios2eds/bin/gnu/h-x86_64-mingw32/bin/../lib/gcc/nios2-elf/10.3.1/../../../../../H-x86_64-mingw32/nios2-elf/lib\libc.a(lib_a-fileno.o)
 .debug_abbrev  0x0000000000000f24      0x44c d:/intel_fpga/nios2eds/bin/gnu/h-x86_64-mingw32/bin/../lib/gcc/nios2-elf/10.3.1/../../../../../H-x86_64-mingw32/nios2-elf/lib\libc.a(lib_a-findfp.o)
 .debug_abbrev  0x0000000000001370      0x2ba d:/intel_fpga/nios2eds/bin/gnu/h-x86_64-mingw32/bin/../lib/gcc/nios2-elf/10.3.1/../../../../../H-x86_64-mingw32/nios2-elf/lib\libc.a(lib_a-fopen.o)
 .debug_abbrev  0x000000000000162a      0x243 d:/intel_fpga/nios2eds/bin/gnu/h-x86_64-mingw32/bin/../lib/gcc/nios2-elf/10.3.1/../../../../../H-x86_64-mingw32/nios2-elf/lib\libc.a(lib_a-fprintf.o)
 .debug_abbrev  0x000000000000186d      0x2b1 d:/intel_fpga/nios2eds/bin/gnu/h-x86_64-mingw32/bin/../lib/gcc/nios2-elf/10.3.1/../../../../../H-x86_64-mingw32/nios2-elf/lib\libc.a(lib_a-freer.o)
 .debug_abbrev  0x0000000000001b1e      0x294 d:/intel_fpga/nios2eds/bin/gnu/h-x86_64-mingw32/bin/../lib/gcc/nios2-elf/10.3.1/../../../../../H-x86_64-mingw32/nios2-elf/lib\libc.a(lib_a-fseek.o)
 .debug_abbrev  0x0000000000001db2      0x308 d:/intel_fpga/nios2eds/bin/gnu/h-x86_64-mingw32/bin/../lib/gcc/nios2-elf/10.3.1/../../../../../H-x86_64-mingw32/nios2-elf/lib\libc.a(lib_a-fseeko.o)
 .debug_abbrev  0x00000000000020ba      0x237 d:/intel_fpga/nios2eds/bin/gnu/h-x86_64-mingw32/bin/../lib/gcc/nios2-elf/10.3.1/../../../../../H-x86_64-mingw32/nios2-elf/lib\libc.a(lib_a-fstatr.o)
 .debug_abbrev  0x00000000000022f1      0x20f d:/intel_fpga/nios2eds/bin/gnu/h-x86_64-mingw32/bin/../lib/gcc/nios2-elf/10.3.1/../../../../../H-x86_64-mingw32/nios2-elf/lib\libc.a(lib_a-fwalk.o)
 .debug_abbrev  0x0000000000002500      0x1c9 d:/intel_fpga/nios2eds/bin/gnu/h-x86_64-mingw32/bin/../lib/gcc/nios2-elf/10.3.1/../../../../../H-x86_64-mingw32/nios2-elf/lib\libc.a(lib_a-impure.o)
 .debug_abbrev  0x00000000000026c9       0x39 d:/intel_fpga/nios2eds/bin/gnu/h-x86_64-mingw32/bin/../lib/gcc/nios2-elf/10.3.1/../../../../../H-x86_64-mingw32/nios2-elf/lib\libc.a(lib_a-int_errno.o)
 .debug_abbrev  0x0000000000002702      0x308 d:/intel_fpga/nios2eds/bin/gnu/h-x86_64-mingw32/bin/../lib/gcc/nios2-elf/10.3.1/../../../../../H-x86_64-mingw32/nios2-elf/lib\libc.a(lib_a-makebuf.o)
 .debug_abbrev  0x0000000000002a0a      0x22e d:/intel_fpga/nios2eds/bin/gnu/h-x86_64-mingw32/bin/../lib/gcc/nios2-elf/10.3.1/../../../../../H-x86_64-mingw32/nios2-elf/lib\libc.a(lib_a-malloc.o)
 .debug_abbrev  0x0000000000002c38      0x2f6 d:/intel_fpga/nios2eds/bin/gnu/h-x86_64-mingw32/bin/../lib/gcc/nios2-elf/10.3.1/../../../../../H-x86_64-mingw32/nios2-elf/lib\libc.a(lib_a-mallocr.o)
 .debug_abbrev  0x0000000000002f2e       0xc3 d:/intel_fpga/nios2eds/bin/gnu/h-x86_64-mingw32/bin/../lib/gcc/nios2-elf/10.3.1/../../../../../H-x86_64-mingw32/nios2-elf/lib\libc.a(lib_a-memchr.o)
 .debug_abbrev  0x0000000000002ff1       0xb6 d:/intel_fpga/nios2eds/bin/gnu/h-x86_64-mingw32/bin/../lib/gcc/nios2-elf/10.3.1/../../../../../H-x86_64-mingw32/nios2-elf/lib\libc.a(lib_a-memcpy.o)
 .debug_abbrev  0x00000000000030a7       0xb4 d:/intel_fpga/nios2eds/bin/gnu/h-x86_64-mingw32/bin/../lib/gcc/nios2-elf/10.3.1/../../../../../H-x86_64-mingw32/nios2-elf/lib\libc.a(lib_a-memset.o)
 .debug_abbrev  0x000000000000315b      0x237 d:/intel_fpga/nios2eds/bin/gnu/h-x86_64-mingw32/bin/../lib/gcc/nios2-elf/10.3.1/../../../../../H-x86_64-mingw32/nios2-elf/lib\libc.a(lib_a-openr.o)
 .debug_abbrev  0x0000000000003392      0x265 d:/intel_fpga/nios2eds/bin/gnu/h-x86_64-mingw32/bin/../lib/gcc/nios2-elf/10.3.1/../../../../../H-x86_64-mingw32/nios2-elf/lib\libc.a(lib_a-printf.o)
 .debug_abbrev  0x00000000000035f7      0x2a0 d:/intel_fpga/nios2eds/bin/gnu/h-x86_64-mingw32/bin/../lib/gcc/nios2-elf/10.3.1/../../../../../H-x86_64-mingw32/nios2-elf/lib\libc.a(lib_a-puts.o)
 .debug_abbrev  0x0000000000003897      0x297 d:/intel_fpga/nios2eds/bin/gnu/h-x86_64-mingw32/bin/../lib/gcc/nios2-elf/10.3.1/../../../../../H-x86_64-mingw32/nios2-elf/lib\libc.a(lib_a-refill.o)
 .debug_abbrev  0x0000000000003b2e      0x29d d:/intel_fpga/nios2eds/bin/gnu/h-x86_64-mingw32/bin/../lib/gcc/nios2-elf/10.3.1/../../../../../H-x86_64-mingw32/nios2-elf/lib\libc.a(lib_a-rget.o)
 .debug_abbrev  0x0000000000003dcb      0x24e d:/intel_fpga/nios2eds/bin/gnu/h-x86_64-mingw32/bin/../lib/gcc/nios2-elf/10.3.1/../../../../../H-x86_64-mingw32/nios2-elf/lib\libc.a(lib_a-sbrkr.o)
 .debug_abbrev  0x0000000000004019      0x27c d:/intel_fpga/nios2eds/bin/gnu/h-x86_64-mingw32/bin/../lib/gcc/nios2-elf/10.3.1/../../../../../H-x86_64-mingw32/nios2-elf/lib\libc.a(lib_a-sprintf.o)
 .debug_abbrev  0x0000000000004295      0x274 d:/intel_fpga/nios2eds/bin/gnu/h-x86_64-mingw32/bin/../lib/gcc/nios2-elf/10.3.1/../../../../../H-x86_64-mingw32/nios2-elf/lib\libc.a(lib_a-sscanf.o)
 .debug_abbrev  0x0000000000004509      0x273 d:/intel_fpga/nios2eds/bin/gnu/h-x86_64-mingw32/bin/../lib/gcc/nios2-elf/10.3.1/../../../../../H-x86_64-mingw32/nios2-elf/lib\libc.a(lib_a-stdio.o)
 .debug_abbrev  0x000000000000477c       0xc4 d:/intel_fpga/nios2eds/bin/gnu/h-x86_64-mingw32/bin/../lib/gcc/nios2-elf/10.3.1/../../../../../H-x86_64-mingw32/nios2-elf/lib\libc.a(lib_a-strcat.o)
 .debug_abbrev  0x0000000000004840       0x94 d:/intel_fpga/nios2eds/bin/gnu/h-x86_64-mingw32/bin/../lib/gcc/nios2-elf/10.3.1/../../../../../H-x86_64-mingw32/nios2-elf/lib\libc.a(lib_a-strchr.o)
 .debug_abbrev  0x00000000000048d4       0x80 d:/intel_fpga/nios2eds/bin/gnu/h-x86_64-mingw32/bin/../lib/gcc/nios2-elf/10.3.1/../../../../../H-x86_64-mingw32/nios2-elf/lib\libc.a(lib_a-strcmp.o)
 .debug_abbrev  0x0000000000004954       0x94 d:/intel_fpga/nios2eds/bin/gnu/h-x86_64-mingw32/bin/../lib/gcc/nios2-elf/10.3.1/../../../../../H-x86_64-mingw32/nios2-elf/lib\libc.a(lib_a-strcpy.o)
 .debug_abbrev  0x00000000000049e8       0x8f d:/intel_fpga/nios2eds/bin/gnu/h-x86_64-mingw32/bin/../lib/gcc/nios2-elf/10.3.1/../../../../../H-x86_64-mingw32/nios2-elf/lib\libc.a(lib_a-strlen.o)
 .debug_abbrev  0x0000000000004a77      0x250 d:/intel_fpga/nios2eds/bin/gnu/h-x86_64-mingw32/bin/../lib/gcc/nios2-elf/10.3.1/../../../../../H-x86_64-mingw32/nios2-elf/lib\libc.a(lib_a-strstr.o)
 .debug_abbrev  0x0000000000004cc7      0x3d9 d:/intel_fpga/nios2eds/bin/gnu/h-x86_64-mingw32/bin/../lib/gcc/nios2-elf/10.3.1/../../../../../H-x86_64-mingw32/nios2-elf/lib\libc.a(lib_a-svfprintf.o)
 .debug_abbrev  0x00000000000050a0      0x3c6 d:/intel_fpga/nios2eds/bin/gnu/h-x86_64-mingw32/bin/../lib/gcc/nios2-elf/10.3.1/../../../../../H-x86_64-mingw32/nios2-elf/lib\libc.a(lib_a-svfscanf.o)
 .debug_abbrev  0x0000000000005466      0x42f d:/intel_fpga/nios2eds/bin/gnu/h-x86_64-mingw32/bin/../lib/gcc/nios2-elf/10.3.1/../../../../../H-x86_64-mingw32/nios2-elf/lib\libc.a(lib_a-vfprintf.o)
 .debug_abbrev  0x0000000000005895      0x228 d:/intel_fpga/nios2eds/bin/gnu/h-x86_64-mingw32/bin/../lib/gcc/nios2-elf/10.3.1/../../../../../H-x86_64-mingw32/nios2-elf/lib\libc.a(lib_a-writer.o)
 .debug_abbrev  0x0000000000005abd      0x257 d:/intel_fpga/nios2eds/bin/gnu/h-x86_64-mingw32/bin/../lib/gcc/nios2-elf/10.3.1/../../../../../H-x86_64-mingw32/nios2-elf/lib\libc.a(lib_a-wsetup.o)
 .debug_abbrev  0x0000000000005d14      0x223 d:/intel_fpga/nios2eds/bin/gnu/h-x86_64-mingw32/bin/../lib/gcc/nios2-elf/10.3.1/../../../../../H-x86_64-mingw32/nios2-elf/lib\libc.a(closer.o)
 .debug_abbrev  0x0000000000005f37       0x73 d:/intel_fpga/nios2eds/bin/gnu/h-x86_64-mingw32/bin/../lib/gcc/nios2-elf/10.3.1/../../../../../H-x86_64-mingw32/nios2-elf/lib\libc.a(lib_a-ctype_.o)
 .debug_abbrev  0x0000000000005faa      0x345 d:/intel_fpga/nios2eds/bin/gnu/h-x86_64-mingw32/bin/../lib/gcc/nios2-elf/10.3.1/../../../../../H-x86_64-mingw32/nios2-elf/lib\libc.a(lib_a-dtoa.o)
 .debug_abbrev  0x00000000000062ef      0x317 d:/intel_fpga/nios2eds/bin/gnu/h-x86_64-mingw32/bin/../lib/gcc/nios2-elf/10.3.1/../../../../../H-x86_64-mingw32/nios2-elf/lib\libc.a(lib_a-fclose.o)
 .debug_abbrev  0x0000000000006606      0x20b d:/intel_fpga/nios2eds/bin/gnu/h-x86_64-mingw32/bin/../lib/gcc/nios2-elf/10.3.1/../../../../../H-x86_64-mingw32/nios2-elf/lib\libc.a(lib_a-flags.o)
 .debug_abbrev  0x0000000000006811      0x295 d:/intel_fpga/nios2eds/bin/gnu/h-x86_64-mingw32/bin/../lib/gcc/nios2-elf/10.3.1/../../../../../H-x86_64-mingw32/nios2-elf/lib\libc.a(lib_a-fvwrite.o)
 .debug_abbrev  0x0000000000006aa6      0x223 d:/intel_fpga/nios2eds/bin/gnu/h-x86_64-mingw32/bin/../lib/gcc/nios2-elf/10.3.1/../../../../../H-x86_64-mingw32/nios2-elf/lib\libc.a(lib_a-isattyr.o)
 .debug_abbrev  0x0000000000006cc9       0x98 d:/intel_fpga/nios2eds/bin/gnu/h-x86_64-mingw32/bin/../lib/gcc/nios2-elf/10.3.1/../../../../../H-x86_64-mingw32/nios2-elf/lib\libc.a(lib_a-iswspace.o)
 .debug_abbrev  0x0000000000006d61      0x1ed d:/intel_fpga/nios2eds/bin/gnu/h-x86_64-mingw32/bin/../lib/gcc/nios2-elf/10.3.1/../../../../../H-x86_64-mingw32/nios2-elf/lib\libc.a(lib_a-iswspace_l.o)
 .debug_abbrev  0x0000000000006f4e      0x2f7 d:/intel_fpga/nios2eds/bin/gnu/h-x86_64-mingw32/bin/../lib/gcc/nios2-elf/10.3.1/../../../../../H-x86_64-mingw32/nios2-elf/lib\libc.a(lib_a-locale.o)
 .debug_abbrev  0x0000000000007245      0x275 d:/intel_fpga/nios2eds/bin/gnu/h-x86_64-mingw32/bin/../lib/gcc/nios2-elf/10.3.1/../../../../../H-x86_64-mingw32/nios2-elf/lib\libc.a(lib_a-localeconv.o)
 .debug_abbrev  0x00000000000074ba      0x237 d:/intel_fpga/nios2eds/bin/gnu/h-x86_64-mingw32/bin/../lib/gcc/nios2-elf/10.3.1/../../../../../H-x86_64-mingw32/nios2-elf/lib\libc.a(lib_a-lseekr.o)
 .debug_abbrev  0x00000000000076f1      0x24e d:/intel_fpga/nios2eds/bin/gnu/h-x86_64-mingw32/bin/../lib/gcc/nios2-elf/10.3.1/../../../../../H-x86_64-mingw32/nios2-elf/lib\libc.a(lib_a-mbrtowc.o)
 .debug_abbrev  0x000000000000793f      0x27a d:/intel_fpga/nios2eds/bin/gnu/h-x86_64-mingw32/bin/../lib/gcc/nios2-elf/10.3.1/../../../../../H-x86_64-mingw32/nios2-elf/lib\libc.a(lib_a-mbtowc_r.o)
 .debug_abbrev  0x0000000000007bb9       0x8d d:/intel_fpga/nios2eds/bin/gnu/h-x86_64-mingw32/bin/../lib/gcc/nios2-elf/10.3.1/../../../../../H-x86_64-mingw32/nios2-elf/lib\libc.a(lib_a-memcmp.o)
 .debug_abbrev  0x0000000000007c46       0xaf d:/intel_fpga/nios2eds/bin/gnu/h-x86_64-mingw32/bin/../lib/gcc/nios2-elf/10.3.1/../../../../../H-x86_64-mingw32/nios2-elf/lib\libc.a(lib_a-memmove.o)
 .debug_abbrev  0x0000000000007cf5      0x4f8 d:/intel_fpga/nios2eds/bin/gnu/h-x86_64-mingw32/bin/../lib/gcc/nios2-elf/10.3.1/../../../../../H-x86_64-mingw32/nios2-elf/lib\libc.a(lib_a-mprec.o)
 .debug_abbrev  0x00000000000081ed      0x223 d:/intel_fpga/nios2eds/bin/gnu/h-x86_64-mingw32/bin/../lib/gcc/nios2-elf/10.3.1/../../../../../H-x86_64-mingw32/nios2-elf/lib\libc.a(lib_a-readr.o)
 .debug_abbrev  0x0000000000008410      0x289 d:/intel_fpga/nios2eds/bin/gnu/h-x86_64-mingw32/bin/../lib/gcc/nios2-elf/10.3.1/../../../../../H-x86_64-mingw32/nios2-elf/lib\libc.a(lib_a-reallocr.o)
 .debug_abbrev  0x0000000000008699       0xcc d:/intel_fpga/nios2eds/bin/gnu/h-x86_64-mingw32/bin/../lib/gcc/nios2-elf/10.3.1/../../../../../H-x86_64-mingw32/nios2-elf/lib\libc.a(lib_a-sccl.o)
 .debug_abbrev  0x0000000000008765       0x8d d:/intel_fpga/nios2eds/bin/gnu/h-x86_64-mingw32/bin/../lib/gcc/nios2-elf/10.3.1/../../../../../H-x86_64-mingw32/nios2-elf/lib\libc.a(lib_a-strnlen.o)
 .debug_abbrev  0x00000000000087f2      0x4c2 d:/intel_fpga/nios2eds/bin/gnu/h-x86_64-mingw32/bin/../lib/gcc/nios2-elf/10.3.1/../../../../../H-x86_64-mingw32/nios2-elf/lib\libc.a(lib_a-strtod.o)
 .debug_abbrev  0x0000000000008cb4      0x341 d:/intel_fpga/nios2eds/bin/gnu/h-x86_64-mingw32/bin/../lib/gcc/nios2-elf/10.3.1/../../../../../H-x86_64-mingw32/nios2-elf/lib\libc.a(lib_a-strtol.o)
 .debug_abbrev  0x0000000000008ff5      0x32b d:/intel_fpga/nios2eds/bin/gnu/h-x86_64-mingw32/bin/../lib/gcc/nios2-elf/10.3.1/../../../../../H-x86_64-mingw32/nios2-elf/lib\libc.a(lib_a-strtoll.o)
 .debug_abbrev  0x0000000000009320      0x30d d:/intel_fpga/nios2eds/bin/gnu/h-x86_64-mingw32/bin/../lib/gcc/nios2-elf/10.3.1/../../../../../H-x86_64-mingw32/nios2-elf/lib\libc.a(lib_a-strtoul.o)
 .debug_abbrev  0x000000000000962d      0x32b d:/intel_fpga/nios2eds/bin/gnu/h-x86_64-mingw32/bin/../lib/gcc/nios2-elf/10.3.1/../../../../../H-x86_64-mingw32/nios2-elf/lib\libc.a(lib_a-strtoull.o)
 .debug_abbrev  0x0000000000009958      0x309 d:/intel_fpga/nios2eds/bin/gnu/h-x86_64-mingw32/bin/../lib/gcc/nios2-elf/10.3.1/../../../../../H-x86_64-mingw32/nios2-elf/lib\libc.a(lib_a-svfiprintf.o)
 .debug_abbrev  0x0000000000009c61      0x423 d:/intel_fpga/nios2eds/bin/gnu/h-x86_64-mingw32/bin/../lib/gcc/nios2-elf/10.3.1/../../../../../H-x86_64-mingw32/nios2-elf/lib\libc.a(lib_a-svfiscanf.o)
 .debug_abbrev  0x000000000000a084      0x2bc d:/intel_fpga/nios2eds/bin/gnu/h-x86_64-mingw32/bin/../lib/gcc/nios2-elf/10.3.1/../../../../../H-x86_64-mingw32/nios2-elf/lib\libc.a(lib_a-ungetc.o)
 .debug_abbrev  0x000000000000a340      0x441 d:/intel_fpga/nios2eds/bin/gnu/h-x86_64-mingw32/bin/../lib/gcc/nios2-elf/10.3.1/../../../../../H-x86_64-mingw32/nios2-elf/lib\libc.a(lib_a-vfiprintf.o)
 .debug_abbrev  0x000000000000a781      0x262 d:/intel_fpga/nios2eds/bin/gnu/h-x86_64-mingw32/bin/../lib/gcc/nios2-elf/10.3.1/../../../../../H-x86_64-mingw32/nios2-elf/lib\libc.a(lib_a-wctomb_r.o)
 .debug_abbrev  0x000000000000a9e3      0x23b d:/intel_fpga/nios2eds/bin/gnu/h-x86_64-mingw32/bin/../lib/gcc/nios2-elf/10.3.1/../../../../../H-x86_64-mingw32/nios2-elf/lib\libc.a(lib_a-assert.o)
 .debug_abbrev  0x000000000000ac1e      0x27f d:/intel_fpga/nios2eds/bin/gnu/h-x86_64-mingw32/bin/../lib/gcc/nios2-elf/10.3.1/../../../../../H-x86_64-mingw32/nios2-elf/lib\libc.a(lib_a-callocr.o)
 .debug_abbrev  0x000000000000ae9d      0x1cf d:/intel_fpga/nios2eds/bin/gnu/h-x86_64-mingw32/bin/../lib/gcc/nios2-elf/10.3.1/../../../../../H-x86_64-mingw32/nios2-elf/lib\libc.a(lib_a-errno.o)
 .debug_abbrev  0x000000000000b06c      0x231 d:/intel_fpga/nios2eds/bin/gnu/h-x86_64-mingw32/bin/../lib/gcc/nios2-elf/10.3.1/../../../../../H-x86_64-mingw32/nios2-elf/lib\libc.a(lib_a-fiprintf.o)
 .debug_abbrev  0x000000000000b29d      0x2ff d:/intel_fpga/nios2eds/bin/gnu/h-x86_64-mingw32/bin/../lib/gcc/nios2-elf/10.3.1/../../../../../H-x86_64-mingw32/nios2-elf/lib\libc.a(lib_a-fputwc.o)
 .debug_abbrev  0x000000000000b59c      0x3e3 d:/intel_fpga/nios2eds/bin/gnu/h-x86_64-mingw32/bin/../lib/gcc/nios2-elf/10.3.1/../../../../../H-x86_64-mingw32/nios2-elf/lib\libc.a(lib_a-gdtoa-gethex.o)
 .debug_abbrev  0x000000000000b97f      0x1c8 d:/intel_fpga/nios2eds/bin/gnu/h-x86_64-mingw32/bin/../lib/gcc/nios2-elf/10.3.1/../../../../../H-x86_64-mingw32/nios2-elf/lib\libc.a(lib_a-gdtoa-hexnan.o)
 .debug_abbrev  0x000000000000bb47      0x217 d:/intel_fpga/nios2eds/bin/gnu/h-x86_64-mingw32/bin/../lib/gcc/nios2-elf/10.3.1/../../../../../H-x86_64-mingw32/nios2-elf/lib\libc.a(lib_a-lnumeric.o)
 .debug_abbrev  0x000000000000bd5e       0x8f d:/intel_fpga/nios2eds/bin/gnu/h-x86_64-mingw32/bin/../lib/gcc/nios2-elf/10.3.1/../../../../../H-x86_64-mingw32/nios2-elf/lib\libc.a(lib_a-strncmp.o)
 .debug_abbrev  0x000000000000bded      0x245 d:/intel_fpga/nios2eds/bin/gnu/h-x86_64-mingw32/bin/../lib/gcc/nios2-elf/10.3.1/../../../../../H-x86_64-mingw32/nios2-elf/lib\libc.a(lib_a-vfiprintfr_1.o)
 .debug_abbrev  0x000000000000c032      0x297 d:/intel_fpga/nios2eds/bin/gnu/h-x86_64-mingw32/bin/../lib/gcc/nios2-elf/10.3.1/../../../../../H-x86_64-mingw32/nios2-elf/lib\libc.a(lib_a-wbuf.o)
 .debug_abbrev  0x000000000000c2c9      0x25f d:/intel_fpga/nios2eds/bin/gnu/h-x86_64-mingw32/bin/../lib/gcc/nios2-elf/10.3.1/../../../../../H-x86_64-mingw32/nios2-elf/lib\libc.a(lib_a-wcrtomb.o)
 .debug_abbrev  0x000000000000c528       0x80 d:/intel_fpga/nios2eds/bin/gnu/h-x86_64-mingw32/bin/../lib/gcc/nios2-elf/10.3.1/../../../../../H-x86_64-mingw32/nios2-elf/lib\libc.a(lib_a-abort.o)
 .debug_abbrev  0x000000000000c5a8      0x343 d:/intel_fpga/nios2eds/bin/gnu/h-x86_64-mingw32/bin/../lib/gcc/nios2-elf/10.3.1/../../../../../H-x86_64-mingw32/nios2-elf/lib\libc.a(lib_a-signal.o)
 .debug_abbrev  0x000000000000c8eb      0x240 d:/intel_fpga/nios2eds/bin/gnu/h-x86_64-mingw32/bin/../lib/gcc/nios2-elf/10.3.1/../../../../../H-x86_64-mingw32/nios2-elf/lib\libc.a(lib_a-signalr.o)
 .debug_abbrev  0x000000000000cb2b       0xfa d:/intel_fpga/nios2eds/bin/gnu/h-x86_64-mingw32/bin/../lib/gcc/nios2-elf/10.3.1\libgcc.a(_muldi3.o)
 .debug_abbrev  0x000000000000cc25       0x83 d:/intel_fpga/nios2eds/bin/gnu/h-x86_64-mingw32/bin/../lib/gcc/nios2-elf/10.3.1\libgcc.a(_fixunsdfsi.o)
 .debug_abbrev  0x000000000000cca8       0xa4 d:/intel_fpga/nios2eds/bin/gnu/h-x86_64-mingw32/bin/../lib/gcc/nios2-elf/10.3.1\libgcc.a(_fixdfdi.o)
 .debug_abbrev  0x000000000000cd4c       0xad d:/intel_fpga/nios2eds/bin/gnu/h-x86_64-mingw32/bin/../lib/gcc/nios2-elf/10.3.1\libgcc.a(_fixunsdfdi.o)
 .debug_abbrev  0x000000000000cdf9       0x97 d:/intel_fpga/nios2eds/bin/gnu/h-x86_64-mingw32/bin/../lib/gcc/nios2-elf/10.3.1\libgcc.a(_floatdidf.o)
 .debug_abbrev  0x000000000000ce90      0x1b4 d:/intel_fpga/nios2eds/bin/gnu/h-x86_64-mingw32/bin/../lib/gcc/nios2-elf/10.3.1\libgcc.a(_udivdi3.o)
 .debug_abbrev  0x000000000000d044      0x1d7 d:/intel_fpga/nios2eds/bin/gnu/h-x86_64-mingw32/bin/../lib/gcc/nios2-elf/10.3.1\libgcc.a(_umoddi3.o)
 .debug_abbrev  0x000000000000d21b      0x103 d:/intel_fpga/nios2eds/bin/gnu/h-x86_64-mingw32/bin/../lib/gcc/nios2-elf/10.3.1\libgcc.a(lib2-divmod.o)
 .debug_abbrev  0x000000000000d31e      0x156 d:/intel_fpga/nios2eds/bin/gnu/h-x86_64-mingw32/bin/../lib/gcc/nios2-elf/10.3.1\libgcc.a(lesf2.o)
 .debug_abbrev  0x000000000000d474      0x14e d:/intel_fpga/nios2eds/bin/gnu/h-x86_64-mingw32/bin/../lib/gcc/nios2-elf/10.3.1\libgcc.a(unordsf2.o)
 .debug_abbrev  0x000000000000d5c2      0x16b d:/intel_fpga/nios2eds/bin/gnu/h-x86_64-mingw32/bin/../lib/gcc/nios2-elf/10.3.1\libgcc.a(adddf3.o)
 .debug_abbrev  0x000000000000d72d      0x16b d:/intel_fpga/nios2eds/bin/gnu/h-x86_64-mingw32/bin/../lib/gcc/nios2-elf/10.3.1\libgcc.a(divdf3.o)
 .debug_abbrev  0x000000000000d898      0x12f d:/intel_fpga/nios2eds/bin/gnu/h-x86_64-mingw32/bin/../lib/gcc/nios2-elf/10.3.1\libgcc.a(eqdf2.o)
 .debug_abbrev  0x000000000000d9c7      0x153 d:/intel_fpga/nios2eds/bin/gnu/h-x86_64-mingw32/bin/../lib/gcc/nios2-elf/10.3.1\libgcc.a(gedf2.o)
 .debug_abbrev  0x000000000000db1a      0x153 d:/intel_fpga/nios2eds/bin/gnu/h-x86_64-mingw32/bin/../lib/gcc/nios2-elf/10.3.1\libgcc.a(ledf2.o)
 .debug_abbrev  0x000000000000dc6d      0x17d d:/intel_fpga/nios2eds/bin/gnu/h-x86_64-mingw32/bin/../lib/gcc/nios2-elf/10.3.1\libgcc.a(muldf3.o)
 .debug_abbrev  0x000000000000ddea      0x16b d:/intel_fpga/nios2eds/bin/gnu/h-x86_64-mingw32/bin/../lib/gcc/nios2-elf/10.3.1\libgcc.a(subdf3.o)
 .debug_abbrev  0x000000000000df55      0x12f d:/intel_fpga/nios2eds/bin/gnu/h-x86_64-mingw32/bin/../lib/gcc/nios2-elf/10.3.1\libgcc.a(unorddf2.o)
 .debug_abbrev  0x000000000000e084      0x145 d:/intel_fpga/nios2eds/bin/gnu/h-x86_64-mingw32/bin/../lib/gcc/nios2-elf/10.3.1\libgcc.a(fixdfsi.o)
 .debug_abbrev  0x000000000000e1c9      0x16d d:/intel_fpga/nios2eds/bin/gnu/h-x86_64-mingw32/bin/../lib/gcc/nios2-elf/10.3.1\libgcc.a(floatsidf.o)
 .debug_abbrev  0x000000000000e336      0x16d d:/intel_fpga/nios2eds/bin/gnu/h-x86_64-mingw32/bin/../lib/gcc/nios2-elf/10.3.1\libgcc.a(floatunsidf.o)
 .debug_abbrev  0x000000000000e4a3      0x132 d:/intel_fpga/nios2eds/bin/gnu/h-x86_64-mingw32/bin/../lib/gcc/nios2-elf/10.3.1\libgcc.a(truncdfsf2.o)
 .debug_abbrev  0x000000000000e5d5       0x70 d:/intel_fpga/nios2eds/bin/gnu/h-x86_64-mingw32/bin/../lib/gcc/nios2-elf/10.3.1\libgcc.a(_clz.o)
 .debug_abbrev  0x000000000000e645       0xbf d:/intel_fpga/nios2eds/bin/gnu/h-x86_64-mingw32/bin/../lib/gcc/nios2-elf/10.3.1\libgcc.a(_clzsi2.o)
 .debug_abbrev  0x000000000000e704      0x133 d:/Downloads/RFS/DE10_Nano_WiFi_Web_Server/software/ewaff_server_bsp/\libhal_bsp.a(alt_close.o)
 .debug_abbrev  0x000000000000e837      0x117 d:/Downloads/RFS/DE10_Nano_WiFi_Web_Server/software/ewaff_server_bsp/\libhal_bsp.a(alt_dev.o)
 .debug_abbrev  0x000000000000e94e       0x5a d:/Downloads/RFS/DE10_Nano_WiFi_Web_Server/software/ewaff_server_bsp/\libhal_bsp.a(alt_errno.o)
 .debug_abbrev  0x000000000000e9a8       0xac d:/Downloads/RFS/DE10_Nano_WiFi_Web_Server/software/ewaff_server_bsp/\libhal_bsp.a(alt_exit.o)
 .debug_abbrev  0x000000000000ea54      0x152 d:/Downloads/RFS/DE10_Nano_WiFi_Web_Server/software/ewaff_server_bsp/\libhal_bsp.a(alt_fcntl.o)
 .debug_abbrev  0x000000000000eba6      0x133 d:/Downloads/RFS/DE10_Nano_WiFi_Web_Server/software/ewaff_server_bsp/\libhal_bsp.a(alt_fstat.o)
 .debug_abbrev  0x000000000000ecd9       0x3b d:/Downloads/RFS/DE10_Nano_WiFi_Web_Server/software/ewaff_server_bsp/\libhal_bsp.a(alt_getpid.o)
 .debug_abbrev  0x000000000000ed14      0x133 d:/Downloads/RFS/DE10_Nano_WiFi_Web_Server/software/ewaff_server_bsp/\libhal_bsp.a(alt_isatty.o)
 .debug_abbrev  0x000000000000ee47       0xa9 d:/Downloads/RFS/DE10_Nano_WiFi_Web_Server/software/ewaff_server_bsp/\libhal_bsp.a(alt_kill.o)
 .debug_abbrev  0x000000000000eef0       0xab d:/Downloads/RFS/DE10_Nano_WiFi_Web_Server/software/ewaff_server_bsp/\libhal_bsp.a(alt_load.o)
 .debug_abbrev  0x000000000000ef9b      0x133 d:/Downloads/RFS/DE10_Nano_WiFi_Web_Server/software/ewaff_server_bsp/\libhal_bsp.a(alt_lseek.o)
 .debug_abbrev  0x000000000000f0ce       0x86 d:/Downloads/RFS/DE10_Nano_WiFi_Web_Server/software/ewaff_server_bsp/\libhal_bsp.a(alt_main.o)
 .debug_abbrev  0x000000000000f154      0x1e7 d:/Downloads/RFS/DE10_Nano_WiFi_Web_Server/software/ewaff_server_bsp/\libhal_bsp.a(alt_malloc_lock.o)
 .debug_abbrev  0x000000000000f33b      0x160 d:/Downloads/RFS/DE10_Nano_WiFi_Web_Server/software/ewaff_server_bsp/\libhal_bsp.a(alt_open.o)
 .debug_abbrev  0x000000000000f49b      0x144 d:/Downloads/RFS/DE10_Nano_WiFi_Web_Server/software/ewaff_server_bsp/\libhal_bsp.a(alt_read.o)
 .debug_abbrev  0x000000000000f5df       0xea d:/Downloads/RFS/DE10_Nano_WiFi_Web_Server/software/ewaff_server_bsp/\libhal_bsp.a(alt_release_fd.o)
 .debug_abbrev  0x000000000000f6c9      0x11d d:/Downloads/RFS/DE10_Nano_WiFi_Web_Server/software/ewaff_server_bsp/\libhal_bsp.a(alt_sbrk.o)
 .debug_abbrev  0x000000000000f7e6       0x66 d:/Downloads/RFS/DE10_Nano_WiFi_Web_Server/software/ewaff_server_bsp/\libhal_bsp.a(alt_usleep.o)
 .debug_abbrev  0x000000000000f84c      0x149 d:/Downloads/RFS/DE10_Nano_WiFi_Web_Server/software/ewaff_server_bsp/\libhal_bsp.a(alt_write.o)
 .debug_abbrev  0x000000000000f995      0x1b0 d:/Downloads/RFS/DE10_Nano_WiFi_Web_Server/software/ewaff_server_bsp/\libhal_bsp.a(alt_sys_init.o)
 .debug_abbrev  0x000000000000fb45      0x146 d:/Downloads/RFS/DE10_Nano_WiFi_Web_Server/software/ewaff_server_bsp/\libhal_bsp.a(altera_avalon_jtag_uart_fd.o)
 .debug_abbrev  0x000000000000fc8b      0x1be d:/Downloads/RFS/DE10_Nano_WiFi_Web_Server/software/ewaff_server_bsp/\libhal_bsp.a(altera_avalon_jtag_uart_init.o)
 .debug_abbrev  0x000000000000fe49      0x112 d:/Downloads/RFS/DE10_Nano_WiFi_Web_Server/software/ewaff_server_bsp/\libhal_bsp.a(altera_avalon_jtag_uart_ioctl.o)
 .debug_abbrev  0x000000000000ff5b      0x1b0 d:/Downloads/RFS/DE10_Nano_WiFi_Web_Server/software/ewaff_server_bsp/\libhal_bsp.a(altera_avalon_jtag_uart_read.o)
 .debug_abbrev  0x000000000001010b      0x1ae d:/Downloads/RFS/DE10_Nano_WiFi_Web_Server/software/ewaff_server_bsp/\libhal_bsp.a(altera_avalon_jtag_uart_write.o)
 .debug_abbrev  0x00000000000102b9      0x14b d:/Downloads/RFS/DE10_Nano_WiFi_Web_Server/software/ewaff_server_bsp/\libhal_bsp.a(altera_avalon_timer_sc.o)
 .debug_abbrev  0x0000000000010404      0x124 d:/Downloads/RFS/DE10_Nano_WiFi_Web_Server/software/ewaff_server_bsp/\libhal_bsp.a(altera_avalon_uart_fd.o)
 .debug_abbrev  0x0000000000010528      0x17c d:/Downloads/RFS/DE10_Nano_WiFi_Web_Server/software/ewaff_server_bsp/\libhal_bsp.a(altera_avalon_uart_init.o)
 .debug_abbrev  0x00000000000106a4      0x1a9 d:/Downloads/RFS/DE10_Nano_WiFi_Web_Server/software/ewaff_server_bsp/\libhal_bsp.a(altera_avalon_uart_read.o)
 .debug_abbrev  0x000000000001084d      0x1b0 d:/Downloads/RFS/DE10_Nano_WiFi_Web_Server/software/ewaff_server_bsp/\libhal_bsp.a(altera_avalon_uart_write.o)
 .debug_abbrev  0x00000000000109fd      0x188 d:/Downloads/RFS/DE10_Nano_WiFi_Web_Server/software/ewaff_server_bsp/\libhal_bsp.a(alt_alarm_start.o)
 .debug_abbrev  0x0000000000010b85       0x88 d:/Downloads/RFS/DE10_Nano_WiFi_Web_Server/software/ewaff_server_bsp/\libhal_bsp.a(alt_busy_sleep.o)
 .debug_abbrev  0x0000000000010c0d       0x5e d:/Downloads/RFS/DE10_Nano_WiFi_Web_Server/software/ewaff_server_bsp/\libhal_bsp.a(alt_dcache_flush_all.o)
 .debug_abbrev  0x0000000000010c6b      0x12a d:/Downloads/RFS/DE10_Nano_WiFi_Web_Server/software/ewaff_server_bsp/\libhal_bsp.a(alt_dev_llist_insert.o)
 .debug_abbrev  0x0000000000010d95       0x81 d:/Downloads/RFS/DE10_Nano_WiFi_Web_Server/software/ewaff_server_bsp/\libhal_bsp.a(alt_do_ctors.o)
 .debug_abbrev  0x0000000000010e16       0x81 d:/Downloads/RFS/DE10_Nano_WiFi_Web_Server/software/ewaff_server_bsp/\libhal_bsp.a(alt_do_dtors.o)
 .debug_abbrev  0x0000000000010e97       0xed d:/Downloads/RFS/DE10_Nano_WiFi_Web_Server/software/ewaff_server_bsp/\libhal_bsp.a(alt_find_dev.o)
 .debug_abbrev  0x0000000000010f84      0x100 d:/Downloads/RFS/DE10_Nano_WiFi_Web_Server/software/ewaff_server_bsp/\libhal_bsp.a(alt_find_file.o)
 .debug_abbrev  0x0000000000011084      0x121 d:/Downloads/RFS/DE10_Nano_WiFi_Web_Server/software/ewaff_server_bsp/\libhal_bsp.a(alt_get_fd.o)
 .debug_abbrev  0x00000000000111a5       0x44 d:/Downloads/RFS/DE10_Nano_WiFi_Web_Server/software/ewaff_server_bsp/\libhal_bsp.a(alt_icache_flush_all.o)
 .debug_abbrev  0x00000000000111e9      0x189 d:/Downloads/RFS/DE10_Nano_WiFi_Web_Server/software/ewaff_server_bsp/\libhal_bsp.a(alt_iic.o)
 .debug_abbrev  0x0000000000011372      0x17c d:/Downloads/RFS/DE10_Nano_WiFi_Web_Server/software/ewaff_server_bsp/\libhal_bsp.a(alt_iic_isr_register.o)
 .debug_abbrev  0x00000000000114ee      0x126 d:/Downloads/RFS/DE10_Nano_WiFi_Web_Server/software/ewaff_server_bsp/\libhal_bsp.a(alt_io_redirect.o)
 .debug_abbrev  0x0000000000011614       0x12 d:/Downloads/RFS/DE10_Nano_WiFi_Web_Server/software/ewaff_server_bsp/\libhal_bsp.a(alt_irq_entry.o)
 .debug_abbrev  0x0000000000011626      0x12d d:/Downloads/RFS/DE10_Nano_WiFi_Web_Server/software/ewaff_server_bsp/\libhal_bsp.a(alt_irq_handler.o)
 .debug_abbrev  0x0000000000011753       0x44 d:/Downloads/RFS/DE10_Nano_WiFi_Web_Server/software/ewaff_server_bsp/\libhal_bsp.a(alt_irq_vars.o)
 .debug_abbrev  0x0000000000011797      0x17a d:/Downloads/RFS/DE10_Nano_WiFi_Web_Server/software/ewaff_server_bsp/\libhal_bsp.a(alt_tick.o)
 .debug_abbrev  0x0000000000011911       0x44 d:/Downloads/RFS/DE10_Nano_WiFi_Web_Server/software/ewaff_server_bsp/\libhal_bsp.a(altera_nios2_gen2_irq.o)
 .debug_abbrev  0x0000000000011955       0x12 d:/Downloads/RFS/DE10_Nano_WiFi_Web_Server/software/ewaff_server_bsp/\libhal_bsp.a(alt_exception_entry.o)
 .debug_abbrev  0x0000000000011967       0x96 d:/Downloads/RFS/DE10_Nano_WiFi_Web_Server/software/ewaff_server_bsp/\libhal_bsp.a(alt_icache_flush.o)
 .debug_abbrev  0x00000000000119fd       0xea d:/Downloads/RFS/DE10_Nano_WiFi_Web_Server/software/ewaff_server_bsp/\libhal_bsp.a(alt_instruction_exception_entry.o)
 .debug_abbrev  0x0000000000011ae7       0xb7 d:/intel_fpga/nios2eds/bin/gnu/h-x86_64-mingw32/bin/../lib/gcc/nios2-elf/10.3.1/../../../../../H-x86_64-mingw32/nios2-elf/lib\libc.a(lib_a-atexit.o)
 .debug_abbrev  0x0000000000011b9e      0x21d d:/intel_fpga/nios2eds/bin/gnu/h-x86_64-mingw32/bin/../lib/gcc/nios2-elf/10.3.1/../../../../../H-x86_64-mingw32/nios2-elf/lib\libc.a(lib_a-exit.o)
 .debug_abbrev  0x0000000000011dbb      0x250 d:/intel_fpga/nios2eds/bin/gnu/h-x86_64-mingw32/bin/../lib/gcc/nios2-elf/10.3.1/../../../../../H-x86_64-mingw32/nios2-elf/lib\libc.a(lib_a-__atexit.o)
 .debug_abbrev  0x000000000001200b      0x259 d:/intel_fpga/nios2eds/bin/gnu/h-x86_64-mingw32/bin/../lib/gcc/nios2-elf/10.3.1/../../../../../H-x86_64-mingw32/nios2-elf/lib\libc.a(lib_a-__call_atexit.o)

.debug_line     0x0000000000000000    0x26830
 *(.debug_line)
 .debug_line    0x0000000000000000       0x72 d:/Downloads/RFS/DE10_Nano_WiFi_Web_Server/software/ewaff_server_bsp//obj/HAL/src/crt0.o
 .debug_line    0x0000000000000072      0x6a2 obj/default/esp8266.o
 .debug_line    0x0000000000000714       0x43 obj/default/main.o
 .debug_line    0x0000000000000757      0x11a d:/intel_fpga/nios2eds/bin/gnu/h-x86_64-mingw32/bin/../lib/gcc/nios2-elf/10.3.1\libgcc.a(fixsfsi.o)
 .debug_line    0x0000000000000871      0x55c d:/intel_fpga/nios2eds/bin/gnu/h-x86_64-mingw32/bin/../lib/gcc/nios2-elf/10.3.1/../../../../../H-x86_64-mingw32/nios2-elf/lib\libc.a(lib_a-fflush.o)
 .debug_line    0x0000000000000dcd      0x379 d:/intel_fpga/nios2eds/bin/gnu/h-x86_64-mingw32/bin/../lib/gcc/nios2-elf/10.3.1/../../../../../H-x86_64-mingw32/nios2-elf/lib\libc.a(lib_a-fgetc.o)
 .debug_line    0x0000000000001146      0x38e d:/intel_fpga/nios2eds/bin/gnu/h-x86_64-mingw32/bin/../lib/gcc/nios2-elf/10.3.1/../../../../../H-x86_64-mingw32/nios2-elf/lib\libc.a(lib_a-fgets.o)
 .debug_line    0x00000000000014d4      0x268 d:/intel_fpga/nios2eds/bin/gnu/h-x86_64-mingw32/bin/../lib/gcc/nios2-elf/10.3.1/../../../../../H-x86_64-mingw32/nios2-elf/lib\libc.a(lib_a-fileno.o)
 .debug_line    0x000000000000173c      0x699 d:/intel_fpga/nios2eds/bin/gnu/h-x86_64-mingw32/bin/../lib/gcc/nios2-elf/10.3.1/../../../../../H-x86_64-mingw32/nios2-elf/lib\libc.a(lib_a-findfp.o)
 .debug_line    0x0000000000001dd5      0x2d7 d:/intel_fpga/nios2eds/bin/gnu/h-x86_64-mingw32/bin/../lib/gcc/nios2-elf/10.3.1/../../../../../H-x86_64-mingw32/nios2-elf/lib\libc.a(lib_a-fopen.o)
 .debug_line    0x00000000000020ac      0x246 d:/intel_fpga/nios2eds/bin/gnu/h-x86_64-mingw32/bin/../lib/gcc/nios2-elf/10.3.1/../../../../../H-x86_64-mingw32/nios2-elf/lib\libc.a(lib_a-fprintf.o)
 .debug_line    0x00000000000022f2      0x5c8 d:/intel_fpga/nios2eds/bin/gnu/h-x86_64-mingw32/bin/../lib/gcc/nios2-elf/10.3.1/../../../../../H-x86_64-mingw32/nios2-elf/lib\libc.a(lib_a-freer.o)
 .debug_line    0x00000000000028ba      0x232 d:/intel_fpga/nios2eds/bin/gnu/h-x86_64-mingw32/bin/../lib/gcc/nios2-elf/10.3.1/../../../../../H-x86_64-mingw32/nios2-elf/lib\libc.a(lib_a-fseek.o)
 .debug_line    0x0000000000002aec      0x777 d:/intel_fpga/nios2eds/bin/gnu/h-x86_64-mingw32/bin/../lib/gcc/nios2-elf/10.3.1/../../../../../H-x86_64-mingw32/nios2-elf/lib\libc.a(lib_a-fseeko.o)
 .debug_line    0x0000000000003263      0x2da d:/intel_fpga/nios2eds/bin/gnu/h-x86_64-mingw32/bin/../lib/gcc/nios2-elf/10.3.1/../../../../../H-x86_64-mingw32/nios2-elf/lib\libc.a(lib_a-fstatr.o)
 .debug_line    0x000000000000353d      0x366 d:/intel_fpga/nios2eds/bin/gnu/h-x86_64-mingw32/bin/../lib/gcc/nios2-elf/10.3.1/../../../../../H-x86_64-mingw32/nios2-elf/lib\libc.a(lib_a-fwalk.o)
 .debug_line    0x00000000000038a3      0x164 d:/intel_fpga/nios2eds/bin/gnu/h-x86_64-mingw32/bin/../lib/gcc/nios2-elf/10.3.1/../../../../../H-x86_64-mingw32/nios2-elf/lib\libc.a(lib_a-impure.o)
 .debug_line    0x0000000000003a07       0x5e d:/intel_fpga/nios2eds/bin/gnu/h-x86_64-mingw32/bin/../lib/gcc/nios2-elf/10.3.1/../../../../../H-x86_64-mingw32/nios2-elf/lib\libc.a(lib_a-int_errno.o)
 .debug_line    0x0000000000003a65      0x4e4 d:/intel_fpga/nios2eds/bin/gnu/h-x86_64-mingw32/bin/../lib/gcc/nios2-elf/10.3.1/../../../../../H-x86_64-mingw32/nios2-elf/lib\libc.a(lib_a-makebuf.o)
 .debug_line    0x0000000000003f49      0x219 d:/intel_fpga/nios2eds/bin/gnu/h-x86_64-mingw32/bin/../lib/gcc/nios2-elf/10.3.1/../../../../../H-x86_64-mingw32/nios2-elf/lib\libc.a(lib_a-malloc.o)
 .debug_line    0x0000000000004162      0x978 d:/intel_fpga/nios2eds/bin/gnu/h-x86_64-mingw32/bin/../lib/gcc/nios2-elf/10.3.1/../../../../../H-x86_64-mingw32/nios2-elf/lib\libc.a(lib_a-mallocr.o)
 .debug_line    0x0000000000004ada      0x221 d:/intel_fpga/nios2eds/bin/gnu/h-x86_64-mingw32/bin/../lib/gcc/nios2-elf/10.3.1/../../../../../H-x86_64-mingw32/nios2-elf/lib\libc.a(lib_a-memchr.o)
 .debug_line    0x0000000000004cfb      0x235 d:/intel_fpga/nios2eds/bin/gnu/h-x86_64-mingw32/bin/../lib/gcc/nios2-elf/10.3.1/../../../../../H-x86_64-mingw32/nios2-elf/lib\libc.a(lib_a-memcpy.o)
 .debug_line    0x0000000000004f30      0x256 d:/intel_fpga/nios2eds/bin/gnu/h-x86_64-mingw32/bin/../lib/gcc/nios2-elf/10.3.1/../../../../../H-x86_64-mingw32/nios2-elf/lib\libc.a(lib_a-memset.o)
 .debug_line    0x0000000000005186      0x23c d:/intel_fpga/nios2eds/bin/gnu/h-x86_64-mingw32/bin/../lib/gcc/nios2-elf/10.3.1/../../../../../H-x86_64-mingw32/nios2-elf/lib\libc.a(lib_a-openr.o)
 .debug_line    0x00000000000053c2      0x24f d:/intel_fpga/nios2eds/bin/gnu/h-x86_64-mingw32/bin/../lib/gcc/nios2-elf/10.3.1/../../../../../H-x86_64-mingw32/nios2-elf/lib\libc.a(lib_a-printf.o)
 .debug_line    0x0000000000005611      0x316 d:/intel_fpga/nios2eds/bin/gnu/h-x86_64-mingw32/bin/../lib/gcc/nios2-elf/10.3.1/../../../../../H-x86_64-mingw32/nios2-elf/lib\libc.a(lib_a-puts.o)
 .debug_line    0x0000000000005927      0x3f6 d:/intel_fpga/nios2eds/bin/gnu/h-x86_64-mingw32/bin/../lib/gcc/nios2-elf/10.3.1/../../../../../H-x86_64-mingw32/nios2-elf/lib\libc.a(lib_a-refill.o)
 .debug_line    0x0000000000005d1d      0x2d5 d:/intel_fpga/nios2eds/bin/gnu/h-x86_64-mingw32/bin/../lib/gcc/nios2-elf/10.3.1/../../../../../H-x86_64-mingw32/nios2-elf/lib\libc.a(lib_a-rget.o)
 .debug_line    0x0000000000005ff2      0x228 d:/intel_fpga/nios2eds/bin/gnu/h-x86_64-mingw32/bin/../lib/gcc/nios2-elf/10.3.1/../../../../../H-x86_64-mingw32/nios2-elf/lib\libc.a(lib_a-sbrkr.o)
 .debug_line    0x000000000000621a      0x2bb d:/intel_fpga/nios2eds/bin/gnu/h-x86_64-mingw32/bin/../lib/gcc/nios2-elf/10.3.1/../../../../../H-x86_64-mingw32/nios2-elf/lib\libc.a(lib_a-sprintf.o)
 .debug_line    0x00000000000064d5      0x2e0 d:/intel_fpga/nios2eds/bin/gnu/h-x86_64-mingw32/bin/../lib/gcc/nios2-elf/10.3.1/../../../../../H-x86_64-mingw32/nios2-elf/lib\libc.a(lib_a-sscanf.o)
 .debug_line    0x00000000000067b5      0x331 d:/intel_fpga/nios2eds/bin/gnu/h-x86_64-mingw32/bin/../lib/gcc/nios2-elf/10.3.1/../../../../../H-x86_64-mingw32/nios2-elf/lib\libc.a(lib_a-stdio.o)
 .debug_line    0x0000000000006ae6      0x13f d:/intel_fpga/nios2eds/bin/gnu/h-x86_64-mingw32/bin/../lib/gcc/nios2-elf/10.3.1/../../../../../H-x86_64-mingw32/nios2-elf/lib\libc.a(lib_a-strcat.o)
 .debug_line    0x0000000000006c25      0x219 d:/intel_fpga/nios2eds/bin/gnu/h-x86_64-mingw32/bin/../lib/gcc/nios2-elf/10.3.1/../../../../../H-x86_64-mingw32/nios2-elf/lib\libc.a(lib_a-strchr.o)
 .debug_line    0x0000000000006e3e      0x178 d:/intel_fpga/nios2eds/bin/gnu/h-x86_64-mingw32/bin/../lib/gcc/nios2-elf/10.3.1/../../../../../H-x86_64-mingw32/nios2-elf/lib\libc.a(lib_a-strcmp.o)
 .debug_line    0x0000000000006fb6      0x16c d:/intel_fpga/nios2eds/bin/gnu/h-x86_64-mingw32/bin/../lib/gcc/nios2-elf/10.3.1/../../../../../H-x86_64-mingw32/nios2-elf/lib\libc.a(lib_a-strcpy.o)
 .debug_line    0x0000000000007122      0x1d8 d:/intel_fpga/nios2eds/bin/gnu/h-x86_64-mingw32/bin/../lib/gcc/nios2-elf/10.3.1/../../../../../H-x86_64-mingw32/nios2-elf/lib\libc.a(lib_a-strlen.o)
 .debug_line    0x00000000000072fa      0x927 d:/intel_fpga/nios2eds/bin/gnu/h-x86_64-mingw32/bin/../lib/gcc/nios2-elf/10.3.1/../../../../../H-x86_64-mingw32/nios2-elf/lib\libc.a(lib_a-strstr.o)
 .debug_line    0x0000000000007c21     0x1a77 d:/intel_fpga/nios2eds/bin/gnu/h-x86_64-mingw32/bin/../lib/gcc/nios2-elf/10.3.1/../../../../../H-x86_64-mingw32/nios2-elf/lib\libc.a(lib_a-svfprintf.o)
 .debug_line    0x0000000000009698     0x16c1 d:/intel_fpga/nios2eds/bin/gnu/h-x86_64-mingw32/bin/../lib/gcc/nios2-elf/10.3.1/../../../../../H-x86_64-mingw32/nios2-elf/lib\libc.a(lib_a-svfscanf.o)
 .debug_line    0x000000000000ad59     0x1be1 d:/intel_fpga/nios2eds/bin/gnu/h-x86_64-mingw32/bin/../lib/gcc/nios2-elf/10.3.1/../../../../../H-x86_64-mingw32/nios2-elf/lib\libc.a(lib_a-vfprintf.o)
 .debug_line    0x000000000000c93a      0x235 d:/intel_fpga/nios2eds/bin/gnu/h-x86_64-mingw32/bin/../lib/gcc/nios2-elf/10.3.1/../../../../../H-x86_64-mingw32/nios2-elf/lib\libc.a(lib_a-writer.o)
 .debug_line    0x000000000000cb6f      0x3be d:/intel_fpga/nios2eds/bin/gnu/h-x86_64-mingw32/bin/../lib/gcc/nios2-elf/10.3.1/../../../../../H-x86_64-mingw32/nios2-elf/lib\libc.a(lib_a-wsetup.o)
 .debug_line    0x000000000000cf2d      0x234 d:/intel_fpga/nios2eds/bin/gnu/h-x86_64-mingw32/bin/../lib/gcc/nios2-elf/10.3.1/../../../../../H-x86_64-mingw32/nios2-elf/lib\libc.a(closer.o)
 .debug_line    0x000000000000d161       0xd5 d:/intel_fpga/nios2eds/bin/gnu/h-x86_64-mingw32/bin/../lib/gcc/nios2-elf/10.3.1/../../../../../H-x86_64-mingw32/nios2-elf/lib\libc.a(lib_a-ctype_.o)
 .debug_line    0x000000000000d236     0x16c5 d:/intel_fpga/nios2eds/bin/gnu/h-x86_64-mingw32/bin/../lib/gcc/nios2-elf/10.3.1/../../../../../H-x86_64-mingw32/nios2-elf/lib\libc.a(lib_a-dtoa.o)
 .debug_line    0x000000000000e8fb      0x38d d:/intel_fpga/nios2eds/bin/gnu/h-x86_64-mingw32/bin/../lib/gcc/nios2-elf/10.3.1/../../../../../H-x86_64-mingw32/nios2-elf/lib\libc.a(lib_a-fclose.o)
 .debug_line    0x000000000000ec88      0x218 d:/intel_fpga/nios2eds/bin/gnu/h-x86_64-mingw32/bin/../lib/gcc/nios2-elf/10.3.1/../../../../../H-x86_64-mingw32/nios2-elf/lib\libc.a(lib_a-flags.o)
 .debug_line    0x000000000000eea0      0x6e0 d:/intel_fpga/nios2eds/bin/gnu/h-x86_64-mingw32/bin/../lib/gcc/nios2-elf/10.3.1/../../../../../H-x86_64-mingw32/nios2-elf/lib\libc.a(lib_a-fvwrite.o)
 .debug_line    0x000000000000f580      0x235 d:/intel_fpga/nios2eds/bin/gnu/h-x86_64-mingw32/bin/../lib/gcc/nios2-elf/10.3.1/../../../../../H-x86_64-mingw32/nios2-elf/lib\libc.a(lib_a-isattyr.o)
 .debug_line    0x000000000000f7b5      0x16b d:/intel_fpga/nios2eds/bin/gnu/h-x86_64-mingw32/bin/../lib/gcc/nios2-elf/10.3.1/../../../../../H-x86_64-mingw32/nios2-elf/lib\libc.a(lib_a-iswspace.o)
 .debug_line    0x000000000000f920      0x268 d:/intel_fpga/nios2eds/bin/gnu/h-x86_64-mingw32/bin/../lib/gcc/nios2-elf/10.3.1/../../../../../H-x86_64-mingw32/nios2-elf/lib\libc.a(lib_a-iswspace_l.o)
 .debug_line    0x000000000000fb88      0x358 d:/intel_fpga/nios2eds/bin/gnu/h-x86_64-mingw32/bin/../lib/gcc/nios2-elf/10.3.1/../../../../../H-x86_64-mingw32/nios2-elf/lib\libc.a(lib_a-locale.o)
 .debug_line    0x000000000000fee0      0x28a d:/intel_fpga/nios2eds/bin/gnu/h-x86_64-mingw32/bin/../lib/gcc/nios2-elf/10.3.1/../../../../../H-x86_64-mingw32/nios2-elf/lib\libc.a(lib_a-localeconv.o)
 .debug_line    0x000000000001016a      0x235 d:/intel_fpga/nios2eds/bin/gnu/h-x86_64-mingw32/bin/../lib/gcc/nios2-elf/10.3.1/../../../../../H-x86_64-mingw32/nios2-elf/lib\libc.a(lib_a-lseekr.o)
 .debug_line    0x000000000001039f      0x371 d:/intel_fpga/nios2eds/bin/gnu/h-x86_64-mingw32/bin/../lib/gcc/nios2-elf/10.3.1/../../../../../H-x86_64-mingw32/nios2-elf/lib\libc.a(lib_a-mbrtowc.o)
 .debug_line    0x0000000000010710      0x2c3 d:/intel_fpga/nios2eds/bin/gnu/h-x86_64-mingw32/bin/../lib/gcc/nios2-elf/10.3.1/../../../../../H-x86_64-mingw32/nios2-elf/lib\libc.a(lib_a-mbtowc_r.o)
 .debug_line    0x00000000000109d3      0x1e3 d:/intel_fpga/nios2eds/bin/gnu/h-x86_64-mingw32/bin/../lib/gcc/nios2-elf/10.3.1/../../../../../H-x86_64-mingw32/nios2-elf/lib\libc.a(lib_a-memcmp.o)
 .debug_line    0x0000000000010bb6      0x26b d:/intel_fpga/nios2eds/bin/gnu/h-x86_64-mingw32/bin/../lib/gcc/nios2-elf/10.3.1/../../../../../H-x86_64-mingw32/nios2-elf/lib\libc.a(lib_a-memmove.o)
 .debug_line    0x0000000000010e21     0x17e7 d:/intel_fpga/nios2eds/bin/gnu/h-x86_64-mingw32/bin/../lib/gcc/nios2-elf/10.3.1/../../../../../H-x86_64-mingw32/nios2-elf/lib\libc.a(lib_a-mprec.o)
 .debug_line    0x0000000000012608      0x234 d:/intel_fpga/nios2eds/bin/gnu/h-x86_64-mingw32/bin/../lib/gcc/nios2-elf/10.3.1/../../../../../H-x86_64-mingw32/nios2-elf/lib\libc.a(lib_a-readr.o)
 .debug_line    0x000000000001283c      0x746 d:/intel_fpga/nios2eds/bin/gnu/h-x86_64-mingw32/bin/../lib/gcc/nios2-elf/10.3.1/../../../../../H-x86_64-mingw32/nios2-elf/lib\libc.a(lib_a-reallocr.o)
 .debug_line    0x0000000000012f82      0x19f d:/intel_fpga/nios2eds/bin/gnu/h-x86_64-mingw32/bin/../lib/gcc/nios2-elf/10.3.1/../../../../../H-x86_64-mingw32/nios2-elf/lib\libc.a(lib_a-sccl.o)
 .debug_line    0x0000000000013121      0x191 d:/intel_fpga/nios2eds/bin/gnu/h-x86_64-mingw32/bin/../lib/gcc/nios2-elf/10.3.1/../../../../../H-x86_64-mingw32/nios2-elf/lib\libc.a(lib_a-strnlen.o)
 .debug_line    0x00000000000132b2     0x15e7 d:/intel_fpga/nios2eds/bin/gnu/h-x86_64-mingw32/bin/../lib/gcc/nios2-elf/10.3.1/../../../../../H-x86_64-mingw32/nios2-elf/lib\libc.a(lib_a-strtod.o)
 .debug_line    0x0000000000014899      0x538 d:/intel_fpga/nios2eds/bin/gnu/h-x86_64-mingw32/bin/../lib/gcc/nios2-elf/10.3.1/../../../../../H-x86_64-mingw32/nios2-elf/lib\libc.a(lib_a-strtol.o)
 .debug_line    0x0000000000014dd1      0x4bc d:/intel_fpga/nios2eds/bin/gnu/h-x86_64-mingw32/bin/../lib/gcc/nios2-elf/10.3.1/../../../../../H-x86_64-mingw32/nios2-elf/lib\libc.a(lib_a-strtoll.o)
 .debug_line    0x000000000001528d      0x4aa d:/intel_fpga/nios2eds/bin/gnu/h-x86_64-mingw32/bin/../lib/gcc/nios2-elf/10.3.1/../../../../../H-x86_64-mingw32/nios2-elf/lib\libc.a(lib_a-strtoul.o)
 .debug_line    0x0000000000015737      0x4c2 d:/intel_fpga/nios2eds/bin/gnu/h-x86_64-mingw32/bin/../lib/gcc/nios2-elf/10.3.1/../../../../../H-x86_64-mingw32/nios2-elf/lib\libc.a(lib_a-strtoull.o)
 .debug_line    0x0000000000015bf9     0x1156 d:/intel_fpga/nios2eds/bin/gnu/h-x86_64-mingw32/bin/../lib/gcc/nios2-elf/10.3.1/../../../../../H-x86_64-mingw32/nios2-elf/lib\libc.a(lib_a-svfiprintf.o)
 .debug_line    0x0000000000016d4f     0x1a2e d:/intel_fpga/nios2eds/bin/gnu/h-x86_64-mingw32/bin/../lib/gcc/nios2-elf/10.3.1/../../../../../H-x86_64-mingw32/nios2-elf/lib\libc.a(lib_a-svfiscanf.o)
 .debug_line    0x000000000001877d      0x4bd d:/intel_fpga/nios2eds/bin/gnu/h-x86_64-mingw32/bin/../lib/gcc/nios2-elf/10.3.1/../../../../../H-x86_64-mingw32/nios2-elf/lib\libc.a(lib_a-ungetc.o)
 .debug_line    0x0000000000018c3a     0x155f d:/intel_fpga/nios2eds/bin/gnu/h-x86_64-mingw32/bin/../lib/gcc/nios2-elf/10.3.1/../../../../../H-x86_64-mingw32/nios2-elf/lib\libc.a(lib_a-vfiprintf.o)
 .debug_line    0x000000000001a199      0x2b0 d:/intel_fpga/nios2eds/bin/gnu/h-x86_64-mingw32/bin/../lib/gcc/nios2-elf/10.3.1/../../../../../H-x86_64-mingw32/nios2-elf/lib\libc.a(lib_a-wctomb_r.o)
 .debug_line    0x000000000001a449      0x24b d:/intel_fpga/nios2eds/bin/gnu/h-x86_64-mingw32/bin/../lib/gcc/nios2-elf/10.3.1/../../../../../H-x86_64-mingw32/nios2-elf/lib\libc.a(lib_a-assert.o)
 .debug_line    0x000000000001a694      0x299 d:/intel_fpga/nios2eds/bin/gnu/h-x86_64-mingw32/bin/../lib/gcc/nios2-elf/10.3.1/../../../../../H-x86_64-mingw32/nios2-elf/lib\libc.a(lib_a-callocr.o)
 .debug_line    0x000000000001a92d      0x186 d:/intel_fpga/nios2eds/bin/gnu/h-x86_64-mingw32/bin/../lib/gcc/nios2-elf/10.3.1/../../../../../H-x86_64-mingw32/nios2-elf/lib\libc.a(lib_a-errno.o)
 .debug_line    0x000000000001aab3      0x233 d:/intel_fpga/nios2eds/bin/gnu/h-x86_64-mingw32/bin/../lib/gcc/nios2-elf/10.3.1/../../../../../H-x86_64-mingw32/nios2-elf/lib\libc.a(lib_a-fiprintf.o)
 .debug_line    0x000000000001ace6      0x40a d:/intel_fpga/nios2eds/bin/gnu/h-x86_64-mingw32/bin/../lib/gcc/nios2-elf/10.3.1/../../../../../H-x86_64-mingw32/nios2-elf/lib\libc.a(lib_a-fputwc.o)
 .debug_line    0x000000000001b0f0      0xba9 d:/intel_fpga/nios2eds/bin/gnu/h-x86_64-mingw32/bin/../lib/gcc/nios2-elf/10.3.1/../../../../../H-x86_64-mingw32/nios2-elf/lib\libc.a(lib_a-gdtoa-gethex.o)
 .debug_line    0x000000000001bc99      0x42d d:/intel_fpga/nios2eds/bin/gnu/h-x86_64-mingw32/bin/../lib/gcc/nios2-elf/10.3.1/../../../../../H-x86_64-mingw32/nios2-elf/lib\libc.a(lib_a-gdtoa-hexnan.o)
 .debug_line    0x000000000001c0c6      0x20d d:/intel_fpga/nios2eds/bin/gnu/h-x86_64-mingw32/bin/../lib/gcc/nios2-elf/10.3.1/../../../../../H-x86_64-mingw32/nios2-elf/lib\libc.a(lib_a-lnumeric.o)
 .debug_line    0x000000000001c2d3      0x253 d:/intel_fpga/nios2eds/bin/gnu/h-x86_64-mingw32/bin/../lib/gcc/nios2-elf/10.3.1/../../../../../H-x86_64-mingw32/nios2-elf/lib\libc.a(lib_a-strncmp.o)
 .debug_line    0x000000000001c526      0x207 d:/intel_fpga/nios2eds/bin/gnu/h-x86_64-mingw32/bin/../lib/gcc/nios2-elf/10.3.1/../../../../../H-x86_64-mingw32/nios2-elf/lib\libc.a(lib_a-vfiprintfr_1.o)
 .debug_line    0x000000000001c72d      0x382 d:/intel_fpga/nios2eds/bin/gnu/h-x86_64-mingw32/bin/../lib/gcc/nios2-elf/10.3.1/../../../../../H-x86_64-mingw32/nios2-elf/lib\libc.a(lib_a-wbuf.o)
 .debug_line    0x000000000001caaf      0x370 d:/intel_fpga/nios2eds/bin/gnu/h-x86_64-mingw32/bin/../lib/gcc/nios2-elf/10.3.1/../../../../../H-x86_64-mingw32/nios2-elf/lib\libc.a(lib_a-wcrtomb.o)
 .debug_line    0x000000000001ce1f      0x173 d:/intel_fpga/nios2eds/bin/gnu/h-x86_64-mingw32/bin/../lib/gcc/nios2-elf/10.3.1/../../../../../H-x86_64-mingw32/nios2-elf/lib\libc.a(lib_a-abort.o)
 .debug_line    0x000000000001cf92      0x6df d:/intel_fpga/nios2eds/bin/gnu/h-x86_64-mingw32/bin/../lib/gcc/nios2-elf/10.3.1/../../../../../H-x86_64-mingw32/nios2-elf/lib\libc.a(lib_a-signal.o)
 .debug_line    0x000000000001d671      0x25e d:/intel_fpga/nios2eds/bin/gnu/h-x86_64-mingw32/bin/../lib/gcc/nios2-elf/10.3.1/../../../../../H-x86_64-mingw32/nios2-elf/lib\libc.a(lib_a-signalr.o)
 .debug_line    0x000000000001d8cf       0xe2 d:/intel_fpga/nios2eds/bin/gnu/h-x86_64-mingw32/bin/../lib/gcc/nios2-elf/10.3.1\libgcc.a(_muldi3.o)
 .debug_line    0x000000000001d9b1       0x95 d:/intel_fpga/nios2eds/bin/gnu/h-x86_64-mingw32/bin/../lib/gcc/nios2-elf/10.3.1\libgcc.a(_fixunsdfsi.o)
 .debug_line    0x000000000001da46       0x96 d:/intel_fpga/nios2eds/bin/gnu/h-x86_64-mingw32/bin/../lib/gcc/nios2-elf/10.3.1\libgcc.a(_fixdfdi.o)
 .debug_line    0x000000000001dadc       0x9b d:/intel_fpga/nios2eds/bin/gnu/h-x86_64-mingw32/bin/../lib/gcc/nios2-elf/10.3.1\libgcc.a(_fixunsdfdi.o)
 .debug_line    0x000000000001db77       0x95 d:/intel_fpga/nios2eds/bin/gnu/h-x86_64-mingw32/bin/../lib/gcc/nios2-elf/10.3.1\libgcc.a(_floatdidf.o)
 .debug_line    0x000000000001dc0c      0x32a d:/intel_fpga/nios2eds/bin/gnu/h-x86_64-mingw32/bin/../lib/gcc/nios2-elf/10.3.1\libgcc.a(_udivdi3.o)
 .debug_line    0x000000000001df36      0x387 d:/intel_fpga/nios2eds/bin/gnu/h-x86_64-mingw32/bin/../lib/gcc/nios2-elf/10.3.1\libgcc.a(_umoddi3.o)
 .debug_line    0x000000000001e2bd      0x303 d:/intel_fpga/nios2eds/bin/gnu/h-x86_64-mingw32/bin/../lib/gcc/nios2-elf/10.3.1\libgcc.a(lib2-divmod.o)
 .debug_line    0x000000000001e5c0      0x143 d:/intel_fpga/nios2eds/bin/gnu/h-x86_64-mingw32/bin/../lib/gcc/nios2-elf/10.3.1\libgcc.a(lesf2.o)
 .debug_line    0x000000000001e703       0xd0 d:/intel_fpga/nios2eds/bin/gnu/h-x86_64-mingw32/bin/../lib/gcc/nios2-elf/10.3.1\libgcc.a(unordsf2.o)
 .debug_line    0x000000000001e7d3      0xd61 d:/intel_fpga/nios2eds/bin/gnu/h-x86_64-mingw32/bin/../lib/gcc/nios2-elf/10.3.1\libgcc.a(adddf3.o)
 .debug_line    0x000000000001f534      0xac1 d:/intel_fpga/nios2eds/bin/gnu/h-x86_64-mingw32/bin/../lib/gcc/nios2-elf/10.3.1\libgcc.a(divdf3.o)
 .debug_line    0x000000000001fff5      0x10c d:/intel_fpga/nios2eds/bin/gnu/h-x86_64-mingw32/bin/../lib/gcc/nios2-elf/10.3.1\libgcc.a(eqdf2.o)
 .debug_line    0x0000000000020101      0x167 d:/intel_fpga/nios2eds/bin/gnu/h-x86_64-mingw32/bin/../lib/gcc/nios2-elf/10.3.1\libgcc.a(gedf2.o)
 .debug_line    0x0000000000020268      0x167 d:/intel_fpga/nios2eds/bin/gnu/h-x86_64-mingw32/bin/../lib/gcc/nios2-elf/10.3.1\libgcc.a(ledf2.o)
 .debug_line    0x00000000000203cf      0x99e d:/intel_fpga/nios2eds/bin/gnu/h-x86_64-mingw32/bin/../lib/gcc/nios2-elf/10.3.1\libgcc.a(muldf3.o)
 .debug_line    0x0000000000020d6d      0xdc4 d:/intel_fpga/nios2eds/bin/gnu/h-x86_64-mingw32/bin/../lib/gcc/nios2-elf/10.3.1\libgcc.a(subdf3.o)
 .debug_line    0x0000000000021b31       0xd2 d:/intel_fpga/nios2eds/bin/gnu/h-x86_64-mingw32/bin/../lib/gcc/nios2-elf/10.3.1\libgcc.a(unorddf2.o)
 .debug_line    0x0000000000021c03      0x12e d:/intel_fpga/nios2eds/bin/gnu/h-x86_64-mingw32/bin/../lib/gcc/nios2-elf/10.3.1\libgcc.a(fixdfsi.o)
 .debug_line    0x0000000000021d31      0x1e3 d:/intel_fpga/nios2eds/bin/gnu/h-x86_64-mingw32/bin/../lib/gcc/nios2-elf/10.3.1\libgcc.a(floatsidf.o)
 .debug_line    0x0000000000021f14      0x1ce d:/intel_fpga/nios2eds/bin/gnu/h-x86_64-mingw32/bin/../lib/gcc/nios2-elf/10.3.1\libgcc.a(floatunsidf.o)
 .debug_line    0x00000000000220e2      0x2f3 d:/intel_fpga/nios2eds/bin/gnu/h-x86_64-mingw32/bin/../lib/gcc/nios2-elf/10.3.1\libgcc.a(truncdfsf2.o)
 .debug_line    0x00000000000223d5       0x56 d:/intel_fpga/nios2eds/bin/gnu/h-x86_64-mingw32/bin/../lib/gcc/nios2-elf/10.3.1\libgcc.a(_clz.o)
 .debug_line    0x000000000002242b       0xa7 d:/intel_fpga/nios2eds/bin/gnu/h-x86_64-mingw32/bin/../lib/gcc/nios2-elf/10.3.1\libgcc.a(_clzsi2.o)
 .debug_line    0x00000000000224d2      0x1a3 d:/Downloads/RFS/DE10_Nano_WiFi_Web_Server/software/ewaff_server_bsp/\libhal_bsp.a(alt_close.o)
 .debug_line    0x0000000000022675      0x18d d:/Downloads/RFS/DE10_Nano_WiFi_Web_Server/software/ewaff_server_bsp/\libhal_bsp.a(alt_dev.o)
 .debug_line    0x0000000000022802       0x51 d:/Downloads/RFS/DE10_Nano_WiFi_Web_Server/software/ewaff_server_bsp/\libhal_bsp.a(alt_errno.o)
 .debug_line    0x0000000000022853       0x85 d:/Downloads/RFS/DE10_Nano_WiFi_Web_Server/software/ewaff_server_bsp/\libhal_bsp.a(alt_exit.o)
 .debug_line    0x00000000000228d8      0x2d4 d:/Downloads/RFS/DE10_Nano_WiFi_Web_Server/software/ewaff_server_bsp/\libhal_bsp.a(alt_fcntl.o)
 .debug_line    0x0000000000022bac      0x202 d:/Downloads/RFS/DE10_Nano_WiFi_Web_Server/software/ewaff_server_bsp/\libhal_bsp.a(alt_fstat.o)
 .debug_line    0x0000000000022dae       0x4c d:/Downloads/RFS/DE10_Nano_WiFi_Web_Server/software/ewaff_server_bsp/\libhal_bsp.a(alt_getpid.o)
 .debug_line    0x0000000000022dfa      0x204 d:/Downloads/RFS/DE10_Nano_WiFi_Web_Server/software/ewaff_server_bsp/\libhal_bsp.a(alt_isatty.o)
 .debug_line    0x0000000000022ffe      0x112 d:/Downloads/RFS/DE10_Nano_WiFi_Web_Server/software/ewaff_server_bsp/\libhal_bsp.a(alt_kill.o)
 .debug_line    0x0000000000023110       0xa6 d:/Downloads/RFS/DE10_Nano_WiFi_Web_Server/software/ewaff_server_bsp/\libhal_bsp.a(alt_load.o)
 .debug_line    0x00000000000231b6      0x194 d:/Downloads/RFS/DE10_Nano_WiFi_Web_Server/software/ewaff_server_bsp/\libhal_bsp.a(alt_lseek.o)
 .debug_line    0x000000000002334a       0x85 d:/Downloads/RFS/DE10_Nano_WiFi_Web_Server/software/ewaff_server_bsp/\libhal_bsp.a(alt_main.o)
 .debug_line    0x00000000000233cf      0x113 d:/Downloads/RFS/DE10_Nano_WiFi_Web_Server/software/ewaff_server_bsp/\libhal_bsp.a(alt_malloc_lock.o)
 .debug_line    0x00000000000234e2      0x1a0 d:/Downloads/RFS/DE10_Nano_WiFi_Web_Server/software/ewaff_server_bsp/\libhal_bsp.a(alt_open.o)
 .debug_line    0x0000000000023682      0x290 d:/Downloads/RFS/DE10_Nano_WiFi_Web_Server/software/ewaff_server_bsp/\libhal_bsp.a(alt_read.o)
 .debug_line    0x0000000000023912       0xb6 d:/Downloads/RFS/DE10_Nano_WiFi_Web_Server/software/ewaff_server_bsp/\libhal_bsp.a(alt_release_fd.o)
 .debug_line    0x00000000000239c8      0x106 d:/Downloads/RFS/DE10_Nano_WiFi_Web_Server/software/ewaff_server_bsp/\libhal_bsp.a(alt_sbrk.o)
 .debug_line    0x0000000000023ace       0xb6 d:/Downloads/RFS/DE10_Nano_WiFi_Web_Server/software/ewaff_server_bsp/\libhal_bsp.a(alt_usleep.o)
 .debug_line    0x0000000000023b84      0x293 d:/Downloads/RFS/DE10_Nano_WiFi_Web_Server/software/ewaff_server_bsp/\libhal_bsp.a(alt_write.o)
 .debug_line    0x0000000000023e17      0x17d d:/Downloads/RFS/DE10_Nano_WiFi_Web_Server/software/ewaff_server_bsp/\libhal_bsp.a(alt_sys_init.o)
 .debug_line    0x0000000000023f94      0x149 d:/Downloads/RFS/DE10_Nano_WiFi_Web_Server/software/ewaff_server_bsp/\libhal_bsp.a(altera_avalon_jtag_uart_fd.o)
 .debug_line    0x00000000000240dd      0x25b d:/Downloads/RFS/DE10_Nano_WiFi_Web_Server/software/ewaff_server_bsp/\libhal_bsp.a(altera_avalon_jtag_uart_init.o)
 .debug_line    0x0000000000024338      0x154 d:/Downloads/RFS/DE10_Nano_WiFi_Web_Server/software/ewaff_server_bsp/\libhal_bsp.a(altera_avalon_jtag_uart_ioctl.o)
 .debug_line    0x000000000002448c      0x1d1 d:/Downloads/RFS/DE10_Nano_WiFi_Web_Server/software/ewaff_server_bsp/\libhal_bsp.a(altera_avalon_jtag_uart_read.o)
 .debug_line    0x000000000002465d      0x1d6 d:/Downloads/RFS/DE10_Nano_WiFi_Web_Server/software/ewaff_server_bsp/\libhal_bsp.a(altera_avalon_jtag_uart_write.o)
 .debug_line    0x0000000000024833       0xfd d:/Downloads/RFS/DE10_Nano_WiFi_Web_Server/software/ewaff_server_bsp/\libhal_bsp.a(altera_avalon_timer_sc.o)
 .debug_line    0x0000000000024930      0x102 d:/Downloads/RFS/DE10_Nano_WiFi_Web_Server/software/ewaff_server_bsp/\libhal_bsp.a(altera_avalon_uart_fd.o)
 .debug_line    0x0000000000024a32      0x1f9 d:/Downloads/RFS/DE10_Nano_WiFi_Web_Server/software/ewaff_server_bsp/\libhal_bsp.a(altera_avalon_uart_init.o)
 .debug_line    0x0000000000024c2b      0x1eb d:/Downloads/RFS/DE10_Nano_WiFi_Web_Server/software/ewaff_server_bsp/\libhal_bsp.a(altera_avalon_uart_read.o)
 .debug_line    0x0000000000024e16      0x1be d:/Downloads/RFS/DE10_Nano_WiFi_Web_Server/software/ewaff_server_bsp/\libhal_bsp.a(altera_avalon_uart_write.o)
 .debug_line    0x0000000000024fd4      0x138 d:/Downloads/RFS/DE10_Nano_WiFi_Web_Server/software/ewaff_server_bsp/\libhal_bsp.a(alt_alarm_start.o)
 .debug_line    0x000000000002510c       0xe1 d:/Downloads/RFS/DE10_Nano_WiFi_Web_Server/software/ewaff_server_bsp/\libhal_bsp.a(alt_busy_sleep.o)
 .debug_line    0x00000000000251ed       0x6e d:/Downloads/RFS/DE10_Nano_WiFi_Web_Server/software/ewaff_server_bsp/\libhal_bsp.a(alt_dcache_flush_all.o)
 .debug_line    0x000000000002525b      0x106 d:/Downloads/RFS/DE10_Nano_WiFi_Web_Server/software/ewaff_server_bsp/\libhal_bsp.a(alt_dev_llist_insert.o)
 .debug_line    0x0000000000025361       0x66 d:/Downloads/RFS/DE10_Nano_WiFi_Web_Server/software/ewaff_server_bsp/\libhal_bsp.a(alt_do_ctors.o)
 .debug_line    0x00000000000253c7       0x66 d:/Downloads/RFS/DE10_Nano_WiFi_Web_Server/software/ewaff_server_bsp/\libhal_bsp.a(alt_do_dtors.o)
 .debug_line    0x000000000002542d       0xb8 d:/Downloads/RFS/DE10_Nano_WiFi_Web_Server/software/ewaff_server_bsp/\libhal_bsp.a(alt_find_dev.o)
 .debug_line    0x00000000000254e5      0x103 d:/Downloads/RFS/DE10_Nano_WiFi_Web_Server/software/ewaff_server_bsp/\libhal_bsp.a(alt_find_file.o)
 .debug_line    0x00000000000255e8       0xfa d:/Downloads/RFS/DE10_Nano_WiFi_Web_Server/software/ewaff_server_bsp/\libhal_bsp.a(alt_get_fd.o)
 .debug_line    0x00000000000256e2       0x56 d:/Downloads/RFS/DE10_Nano_WiFi_Web_Server/software/ewaff_server_bsp/\libhal_bsp.a(alt_icache_flush_all.o)
 .debug_line    0x0000000000025738      0x123 d:/Downloads/RFS/DE10_Nano_WiFi_Web_Server/software/ewaff_server_bsp/\libhal_bsp.a(alt_iic.o)
 .debug_line    0x000000000002585b       0xfc d:/Downloads/RFS/DE10_Nano_WiFi_Web_Server/software/ewaff_server_bsp/\libhal_bsp.a(alt_iic_isr_register.o)
 .debug_line    0x0000000000025957      0x1c0 d:/Downloads/RFS/DE10_Nano_WiFi_Web_Server/software/ewaff_server_bsp/\libhal_bsp.a(alt_io_redirect.o)
 .debug_line    0x0000000000025b17       0x6b d:/Downloads/RFS/DE10_Nano_WiFi_Web_Server/software/ewaff_server_bsp/\libhal_bsp.a(alt_irq_entry.o)
 .debug_line    0x0000000000025b82       0xd4 d:/Downloads/RFS/DE10_Nano_WiFi_Web_Server/software/ewaff_server_bsp/\libhal_bsp.a(alt_irq_handler.o)
 .debug_line    0x0000000000025c56       0x50 d:/Downloads/RFS/DE10_Nano_WiFi_Web_Server/software/ewaff_server_bsp/\libhal_bsp.a(alt_irq_vars.o)
 .debug_line    0x0000000000025ca6      0x133 d:/Downloads/RFS/DE10_Nano_WiFi_Web_Server/software/ewaff_server_bsp/\libhal_bsp.a(alt_tick.o)
 .debug_line    0x0000000000025dd9       0x57 d:/Downloads/RFS/DE10_Nano_WiFi_Web_Server/software/ewaff_server_bsp/\libhal_bsp.a(altera_nios2_gen2_irq.o)
 .debug_line    0x0000000000025e30       0xb3 d:/Downloads/RFS/DE10_Nano_WiFi_Web_Server/software/ewaff_server_bsp/\libhal_bsp.a(alt_exception_entry.o)
 .debug_line    0x0000000000025ee3       0xa0 d:/Downloads/RFS/DE10_Nano_WiFi_Web_Server/software/ewaff_server_bsp/\libhal_bsp.a(alt_icache_flush.o)
 .debug_line    0x0000000000025f83       0xda d:/Downloads/RFS/DE10_Nano_WiFi_Web_Server/software/ewaff_server_bsp/\libhal_bsp.a(alt_instruction_exception_entry.o)
 .debug_line    0x000000000002605d       0xf4 d:/intel_fpga/nios2eds/bin/gnu/h-x86_64-mingw32/bin/../lib/gcc/nios2-elf/10.3.1/../../../../../H-x86_64-mingw32/nios2-elf/lib\libc.a(lib_a-atexit.o)
 .debug_line    0x0000000000026151      0x227 d:/intel_fpga/nios2eds/bin/gnu/h-x86_64-mingw32/bin/../lib/gcc/nios2-elf/10.3.1/../../../../../H-x86_64-mingw32/nios2-elf/lib\libc.a(lib_a-exit.o)
 .debug_line    0x0000000000026378      0x218 d:/intel_fpga/nios2eds/bin/gnu/h-x86_64-mingw32/bin/../lib/gcc/nios2-elf/10.3.1/../../../../../H-x86_64-mingw32/nios2-elf/lib\libc.a(lib_a-__atexit.o)
 .debug_line    0x0000000000026590      0x2a0 d:/intel_fpga/nios2eds/bin/gnu/h-x86_64-mingw32/bin/../lib/gcc/nios2-elf/10.3.1/../../../../../H-x86_64-mingw32/nios2-elf/lib\libc.a(lib_a-__call_atexit.o)

.debug_frame    0x0000000000000000     0x37c8
 *(.debug_frame)
 .debug_frame   0x0000000000000000      0x1fc obj/default/esp8266.o
 .debug_frame   0x00000000000001fc       0x38 obj/default/main.o
 .debug_frame   0x0000000000000234       0x20 d:/intel_fpga/nios2eds/bin/gnu/h-x86_64-mingw32/bin/../lib/gcc/nios2-elf/10.3.1\libgcc.a(fixsfsi.o)
 .debug_frame   0x0000000000000254       0x94 d:/intel_fpga/nios2eds/bin/gnu/h-x86_64-mingw32/bin/../lib/gcc/nios2-elf/10.3.1/../../../../../H-x86_64-mingw32/nios2-elf/lib\libc.a(lib_a-fflush.o)
 .debug_frame   0x00000000000002e8       0x6c d:/intel_fpga/nios2eds/bin/gnu/h-x86_64-mingw32/bin/../lib/gcc/nios2-elf/10.3.1/../../../../../H-x86_64-mingw32/nios2-elf/lib\libc.a(lib_a-fgetc.o)
 .debug_frame   0x0000000000000354       0x70 d:/intel_fpga/nios2eds/bin/gnu/h-x86_64-mingw32/bin/../lib/gcc/nios2-elf/10.3.1/../../../../../H-x86_64-mingw32/nios2-elf/lib\libc.a(lib_a-fgets.o)
 .debug_frame   0x00000000000003c4       0x34 d:/intel_fpga/nios2eds/bin/gnu/h-x86_64-mingw32/bin/../lib/gcc/nios2-elf/10.3.1/../../../../../H-x86_64-mingw32/nios2-elf/lib\libc.a(lib_a-fileno.o)
 .debug_frame   0x00000000000003f8      0x12c d:/intel_fpga/nios2eds/bin/gnu/h-x86_64-mingw32/bin/../lib/gcc/nios2-elf/10.3.1/../../../../../H-x86_64-mingw32/nios2-elf/lib\libc.a(lib_a-findfp.o)
 .debug_frame   0x0000000000000524       0x50 d:/intel_fpga/nios2eds/bin/gnu/h-x86_64-mingw32/bin/../lib/gcc/nios2-elf/10.3.1/../../../../../H-x86_64-mingw32/nios2-elf/lib\libc.a(lib_a-fopen.o)
 .debug_frame   0x0000000000000574       0x48 d:/intel_fpga/nios2eds/bin/gnu/h-x86_64-mingw32/bin/../lib/gcc/nios2-elf/10.3.1/../../../../../H-x86_64-mingw32/nios2-elf/lib\libc.a(lib_a-fprintf.o)
 .debug_frame   0x00000000000005bc       0x78 d:/intel_fpga/nios2eds/bin/gnu/h-x86_64-mingw32/bin/../lib/gcc/nios2-elf/10.3.1/../../../../../H-x86_64-mingw32/nios2-elf/lib\libc.a(lib_a-freer.o)
 .debug_frame   0x0000000000000634       0x30 d:/intel_fpga/nios2eds/bin/gnu/h-x86_64-mingw32/bin/../lib/gcc/nios2-elf/10.3.1/../../../../../H-x86_64-mingw32/nios2-elf/lib\libc.a(lib_a-fseek.o)
 .debug_frame   0x0000000000000664       0x60 d:/intel_fpga/nios2eds/bin/gnu/h-x86_64-mingw32/bin/../lib/gcc/nios2-elf/10.3.1/../../../../../H-x86_64-mingw32/nios2-elf/lib\libc.a(lib_a-fseeko.o)
 .debug_frame   0x00000000000006c4       0x3c d:/intel_fpga/nios2eds/bin/gnu/h-x86_64-mingw32/bin/../lib/gcc/nios2-elf/10.3.1/../../../../../H-x86_64-mingw32/nios2-elf/lib\libc.a(lib_a-fstatr.o)
 .debug_frame   0x0000000000000700       0x74 d:/intel_fpga/nios2eds/bin/gnu/h-x86_64-mingw32/bin/../lib/gcc/nios2-elf/10.3.1/../../../../../H-x86_64-mingw32/nios2-elf/lib\libc.a(lib_a-fwalk.o)
 .debug_frame   0x0000000000000774       0x70 d:/intel_fpga/nios2eds/bin/gnu/h-x86_64-mingw32/bin/../lib/gcc/nios2-elf/10.3.1/../../../../../H-x86_64-mingw32/nios2-elf/lib\libc.a(lib_a-makebuf.o)
 .debug_frame   0x00000000000007e4       0x30 d:/intel_fpga/nios2eds/bin/gnu/h-x86_64-mingw32/bin/../lib/gcc/nios2-elf/10.3.1/../../../../../H-x86_64-mingw32/nios2-elf/lib\libc.a(lib_a-malloc.o)
 .debug_frame   0x0000000000000814       0x58 d:/intel_fpga/nios2eds/bin/gnu/h-x86_64-mingw32/bin/../lib/gcc/nios2-elf/10.3.1/../../../../../H-x86_64-mingw32/nios2-elf/lib\libc.a(lib_a-mallocr.o)
 .debug_frame   0x000000000000086c       0x20 d:/intel_fpga/nios2eds/bin/gnu/h-x86_64-mingw32/bin/../lib/gcc/nios2-elf/10.3.1/../../../../../H-x86_64-mingw32/nios2-elf/lib\libc.a(lib_a-memchr.o)
 .debug_frame   0x000000000000088c       0x20 d:/intel_fpga/nios2eds/bin/gnu/h-x86_64-mingw32/bin/../lib/gcc/nios2-elf/10.3.1/../../../../../H-x86_64-mingw32/nios2-elf/lib\libc.a(lib_a-memcpy.o)
 .debug_frame   0x00000000000008ac       0x20 d:/intel_fpga/nios2eds/bin/gnu/h-x86_64-mingw32/bin/../lib/gcc/nios2-elf/10.3.1/../../../../../H-x86_64-mingw32/nios2-elf/lib\libc.a(lib_a-memset.o)
 .debug_frame   0x00000000000008cc       0x3c d:/intel_fpga/nios2eds/bin/gnu/h-x86_64-mingw32/bin/../lib/gcc/nios2-elf/10.3.1/../../../../../H-x86_64-mingw32/nios2-elf/lib\libc.a(lib_a-openr.o)
 .debug_frame   0x0000000000000908       0x48 d:/intel_fpga/nios2eds/bin/gnu/h-x86_64-mingw32/bin/../lib/gcc/nios2-elf/10.3.1/../../../../../H-x86_64-mingw32/nios2-elf/lib\libc.a(lib_a-printf.o)
 .debug_frame   0x0000000000000950       0x48 d:/intel_fpga/nios2eds/bin/gnu/h-x86_64-mingw32/bin/../lib/gcc/nios2-elf/10.3.1/../../../../../H-x86_64-mingw32/nios2-elf/lib\libc.a(lib_a-puts.o)
 .debug_frame   0x0000000000000998       0x4c d:/intel_fpga/nios2eds/bin/gnu/h-x86_64-mingw32/bin/../lib/gcc/nios2-elf/10.3.1/../../../../../H-x86_64-mingw32/nios2-elf/lib\libc.a(lib_a-refill.o)
 .debug_frame   0x00000000000009e4       0x60 d:/intel_fpga/nios2eds/bin/gnu/h-x86_64-mingw32/bin/../lib/gcc/nios2-elf/10.3.1/../../../../../H-x86_64-mingw32/nios2-elf/lib\libc.a(lib_a-rget.o)
 .debug_frame   0x0000000000000a44       0x3c d:/intel_fpga/nios2eds/bin/gnu/h-x86_64-mingw32/bin/../lib/gcc/nios2-elf/10.3.1/../../../../../H-x86_64-mingw32/nios2-elf/lib\libc.a(lib_a-sbrkr.o)
 .debug_frame   0x0000000000000a80       0x48 d:/intel_fpga/nios2eds/bin/gnu/h-x86_64-mingw32/bin/../lib/gcc/nios2-elf/10.3.1/../../../../../H-x86_64-mingw32/nios2-elf/lib\libc.a(lib_a-sprintf.o)
 .debug_frame   0x0000000000000ac8       0x5c d:/intel_fpga/nios2eds/bin/gnu/h-x86_64-mingw32/bin/../lib/gcc/nios2-elf/10.3.1/../../../../../H-x86_64-mingw32/nios2-elf/lib\libc.a(lib_a-sscanf.o)
 .debug_frame   0x0000000000000b24       0xb8 d:/intel_fpga/nios2eds/bin/gnu/h-x86_64-mingw32/bin/../lib/gcc/nios2-elf/10.3.1/../../../../../H-x86_64-mingw32/nios2-elf/lib\libc.a(lib_a-stdio.o)
 .debug_frame   0x0000000000000bdc       0x30 d:/intel_fpga/nios2eds/bin/gnu/h-x86_64-mingw32/bin/../lib/gcc/nios2-elf/10.3.1/../../../../../H-x86_64-mingw32/nios2-elf/lib\libc.a(lib_a-strcat.o)
 .debug_frame   0x0000000000000c0c       0x20 d:/intel_fpga/nios2eds/bin/gnu/h-x86_64-mingw32/bin/../lib/gcc/nios2-elf/10.3.1/../../../../../H-x86_64-mingw32/nios2-elf/lib\libc.a(lib_a-strchr.o)
 .debug_frame   0x0000000000000c2c       0x20 d:/intel_fpga/nios2eds/bin/gnu/h-x86_64-mingw32/bin/../lib/gcc/nios2-elf/10.3.1/../../../../../H-x86_64-mingw32/nios2-elf/lib\libc.a(lib_a-strcmp.o)
 .debug_frame   0x0000000000000c4c       0x20 d:/intel_fpga/nios2eds/bin/gnu/h-x86_64-mingw32/bin/../lib/gcc/nios2-elf/10.3.1/../../../../../H-x86_64-mingw32/nios2-elf/lib\libc.a(lib_a-strcpy.o)
 .debug_frame   0x0000000000000c6c       0x20 d:/intel_fpga/nios2eds/bin/gnu/h-x86_64-mingw32/bin/../lib/gcc/nios2-elf/10.3.1/../../../../../H-x86_64-mingw32/nios2-elf/lib\libc.a(lib_a-strlen.o)
 .debug_frame   0x0000000000000c8c       0xb0 d:/intel_fpga/nios2eds/bin/gnu/h-x86_64-mingw32/bin/../lib/gcc/nios2-elf/10.3.1/../../../../../H-x86_64-mingw32/nios2-elf/lib\libc.a(lib_a-strstr.o)
 .debug_frame   0x0000000000000d3c       0x58 d:/intel_fpga/nios2eds/bin/gnu/h-x86_64-mingw32/bin/../lib/gcc/nios2-elf/10.3.1/../../../../../H-x86_64-mingw32/nios2-elf/lib\libc.a(lib_a-svfprintf.o)
 .debug_frame   0x0000000000000d94       0x58 d:/intel_fpga/nios2eds/bin/gnu/h-x86_64-mingw32/bin/../lib/gcc/nios2-elf/10.3.1/../../../../../H-x86_64-mingw32/nios2-elf/lib\libc.a(lib_a-svfscanf.o)
 .debug_frame   0x0000000000000dec       0xb0 d:/intel_fpga/nios2eds/bin/gnu/h-x86_64-mingw32/bin/../lib/gcc/nios2-elf/10.3.1/../../../../../H-x86_64-mingw32/nios2-elf/lib\libc.a(lib_a-vfprintf.o)
 .debug_frame   0x0000000000000e9c       0x3c d:/intel_fpga/nios2eds/bin/gnu/h-x86_64-mingw32/bin/../lib/gcc/nios2-elf/10.3.1/../../../../../H-x86_64-mingw32/nios2-elf/lib\libc.a(lib_a-writer.o)
 .debug_frame   0x0000000000000ed8       0x38 d:/intel_fpga/nios2eds/bin/gnu/h-x86_64-mingw32/bin/../lib/gcc/nios2-elf/10.3.1/../../../../../H-x86_64-mingw32/nios2-elf/lib\libc.a(lib_a-wsetup.o)
 .debug_frame   0x0000000000000f10       0x3c d:/intel_fpga/nios2eds/bin/gnu/h-x86_64-mingw32/bin/../lib/gcc/nios2-elf/10.3.1/../../../../../H-x86_64-mingw32/nios2-elf/lib\libc.a(closer.o)
 .debug_frame   0x0000000000000f4c       0x9c d:/intel_fpga/nios2eds/bin/gnu/h-x86_64-mingw32/bin/../lib/gcc/nios2-elf/10.3.1/../../../../../H-x86_64-mingw32/nios2-elf/lib\libc.a(lib_a-dtoa.o)
 .debug_frame   0x0000000000000fe8       0x94 d:/intel_fpga/nios2eds/bin/gnu/h-x86_64-mingw32/bin/../lib/gcc/nios2-elf/10.3.1/../../../../../H-x86_64-mingw32/nios2-elf/lib\libc.a(lib_a-fclose.o)
 .debug_frame   0x000000000000107c       0x20 d:/intel_fpga/nios2eds/bin/gnu/h-x86_64-mingw32/bin/../lib/gcc/nios2-elf/10.3.1/../../../../../H-x86_64-mingw32/nios2-elf/lib\libc.a(lib_a-flags.o)
 .debug_frame   0x000000000000109c       0x7c d:/intel_fpga/nios2eds/bin/gnu/h-x86_64-mingw32/bin/../lib/gcc/nios2-elf/10.3.1/../../../../../H-x86_64-mingw32/nios2-elf/lib\libc.a(lib_a-fvwrite.o)
 .debug_frame   0x0000000000001118       0x3c d:/intel_fpga/nios2eds/bin/gnu/h-x86_64-mingw32/bin/../lib/gcc/nios2-elf/10.3.1/../../../../../H-x86_64-mingw32/nios2-elf/lib\libc.a(lib_a-isattyr.o)
 .debug_frame   0x0000000000001154       0x20 d:/intel_fpga/nios2eds/bin/gnu/h-x86_64-mingw32/bin/../lib/gcc/nios2-elf/10.3.1/../../../../../H-x86_64-mingw32/nios2-elf/lib\libc.a(lib_a-iswspace.o)
 .debug_frame   0x0000000000001174       0x20 d:/intel_fpga/nios2eds/bin/gnu/h-x86_64-mingw32/bin/../lib/gcc/nios2-elf/10.3.1/../../../../../H-x86_64-mingw32/nios2-elf/lib\libc.a(lib_a-iswspace_l.o)
 .debug_frame   0x0000000000001194       0x80 d:/intel_fpga/nios2eds/bin/gnu/h-x86_64-mingw32/bin/../lib/gcc/nios2-elf/10.3.1/../../../../../H-x86_64-mingw32/nios2-elf/lib\libc.a(lib_a-locale.o)
 .debug_frame   0x0000000000001214       0x40 d:/intel_fpga/nios2eds/bin/gnu/h-x86_64-mingw32/bin/../lib/gcc/nios2-elf/10.3.1/../../../../../H-x86_64-mingw32/nios2-elf/lib\libc.a(lib_a-localeconv.o)
 .debug_frame   0x0000000000001254       0x3c d:/intel_fpga/nios2eds/bin/gnu/h-x86_64-mingw32/bin/../lib/gcc/nios2-elf/10.3.1/../../../../../H-x86_64-mingw32/nios2-elf/lib\libc.a(lib_a-lseekr.o)
 .debug_frame   0x0000000000001290       0x60 d:/intel_fpga/nios2eds/bin/gnu/h-x86_64-mingw32/bin/../lib/gcc/nios2-elf/10.3.1/../../../../../H-x86_64-mingw32/nios2-elf/lib\libc.a(lib_a-mbrtowc.o)
 .debug_frame   0x00000000000012f0       0x40 d:/intel_fpga/nios2eds/bin/gnu/h-x86_64-mingw32/bin/../lib/gcc/nios2-elf/10.3.1/../../../../../H-x86_64-mingw32/nios2-elf/lib\libc.a(lib_a-mbtowc_r.o)
 .debug_frame   0x0000000000001330       0x20 d:/intel_fpga/nios2eds/bin/gnu/h-x86_64-mingw32/bin/../lib/gcc/nios2-elf/10.3.1/../../../../../H-x86_64-mingw32/nios2-elf/lib\libc.a(lib_a-memcmp.o)
 .debug_frame   0x0000000000001350       0x20 d:/intel_fpga/nios2eds/bin/gnu/h-x86_64-mingw32/bin/../lib/gcc/nios2-elf/10.3.1/../../../../../H-x86_64-mingw32/nios2-elf/lib\libc.a(lib_a-memmove.o)
 .debug_frame   0x0000000000001370      0x2e0 d:/intel_fpga/nios2eds/bin/gnu/h-x86_64-mingw32/bin/../lib/gcc/nios2-elf/10.3.1/../../../../../H-x86_64-mingw32/nios2-elf/lib\libc.a(lib_a-mprec.o)
 .debug_frame   0x0000000000001650       0x3c d:/intel_fpga/nios2eds/bin/gnu/h-x86_64-mingw32/bin/../lib/gcc/nios2-elf/10.3.1/../../../../../H-x86_64-mingw32/nios2-elf/lib\libc.a(lib_a-readr.o)
 .debug_frame   0x000000000000168c       0x70 d:/intel_fpga/nios2eds/bin/gnu/h-x86_64-mingw32/bin/../lib/gcc/nios2-elf/10.3.1/../../../../../H-x86_64-mingw32/nios2-elf/lib\libc.a(lib_a-reallocr.o)
 .debug_frame   0x00000000000016fc       0x50 d:/intel_fpga/nios2eds/bin/gnu/h-x86_64-mingw32/bin/../lib/gcc/nios2-elf/10.3.1/../../../../../H-x86_64-mingw32/nios2-elf/lib\libc.a(lib_a-sccl.o)
 .debug_frame   0x000000000000174c       0x20 d:/intel_fpga/nios2eds/bin/gnu/h-x86_64-mingw32/bin/../lib/gcc/nios2-elf/10.3.1/../../../../../H-x86_64-mingw32/nios2-elf/lib\libc.a(lib_a-strnlen.o)
 .debug_frame   0x000000000000176c       0xf0 d:/intel_fpga/nios2eds/bin/gnu/h-x86_64-mingw32/bin/../lib/gcc/nios2-elf/10.3.1/../../../../../H-x86_64-mingw32/nios2-elf/lib\libc.a(lib_a-strtod.o)
 .debug_frame   0x000000000000185c       0xa8 d:/intel_fpga/nios2eds/bin/gnu/h-x86_64-mingw32/bin/../lib/gcc/nios2-elf/10.3.1/../../../../../H-x86_64-mingw32/nios2-elf/lib\libc.a(lib_a-strtol.o)
 .debug_frame   0x0000000000001904       0x84 d:/intel_fpga/nios2eds/bin/gnu/h-x86_64-mingw32/bin/../lib/gcc/nios2-elf/10.3.1/../../../../../H-x86_64-mingw32/nios2-elf/lib\libc.a(lib_a-strtoll.o)
 .debug_frame   0x0000000000001988       0x80 d:/intel_fpga/nios2eds/bin/gnu/h-x86_64-mingw32/bin/../lib/gcc/nios2-elf/10.3.1/../../../../../H-x86_64-mingw32/nios2-elf/lib\libc.a(lib_a-strtoul.o)
 .debug_frame   0x0000000000001a08       0x84 d:/intel_fpga/nios2eds/bin/gnu/h-x86_64-mingw32/bin/../lib/gcc/nios2-elf/10.3.1/../../../../../H-x86_64-mingw32/nios2-elf/lib\libc.a(lib_a-strtoull.o)
 .debug_frame   0x0000000000001a8c       0x9c d:/intel_fpga/nios2eds/bin/gnu/h-x86_64-mingw32/bin/../lib/gcc/nios2-elf/10.3.1/../../../../../H-x86_64-mingw32/nios2-elf/lib\libc.a(lib_a-svfiprintf.o)
 .debug_frame   0x0000000000001b28       0xec d:/intel_fpga/nios2eds/bin/gnu/h-x86_64-mingw32/bin/../lib/gcc/nios2-elf/10.3.1/../../../../../H-x86_64-mingw32/nios2-elf/lib\libc.a(lib_a-svfiscanf.o)
 .debug_frame   0x0000000000001c14       0x80 d:/intel_fpga/nios2eds/bin/gnu/h-x86_64-mingw32/bin/../lib/gcc/nios2-elf/10.3.1/../../../../../H-x86_64-mingw32/nios2-elf/lib\libc.a(lib_a-ungetc.o)
 .debug_frame   0x0000000000001c94      0x104 d:/intel_fpga/nios2eds/bin/gnu/h-x86_64-mingw32/bin/../lib/gcc/nios2-elf/10.3.1/../../../../../H-x86_64-mingw32/nios2-elf/lib\libc.a(lib_a-vfiprintf.o)
 .debug_frame   0x0000000000001d98       0x30 d:/intel_fpga/nios2eds/bin/gnu/h-x86_64-mingw32/bin/../lib/gcc/nios2-elf/10.3.1/../../../../../H-x86_64-mingw32/nios2-elf/lib\libc.a(lib_a-wctomb_r.o)
 .debug_frame   0x0000000000001dc8       0x40 d:/intel_fpga/nios2eds/bin/gnu/h-x86_64-mingw32/bin/../lib/gcc/nios2-elf/10.3.1/../../../../../H-x86_64-mingw32/nios2-elf/lib\libc.a(lib_a-assert.o)
 .debug_frame   0x0000000000001e08       0x38 d:/intel_fpga/nios2eds/bin/gnu/h-x86_64-mingw32/bin/../lib/gcc/nios2-elf/10.3.1/../../../../../H-x86_64-mingw32/nios2-elf/lib\libc.a(lib_a-callocr.o)
 .debug_frame   0x0000000000001e40       0x20 d:/intel_fpga/nios2eds/bin/gnu/h-x86_64-mingw32/bin/../lib/gcc/nios2-elf/10.3.1/../../../../../H-x86_64-mingw32/nios2-elf/lib\libc.a(lib_a-errno.o)
 .debug_frame   0x0000000000001e60       0x48 d:/intel_fpga/nios2eds/bin/gnu/h-x86_64-mingw32/bin/../lib/gcc/nios2-elf/10.3.1/../../../../../H-x86_64-mingw32/nios2-elf/lib\libc.a(lib_a-fiprintf.o)
 .debug_frame   0x0000000000001ea8       0x78 d:/intel_fpga/nios2eds/bin/gnu/h-x86_64-mingw32/bin/../lib/gcc/nios2-elf/10.3.1/../../../../../H-x86_64-mingw32/nios2-elf/lib\libc.a(lib_a-fputwc.o)
 .debug_frame   0x0000000000001f20       0x68 d:/intel_fpga/nios2eds/bin/gnu/h-x86_64-mingw32/bin/../lib/gcc/nios2-elf/10.3.1/../../../../../H-x86_64-mingw32/nios2-elf/lib\libc.a(lib_a-gdtoa-gethex.o)
 .debug_frame   0x0000000000001f88       0x4c d:/intel_fpga/nios2eds/bin/gnu/h-x86_64-mingw32/bin/../lib/gcc/nios2-elf/10.3.1/../../../../../H-x86_64-mingw32/nios2-elf/lib\libc.a(lib_a-gdtoa-hexnan.o)
 .debug_frame   0x0000000000001fd4       0x20 d:/intel_fpga/nios2eds/bin/gnu/h-x86_64-mingw32/bin/../lib/gcc/nios2-elf/10.3.1/../../../../../H-x86_64-mingw32/nios2-elf/lib\libc.a(lib_a-lnumeric.o)
 .debug_frame   0x0000000000001ff4       0x20 d:/intel_fpga/nios2eds/bin/gnu/h-x86_64-mingw32/bin/../lib/gcc/nios2-elf/10.3.1/../../../../../H-x86_64-mingw32/nios2-elf/lib\libc.a(lib_a-strncmp.o)
 .debug_frame   0x0000000000002014       0x20 d:/intel_fpga/nios2eds/bin/gnu/h-x86_64-mingw32/bin/../lib/gcc/nios2-elf/10.3.1/../../../../../H-x86_64-mingw32/nios2-elf/lib\libc.a(lib_a-vfiprintfr_1.o)
 .debug_frame   0x0000000000002034       0x50 d:/intel_fpga/nios2eds/bin/gnu/h-x86_64-mingw32/bin/../lib/gcc/nios2-elf/10.3.1/../../../../../H-x86_64-mingw32/nios2-elf/lib\libc.a(lib_a-wbuf.o)
 .debug_frame   0x0000000000002084       0x60 d:/intel_fpga/nios2eds/bin/gnu/h-x86_64-mingw32/bin/../lib/gcc/nios2-elf/10.3.1/../../../../../H-x86_64-mingw32/nios2-elf/lib\libc.a(lib_a-wcrtomb.o)
 .debug_frame   0x00000000000020e4       0x28 d:/intel_fpga/nios2eds/bin/gnu/h-x86_64-mingw32/bin/../lib/gcc/nios2-elf/10.3.1/../../../../../H-x86_64-mingw32/nios2-elf/lib\libc.a(lib_a-abort.o)
 .debug_frame   0x000000000000210c      0x17c d:/intel_fpga/nios2eds/bin/gnu/h-x86_64-mingw32/bin/../lib/gcc/nios2-elf/10.3.1/../../../../../H-x86_64-mingw32/nios2-elf/lib\libc.a(lib_a-signal.o)
 .debug_frame   0x0000000000002288       0x4c d:/intel_fpga/nios2eds/bin/gnu/h-x86_64-mingw32/bin/../lib/gcc/nios2-elf/10.3.1/../../../../../H-x86_64-mingw32/nios2-elf/lib\libc.a(lib_a-signalr.o)
 .debug_frame   0x00000000000022d4       0x20 d:/intel_fpga/nios2eds/bin/gnu/h-x86_64-mingw32/bin/../lib/gcc/nios2-elf/10.3.1\libgcc.a(_muldi3.o)
 .debug_frame   0x00000000000022f4       0x38 d:/intel_fpga/nios2eds/bin/gnu/h-x86_64-mingw32/bin/../lib/gcc/nios2-elf/10.3.1\libgcc.a(_fixunsdfsi.o)
 .debug_frame   0x000000000000232c       0x40 d:/intel_fpga/nios2eds/bin/gnu/h-x86_64-mingw32/bin/../lib/gcc/nios2-elf/10.3.1\libgcc.a(_fixdfdi.o)
 .debug_frame   0x000000000000236c       0x38 d:/intel_fpga/nios2eds/bin/gnu/h-x86_64-mingw32/bin/../lib/gcc/nios2-elf/10.3.1\libgcc.a(_fixunsdfdi.o)
 .debug_frame   0x00000000000023a4       0x3c d:/intel_fpga/nios2eds/bin/gnu/h-x86_64-mingw32/bin/../lib/gcc/nios2-elf/10.3.1\libgcc.a(_floatdidf.o)
 .debug_frame   0x00000000000023e0       0x54 d:/intel_fpga/nios2eds/bin/gnu/h-x86_64-mingw32/bin/../lib/gcc/nios2-elf/10.3.1\libgcc.a(_udivdi3.o)
 .debug_frame   0x0000000000002434       0x54 d:/intel_fpga/nios2eds/bin/gnu/h-x86_64-mingw32/bin/../lib/gcc/nios2-elf/10.3.1\libgcc.a(_umoddi3.o)
 .debug_frame   0x0000000000002488       0x50 d:/intel_fpga/nios2eds/bin/gnu/h-x86_64-mingw32/bin/../lib/gcc/nios2-elf/10.3.1\libgcc.a(lib2-divmod.o)
 .debug_frame   0x00000000000024d8       0x20 d:/intel_fpga/nios2eds/bin/gnu/h-x86_64-mingw32/bin/../lib/gcc/nios2-elf/10.3.1\libgcc.a(lesf2.o)
 .debug_frame   0x00000000000024f8       0x20 d:/intel_fpga/nios2eds/bin/gnu/h-x86_64-mingw32/bin/../lib/gcc/nios2-elf/10.3.1\libgcc.a(unordsf2.o)
 .debug_frame   0x0000000000002518       0x44 d:/intel_fpga/nios2eds/bin/gnu/h-x86_64-mingw32/bin/../lib/gcc/nios2-elf/10.3.1\libgcc.a(adddf3.o)
 .debug_frame   0x000000000000255c       0x58 d:/intel_fpga/nios2eds/bin/gnu/h-x86_64-mingw32/bin/../lib/gcc/nios2-elf/10.3.1\libgcc.a(divdf3.o)
 .debug_frame   0x00000000000025b4       0x20 d:/intel_fpga/nios2eds/bin/gnu/h-x86_64-mingw32/bin/../lib/gcc/nios2-elf/10.3.1\libgcc.a(eqdf2.o)
 .debug_frame   0x00000000000025d4       0x20 d:/intel_fpga/nios2eds/bin/gnu/h-x86_64-mingw32/bin/../lib/gcc/nios2-elf/10.3.1\libgcc.a(gedf2.o)
 .debug_frame   0x00000000000025f4       0x20 d:/intel_fpga/nios2eds/bin/gnu/h-x86_64-mingw32/bin/../lib/gcc/nios2-elf/10.3.1\libgcc.a(ledf2.o)
 .debug_frame   0x0000000000002614       0x54 d:/intel_fpga/nios2eds/bin/gnu/h-x86_64-mingw32/bin/../lib/gcc/nios2-elf/10.3.1\libgcc.a(muldf3.o)
 .debug_frame   0x0000000000002668       0x44 d:/intel_fpga/nios2eds/bin/gnu/h-x86_64-mingw32/bin/../lib/gcc/nios2-elf/10.3.1\libgcc.a(subdf3.o)
 .debug_frame   0x00000000000026ac       0x20 d:/intel_fpga/nios2eds/bin/gnu/h-x86_64-mingw32/bin/../lib/gcc/nios2-elf/10.3.1\libgcc.a(unorddf2.o)
 .debug_frame   0x00000000000026cc       0x20 d:/intel_fpga/nios2eds/bin/gnu/h-x86_64-mingw32/bin/../lib/gcc/nios2-elf/10.3.1\libgcc.a(fixdfsi.o)
 .debug_frame   0x00000000000026ec       0x38 d:/intel_fpga/nios2eds/bin/gnu/h-x86_64-mingw32/bin/../lib/gcc/nios2-elf/10.3.1\libgcc.a(floatsidf.o)
 .debug_frame   0x0000000000002724       0x34 d:/intel_fpga/nios2eds/bin/gnu/h-x86_64-mingw32/bin/../lib/gcc/nios2-elf/10.3.1\libgcc.a(floatunsidf.o)
 .debug_frame   0x0000000000002758       0x20 d:/intel_fpga/nios2eds/bin/gnu/h-x86_64-mingw32/bin/../lib/gcc/nios2-elf/10.3.1\libgcc.a(truncdfsf2.o)
 .debug_frame   0x0000000000002778       0x20 d:/intel_fpga/nios2eds/bin/gnu/h-x86_64-mingw32/bin/../lib/gcc/nios2-elf/10.3.1\libgcc.a(_clzsi2.o)
 .debug_frame   0x0000000000002798       0x60 d:/Downloads/RFS/DE10_Nano_WiFi_Web_Server/software/ewaff_server_bsp/\libhal_bsp.a(alt_close.o)
 .debug_frame   0x00000000000027f8       0x34 d:/Downloads/RFS/DE10_Nano_WiFi_Web_Server/software/ewaff_server_bsp/\libhal_bsp.a(alt_dev.o)
 .debug_frame   0x000000000000282c       0x2c d:/Downloads/RFS/DE10_Nano_WiFi_Web_Server/software/ewaff_server_bsp/\libhal_bsp.a(alt_exit.o)
 .debug_frame   0x0000000000002858       0x60 d:/Downloads/RFS/DE10_Nano_WiFi_Web_Server/software/ewaff_server_bsp/\libhal_bsp.a(alt_fcntl.o)
 .debug_frame   0x00000000000028b8       0x60 d:/Downloads/RFS/DE10_Nano_WiFi_Web_Server/software/ewaff_server_bsp/\libhal_bsp.a(alt_fstat.o)
 .debug_frame   0x0000000000002918       0x34 d:/Downloads/RFS/DE10_Nano_WiFi_Web_Server/software/ewaff_server_bsp/\libhal_bsp.a(alt_getpid.o)
 .debug_frame   0x000000000000294c       0x60 d:/Downloads/RFS/DE10_Nano_WiFi_Web_Server/software/ewaff_server_bsp/\libhal_bsp.a(alt_isatty.o)
 .debug_frame   0x00000000000029ac       0x60 d:/Downloads/RFS/DE10_Nano_WiFi_Web_Server/software/ewaff_server_bsp/\libhal_bsp.a(alt_kill.o)
 .debug_frame   0x0000000000002a0c       0x5c d:/Downloads/RFS/DE10_Nano_WiFi_Web_Server/software/ewaff_server_bsp/\libhal_bsp.a(alt_load.o)
 .debug_frame   0x0000000000002a68       0x60 d:/Downloads/RFS/DE10_Nano_WiFi_Web_Server/software/ewaff_server_bsp/\libhal_bsp.a(alt_lseek.o)
 .debug_frame   0x0000000000002ac8       0x2c d:/Downloads/RFS/DE10_Nano_WiFi_Web_Server/software/ewaff_server_bsp/\libhal_bsp.a(alt_main.o)
 .debug_frame   0x0000000000002af4       0x58 d:/Downloads/RFS/DE10_Nano_WiFi_Web_Server/software/ewaff_server_bsp/\libhal_bsp.a(alt_malloc_lock.o)
 .debug_frame   0x0000000000002b4c       0x84 d:/Downloads/RFS/DE10_Nano_WiFi_Web_Server/software/ewaff_server_bsp/\libhal_bsp.a(alt_open.o)
 .debug_frame   0x0000000000002bd0       0x60 d:/Downloads/RFS/DE10_Nano_WiFi_Web_Server/software/ewaff_server_bsp/\libhal_bsp.a(alt_read.o)
 .debug_frame   0x0000000000002c30       0x34 d:/Downloads/RFS/DE10_Nano_WiFi_Web_Server/software/ewaff_server_bsp/\libhal_bsp.a(alt_release_fd.o)
 .debug_frame   0x0000000000002c64       0x34 d:/Downloads/RFS/DE10_Nano_WiFi_Web_Server/software/ewaff_server_bsp/\libhal_bsp.a(alt_sbrk.o)
 .debug_frame   0x0000000000002c98       0x38 d:/Downloads/RFS/DE10_Nano_WiFi_Web_Server/software/ewaff_server_bsp/\libhal_bsp.a(alt_usleep.o)
 .debug_frame   0x0000000000002cd0       0x60 d:/Downloads/RFS/DE10_Nano_WiFi_Web_Server/software/ewaff_server_bsp/\libhal_bsp.a(alt_write.o)
 .debug_frame   0x0000000000002d30       0x88 d:/Downloads/RFS/DE10_Nano_WiFi_Web_Server/software/ewaff_server_bsp/\libhal_bsp.a(alt_sys_init.o)
 .debug_frame   0x0000000000002db8       0xb0 d:/Downloads/RFS/DE10_Nano_WiFi_Web_Server/software/ewaff_server_bsp/\libhal_bsp.a(altera_avalon_jtag_uart_fd.o)
 .debug_frame   0x0000000000002e68       0xa4 d:/Downloads/RFS/DE10_Nano_WiFi_Web_Server/software/ewaff_server_bsp/\libhal_bsp.a(altera_avalon_jtag_uart_init.o)
 .debug_frame   0x0000000000002f0c       0x34 d:/Downloads/RFS/DE10_Nano_WiFi_Web_Server/software/ewaff_server_bsp/\libhal_bsp.a(altera_avalon_jtag_uart_ioctl.o)
 .debug_frame   0x0000000000002f40       0x38 d:/Downloads/RFS/DE10_Nano_WiFi_Web_Server/software/ewaff_server_bsp/\libhal_bsp.a(altera_avalon_jtag_uart_read.o)
 .debug_frame   0x0000000000002f78       0x38 d:/Downloads/RFS/DE10_Nano_WiFi_Web_Server/software/ewaff_server_bsp/\libhal_bsp.a(altera_avalon_jtag_uart_write.o)
 .debug_frame   0x0000000000002fb0       0x60 d:/Downloads/RFS/DE10_Nano_WiFi_Web_Server/software/ewaff_server_bsp/\libhal_bsp.a(altera_avalon_timer_sc.o)
 .debug_frame   0x0000000000003010       0x88 d:/Downloads/RFS/DE10_Nano_WiFi_Web_Server/software/ewaff_server_bsp/\libhal_bsp.a(altera_avalon_uart_fd.o)
 .debug_frame   0x0000000000003098       0xcc d:/Downloads/RFS/DE10_Nano_WiFi_Web_Server/software/ewaff_server_bsp/\libhal_bsp.a(altera_avalon_uart_init.o)
 .debug_frame   0x0000000000003164       0x60 d:/Downloads/RFS/DE10_Nano_WiFi_Web_Server/software/ewaff_server_bsp/\libhal_bsp.a(altera_avalon_uart_read.o)
 .debug_frame   0x00000000000031c4       0x60 d:/Downloads/RFS/DE10_Nano_WiFi_Web_Server/software/ewaff_server_bsp/\libhal_bsp.a(altera_avalon_uart_write.o)
 .debug_frame   0x0000000000003224       0x34 d:/Downloads/RFS/DE10_Nano_WiFi_Web_Server/software/ewaff_server_bsp/\libhal_bsp.a(alt_alarm_start.o)
 .debug_frame   0x0000000000003258       0x38 d:/Downloads/RFS/DE10_Nano_WiFi_Web_Server/software/ewaff_server_bsp/\libhal_bsp.a(alt_busy_sleep.o)
 .debug_frame   0x0000000000003290       0x34 d:/Downloads/RFS/DE10_Nano_WiFi_Web_Server/software/ewaff_server_bsp/\libhal_bsp.a(alt_dcache_flush_all.o)
 .debug_frame   0x00000000000032c4       0x60 d:/Downloads/RFS/DE10_Nano_WiFi_Web_Server/software/ewaff_server_bsp/\libhal_bsp.a(alt_dev_llist_insert.o)
 .debug_frame   0x0000000000003324       0x38 d:/Downloads/RFS/DE10_Nano_WiFi_Web_Server/software/ewaff_server_bsp/\libhal_bsp.a(alt_do_ctors.o)
 .debug_frame   0x000000000000335c       0x38 d:/Downloads/RFS/DE10_Nano_WiFi_Web_Server/software/ewaff_server_bsp/\libhal_bsp.a(alt_do_dtors.o)
 .debug_frame   0x0000000000003394       0x38 d:/Downloads/RFS/DE10_Nano_WiFi_Web_Server/software/ewaff_server_bsp/\libhal_bsp.a(alt_find_dev.o)
 .debug_frame   0x00000000000033cc       0x38 d:/Downloads/RFS/DE10_Nano_WiFi_Web_Server/software/ewaff_server_bsp/\libhal_bsp.a(alt_find_file.o)
 .debug_frame   0x0000000000003404       0x34 d:/Downloads/RFS/DE10_Nano_WiFi_Web_Server/software/ewaff_server_bsp/\libhal_bsp.a(alt_get_fd.o)
 .debug_frame   0x0000000000003438       0x38 d:/Downloads/RFS/DE10_Nano_WiFi_Web_Server/software/ewaff_server_bsp/\libhal_bsp.a(alt_icache_flush_all.o)
 .debug_frame   0x0000000000003470       0xa4 d:/Downloads/RFS/DE10_Nano_WiFi_Web_Server/software/ewaff_server_bsp/\libhal_bsp.a(alt_iic.o)
 .debug_frame   0x0000000000003514       0x38 d:/Downloads/RFS/DE10_Nano_WiFi_Web_Server/software/ewaff_server_bsp/\libhal_bsp.a(alt_iic_isr_register.o)
 .debug_frame   0x000000000000354c       0x60 d:/Downloads/RFS/DE10_Nano_WiFi_Web_Server/software/ewaff_server_bsp/\libhal_bsp.a(alt_io_redirect.o)
 .debug_frame   0x00000000000035ac       0x38 d:/Downloads/RFS/DE10_Nano_WiFi_Web_Server/software/ewaff_server_bsp/\libhal_bsp.a(alt_irq_handler.o)
 .debug_frame   0x00000000000035e4       0x64 d:/Downloads/RFS/DE10_Nano_WiFi_Web_Server/software/ewaff_server_bsp/\libhal_bsp.a(alt_tick.o)
 .debug_frame   0x0000000000003648       0x34 d:/Downloads/RFS/DE10_Nano_WiFi_Web_Server/software/ewaff_server_bsp/\libhal_bsp.a(altera_nios2_gen2_irq.o)
 .debug_frame   0x000000000000367c       0x34 d:/Downloads/RFS/DE10_Nano_WiFi_Web_Server/software/ewaff_server_bsp/\libhal_bsp.a(alt_icache_flush.o)
 .debug_frame   0x00000000000036b0       0x5c d:/Downloads/RFS/DE10_Nano_WiFi_Web_Server/software/ewaff_server_bsp/\libhal_bsp.a(alt_instruction_exception_entry.o)
 .debug_frame   0x000000000000370c       0x20 d:/intel_fpga/nios2eds/bin/gnu/h-x86_64-mingw32/bin/../lib/gcc/nios2-elf/10.3.1/../../../../../H-x86_64-mingw32/nios2-elf/lib\libc.a(lib_a-atexit.o)
 .debug_frame   0x000000000000372c       0x28 d:/intel_fpga/nios2eds/bin/gnu/h-x86_64-mingw32/bin/../lib/gcc/nios2-elf/10.3.1/../../../../../H-x86_64-mingw32/nios2-elf/lib\libc.a(lib_a-exit.o)
 .debug_frame   0x0000000000003754       0x20 d:/intel_fpga/nios2eds/bin/gnu/h-x86_64-mingw32/bin/../lib/gcc/nios2-elf/10.3.1/../../../../../H-x86_64-mingw32/nios2-elf/lib\libc.a(lib_a-__atexit.o)
 .debug_frame   0x0000000000003774       0x54 d:/intel_fpga/nios2eds/bin/gnu/h-x86_64-mingw32/bin/../lib/gcc/nios2-elf/10.3.1/../../../../../H-x86_64-mingw32/nios2-elf/lib\libc.a(lib_a-__call_atexit.o)

.debug_str      0x0000000000000000     0x53e7
 *(.debug_str)
 .debug_str     0x0000000000000000       0x63 d:/Downloads/RFS/DE10_Nano_WiFi_Web_Server/software/ewaff_server_bsp//obj/HAL/src/crt0.o
 .debug_str     0x0000000000000063      0x71a obj/default/esp8266.o
                                        0x828 (size before relaxing)
 .debug_str     0x000000000000077d      0x71a obj/default/main.o
                                        0x132 (size before relaxing)
 .debug_str     0x000000000000077d      0x17c d:/intel_fpga/nios2eds/bin/gnu/h-x86_64-mingw32/bin/../lib/gcc/nios2-elf/10.3.1\libgcc.a(fixsfsi.o)
                                        0x20d (size before relaxing)
 .debug_str     0x00000000000008f9      0x189 d:/intel_fpga/nios2eds/bin/gnu/h-x86_64-mingw32/bin/../lib/gcc/nios2-elf/10.3.1/../../../../../H-x86_64-mingw32/nios2-elf/lib\libc.a(lib_a-fflush.o)
                                        0x5fc (size before relaxing)
 .debug_str     0x0000000000000a82       0x53 d:/intel_fpga/nios2eds/bin/gnu/h-x86_64-mingw32/bin/../lib/gcc/nios2-elf/10.3.1/../../../../../H-x86_64-mingw32/nios2-elf/lib\libc.a(lib_a-fgetc.o)
                                        0x5bf (size before relaxing)
 .debug_str     0x0000000000000ad5       0x6d d:/intel_fpga/nios2eds/bin/gnu/h-x86_64-mingw32/bin/../lib/gcc/nios2-elf/10.3.1/../../../../../H-x86_64-mingw32/nios2-elf/lib\libc.a(lib_a-fgets.o)
                                        0x5da (size before relaxing)
 .debug_str     0x0000000000000b42       0x42 d:/intel_fpga/nios2eds/bin/gnu/h-x86_64-mingw32/bin/../lib/gcc/nios2-elf/10.3.1/../../../../../H-x86_64-mingw32/nios2-elf/lib\libc.a(lib_a-fileno.o)
                                        0x5a8 (size before relaxing)
 .debug_str     0x0000000000000b84      0x172 d:/intel_fpga/nios2eds/bin/gnu/h-x86_64-mingw32/bin/../lib/gcc/nios2-elf/10.3.1/../../../../../H-x86_64-mingw32/nios2-elf/lib\libc.a(lib_a-findfp.o)
                                        0x701 (size before relaxing)
 .debug_str     0x0000000000000cf6       0x6a d:/intel_fpga/nios2eds/bin/gnu/h-x86_64-mingw32/bin/../lib/gcc/nios2-elf/10.3.1/../../../../../H-x86_64-mingw32/nios2-elf/lib\libc.a(lib_a-fopen.o)
                                        0x5ed (size before relaxing)
 .debug_str     0x0000000000000d60       0x84 d:/intel_fpga/nios2eds/bin/gnu/h-x86_64-mingw32/bin/../lib/gcc/nios2-elf/10.3.1/../../../../../H-x86_64-mingw32/nios2-elf/lib\libc.a(lib_a-fprintf.o)
                                        0x5c7 (size before relaxing)
 .debug_str     0x0000000000000de4      0x1ff d:/intel_fpga/nios2eds/bin/gnu/h-x86_64-mingw32/bin/../lib/gcc/nios2-elf/10.3.1/../../../../../H-x86_64-mingw32/nios2-elf/lib\libc.a(lib_a-freer.o)
                                        0x6eb (size before relaxing)
 .debug_str     0x0000000000000fe3       0x51 d:/intel_fpga/nios2eds/bin/gnu/h-x86_64-mingw32/bin/../lib/gcc/nios2-elf/10.3.1/../../../../../H-x86_64-mingw32/nios2-elf/lib\libc.a(lib_a-fseek.o)
                                        0x5a8 (size before relaxing)
 .debug_str     0x0000000000001034      0x173 d:/intel_fpga/nios2eds/bin/gnu/h-x86_64-mingw32/bin/../lib/gcc/nios2-elf/10.3.1/../../../../../H-x86_64-mingw32/nios2-elf/lib\libc.a(lib_a-fseeko.o)
                                        0x75b (size before relaxing)
 .debug_str     0x00000000000011a7       0xcb d:/intel_fpga/nios2eds/bin/gnu/h-x86_64-mingw32/bin/../lib/gcc/nios2-elf/10.3.1/../../../../../H-x86_64-mingw32/nios2-elf/lib\libc.a(lib_a-fstatr.o)
                                        0x6d1 (size before relaxing)
 .debug_str     0x0000000000001272       0x49 d:/intel_fpga/nios2eds/bin/gnu/h-x86_64-mingw32/bin/../lib/gcc/nios2-elf/10.3.1/../../../../../H-x86_64-mingw32/nios2-elf/lib\libc.a(lib_a-fwalk.o)
                                        0x5a1 (size before relaxing)
 .debug_str     0x00000000000012bb       0x47 d:/intel_fpga/nios2eds/bin/gnu/h-x86_64-mingw32/bin/../lib/gcc/nios2-elf/10.3.1/../../../../../H-x86_64-mingw32/nios2-elf/lib\libc.a(lib_a-impure.o)
                                        0x59c (size before relaxing)
 .debug_str     0x0000000000001302       0x3e d:/intel_fpga/nios2eds/bin/gnu/h-x86_64-mingw32/bin/../lib/gcc/nios2-elf/10.3.1/../../../../../H-x86_64-mingw32/nios2-elf/lib\libc.a(lib_a-int_errno.o)
                                        0x1ba (size before relaxing)
 .debug_str     0x0000000000001340       0x6b d:/intel_fpga/nios2eds/bin/gnu/h-x86_64-mingw32/bin/../lib/gcc/nios2-elf/10.3.1/../../../../../H-x86_64-mingw32/nios2-elf/lib\libc.a(lib_a-makebuf.o)
                                        0x71d (size before relaxing)
 .debug_str     0x00000000000013ab       0x48 d:/intel_fpga/nios2eds/bin/gnu/h-x86_64-mingw32/bin/../lib/gcc/nios2-elf/10.3.1/../../../../../H-x86_64-mingw32/nios2-elf/lib\libc.a(lib_a-malloc.o)
                                        0x5b0 (size before relaxing)
 .debug_str     0x00000000000013f3       0xd9 d:/intel_fpga/nios2eds/bin/gnu/h-x86_64-mingw32/bin/../lib/gcc/nios2-elf/10.3.1/../../../../../H-x86_64-mingw32/nios2-elf/lib\libc.a(lib_a-mallocr.o)
                                        0x7a1 (size before relaxing)
 .debug_str     0x00000000000014cc       0xcf d:/intel_fpga/nios2eds/bin/gnu/h-x86_64-mingw32/bin/../lib/gcc/nios2-elf/10.3.1/../../../../../H-x86_64-mingw32/nios2-elf/lib\libc.a(lib_a-memchr.o)
                                        0x1db (size before relaxing)
 .debug_str     0x000000000000159b       0x63 d:/intel_fpga/nios2eds/bin/gnu/h-x86_64-mingw32/bin/../lib/gcc/nios2-elf/10.3.1/../../../../../H-x86_64-mingw32/nios2-elf/lib\libc.a(lib_a-memcpy.o)
                                        0x1e8 (size before relaxing)
 .debug_str     0x00000000000015fe       0x49 d:/intel_fpga/nios2eds/bin/gnu/h-x86_64-mingw32/bin/../lib/gcc/nios2-elf/10.3.1/../../../../../H-x86_64-mingw32/nios2-elf/lib\libc.a(lib_a-memset.o)
                                        0x1d5 (size before relaxing)
 .debug_str     0x0000000000001647       0x3a d:/intel_fpga/nios2eds/bin/gnu/h-x86_64-mingw32/bin/../lib/gcc/nios2-elf/10.3.1/../../../../../H-x86_64-mingw32/nios2-elf/lib\libc.a(lib_a-openr.o)
                                        0x593 (size before relaxing)
 .debug_str     0x0000000000001681       0x5c d:/intel_fpga/nios2eds/bin/gnu/h-x86_64-mingw32/bin/../lib/gcc/nios2-elf/10.3.1/../../../../../H-x86_64-mingw32/nios2-elf/lib\libc.a(lib_a-printf.o)
                                        0x5e2 (size before relaxing)
 .debug_str     0x00000000000016dd       0x96 d:/intel_fpga/nios2eds/bin/gnu/h-x86_64-mingw32/bin/../lib/gcc/nios2-elf/10.3.1/../../../../../H-x86_64-mingw32/nios2-elf/lib\libc.a(lib_a-puts.o)
                                        0x603 (size before relaxing)
 .debug_str     0x0000000000001773       0x4d d:/intel_fpga/nios2eds/bin/gnu/h-x86_64-mingw32/bin/../lib/gcc/nios2-elf/10.3.1/../../../../../H-x86_64-mingw32/nios2-elf/lib\libc.a(lib_a-refill.o)
                                        0x5f7 (size before relaxing)
 .debug_str     0x00000000000017c0       0x41 d:/intel_fpga/nios2eds/bin/gnu/h-x86_64-mingw32/bin/../lib/gcc/nios2-elf/10.3.1/../../../../../H-x86_64-mingw32/nios2-elf/lib\libc.a(lib_a-rget.o)
                                        0x5b6 (size before relaxing)
 .debug_str     0x0000000000001801       0x4e d:/intel_fpga/nios2eds/bin/gnu/h-x86_64-mingw32/bin/../lib/gcc/nios2-elf/10.3.1/../../../../../H-x86_64-mingw32/nios2-elf/lib\libc.a(lib_a-sbrkr.o)
                                        0x592 (size before relaxing)
 .debug_str     0x000000000000184f       0x67 d:/intel_fpga/nios2eds/bin/gnu/h-x86_64-mingw32/bin/../lib/gcc/nios2-elf/10.3.1/../../../../../H-x86_64-mingw32/nios2-elf/lib\libc.a(lib_a-sprintf.o)
                                        0x5d7 (size before relaxing)
 .debug_str     0x00000000000018b6       0x5a d:/intel_fpga/nios2eds/bin/gnu/h-x86_64-mingw32/bin/../lib/gcc/nios2-elf/10.3.1/../../../../../H-x86_64-mingw32/nios2-elf/lib\libc.a(lib_a-sscanf.o)
                                        0x5d1 (size before relaxing)
 .debug_str     0x0000000000001910       0x93 d:/intel_fpga/nios2eds/bin/gnu/h-x86_64-mingw32/bin/../lib/gcc/nios2-elf/10.3.1/../../../../../H-x86_64-mingw32/nios2-elf/lib\libc.a(lib_a-stdio.o)
                                        0x5f0 (size before relaxing)
 .debug_str     0x00000000000019a3       0x55 d:/intel_fpga/nios2eds/bin/gnu/h-x86_64-mingw32/bin/../lib/gcc/nios2-elf/10.3.1/../../../../../H-x86_64-mingw32/nios2-elf/lib\libc.a(lib_a-strcat.o)
                                        0x1cc (size before relaxing)
 .debug_str     0x00000000000019f8       0x43 d:/intel_fpga/nios2eds/bin/gnu/h-x86_64-mingw32/bin/../lib/gcc/nios2-elf/10.3.1/../../../../../H-x86_64-mingw32/nios2-elf/lib\libc.a(lib_a-strchr.o)
                                        0x1cc (size before relaxing)
 .debug_str     0x0000000000001a3b       0x43 d:/intel_fpga/nios2eds/bin/gnu/h-x86_64-mingw32/bin/../lib/gcc/nios2-elf/10.3.1/../../../../../H-x86_64-mingw32/nios2-elf/lib\libc.a(lib_a-strcmp.o)
                                        0x1ba (size before relaxing)
 .debug_str     0x0000000000001a7e       0x3c d:/intel_fpga/nios2eds/bin/gnu/h-x86_64-mingw32/bin/../lib/gcc/nios2-elf/10.3.1/../../../../../H-x86_64-mingw32/nios2-elf/lib\libc.a(lib_a-strcpy.o)
                                        0x1dc (size before relaxing)
 .debug_str     0x0000000000001aba       0x3c d:/intel_fpga/nios2eds/bin/gnu/h-x86_64-mingw32/bin/../lib/gcc/nios2-elf/10.3.1/../../../../../H-x86_64-mingw32/nios2-elf/lib\libc.a(lib_a-strlen.o)
                                        0x1d4 (size before relaxing)
 .debug_str     0x0000000000001af6      0x10c d:/intel_fpga/nios2eds/bin/gnu/h-x86_64-mingw32/bin/../lib/gcc/nios2-elf/10.3.1/../../../../../H-x86_64-mingw32/nios2-elf/lib\libc.a(lib_a-strstr.o)
                                        0x2d6 (size before relaxing)
 .debug_str     0x0000000000001c02      0x2e0 d:/intel_fpga/nios2eds/bin/gnu/h-x86_64-mingw32/bin/../lib/gcc/nios2-elf/10.3.1/../../../../../H-x86_64-mingw32/nios2-elf/lib\libc.a(lib_a-svfprintf.o)
                                        0x9c9 (size before relaxing)
 .debug_str     0x0000000000001ee2      0x1dd d:/intel_fpga/nios2eds/bin/gnu/h-x86_64-mingw32/bin/../lib/gcc/nios2-elf/10.3.1/../../../../../H-x86_64-mingw32/nios2-elf/lib\libc.a(lib_a-svfscanf.o)
                                        0x9a6 (size before relaxing)
 .debug_str     0x00000000000020bf       0x27 d:/intel_fpga/nios2eds/bin/gnu/h-x86_64-mingw32/bin/../lib/gcc/nios2-elf/10.3.1/../../../../../H-x86_64-mingw32/nios2-elf/lib\libc.a(lib_a-vfprintf.o)
                                        0xa27 (size before relaxing)
 .debug_str     0x00000000000020e6       0x3b d:/intel_fpga/nios2eds/bin/gnu/h-x86_64-mingw32/bin/../lib/gcc/nios2-elf/10.3.1/../../../../../H-x86_64-mingw32/nios2-elf/lib\libc.a(lib_a-writer.o)
                                        0x596 (size before relaxing)
 .debug_str     0x0000000000002121       0x3b d:/intel_fpga/nios2eds/bin/gnu/h-x86_64-mingw32/bin/../lib/gcc/nios2-elf/10.3.1/../../../../../H-x86_64-mingw32/nios2-elf/lib\libc.a(lib_a-wsetup.o)
                                        0x5bb (size before relaxing)
 .debug_str     0x000000000000215c       0x3b d:/intel_fpga/nios2eds/bin/gnu/h-x86_64-mingw32/bin/../lib/gcc/nios2-elf/10.3.1/../../../../../H-x86_64-mingw32/nios2-elf/lib\libc.a(closer.o)
                                        0x586 (size before relaxing)
 .debug_str     0x0000000000002197       0xc8 d:/intel_fpga/nios2eds/bin/gnu/h-x86_64-mingw32/bin/../lib/gcc/nios2-elf/10.3.1/../../../../../H-x86_64-mingw32/nios2-elf/lib\libc.a(lib_a-ctype_.o)
                                        0x1c2 (size before relaxing)
 .debug_str     0x000000000000225f      0x1c0 d:/intel_fpga/nios2eds/bin/gnu/h-x86_64-mingw32/bin/../lib/gcc/nios2-elf/10.3.1/../../../../../H-x86_64-mingw32/nios2-elf/lib\libc.a(lib_a-dtoa.o)
                                        0x958 (size before relaxing)
 .debug_str     0x000000000000241f       0x4c d:/intel_fpga/nios2eds/bin/gnu/h-x86_64-mingw32/bin/../lib/gcc/nios2-elf/10.3.1/../../../../../H-x86_64-mingw32/nios2-elf/lib\libc.a(lib_a-fclose.o)
                                        0x5e9 (size before relaxing)
 .debug_str     0x000000000000246b       0x3f d:/intel_fpga/nios2eds/bin/gnu/h-x86_64-mingw32/bin/../lib/gcc/nios2-elf/10.3.1/../../../../../H-x86_64-mingw32/nios2-elf/lib\libc.a(lib_a-flags.o)
                                        0x583 (size before relaxing)
 .debug_str     0x00000000000024aa       0x6d d:/intel_fpga/nios2eds/bin/gnu/h-x86_64-mingw32/bin/../lib/gcc/nios2-elf/10.3.1/../../../../../H-x86_64-mingw32/nios2-elf/lib\libc.a(lib_a-fvwrite.o)
                                        0x648 (size before relaxing)
 .debug_str     0x0000000000002517       0x43 d:/intel_fpga/nios2eds/bin/gnu/h-x86_64-mingw32/bin/../lib/gcc/nios2-elf/10.3.1/../../../../../H-x86_64-mingw32/nios2-elf/lib\libc.a(lib_a-isattyr.o)
                                        0x589 (size before relaxing)
 .debug_str     0x000000000000255a       0x48 d:/intel_fpga/nios2eds/bin/gnu/h-x86_64-mingw32/bin/../lib/gcc/nios2-elf/10.3.1/../../../../../H-x86_64-mingw32/nios2-elf/lib\libc.a(lib_a-iswspace.o)
                                        0x1bd (size before relaxing)
 .debug_str     0x00000000000025a2       0x3f d:/intel_fpga/nios2eds/bin/gnu/h-x86_64-mingw32/bin/../lib/gcc/nios2-elf/10.3.1/../../../../../H-x86_64-mingw32/nios2-elf/lib\libc.a(lib_a-iswspace_l.o)
                                        0x76d (size before relaxing)
 .debug_str     0x00000000000025e1       0xed d:/intel_fpga/nios2eds/bin/gnu/h-x86_64-mingw32/bin/../lib/gcc/nios2-elf/10.3.1/../../../../../H-x86_64-mingw32/nios2-elf/lib\libc.a(lib_a-locale.o)
                                        0x7ed (size before relaxing)
 .debug_str     0x00000000000026ce       0x69 d:/intel_fpga/nios2eds/bin/gnu/h-x86_64-mingw32/bin/../lib/gcc/nios2-elf/10.3.1/../../../../../H-x86_64-mingw32/nios2-elf/lib\libc.a(lib_a-localeconv.o)
                                        0x7d1 (size before relaxing)
 .debug_str     0x0000000000002737       0x41 d:/intel_fpga/nios2eds/bin/gnu/h-x86_64-mingw32/bin/../lib/gcc/nios2-elf/10.3.1/../../../../../H-x86_64-mingw32/nios2-elf/lib\libc.a(lib_a-lseekr.o)
                                        0x58d (size before relaxing)
 .debug_str     0x0000000000002778       0x4c d:/intel_fpga/nios2eds/bin/gnu/h-x86_64-mingw32/bin/../lib/gcc/nios2-elf/10.3.1/../../../../../H-x86_64-mingw32/nios2-elf/lib\libc.a(lib_a-mbrtowc.o)
                                        0x7b7 (size before relaxing)
 .debug_str     0x00000000000027c4       0x5d d:/intel_fpga/nios2eds/bin/gnu/h-x86_64-mingw32/bin/../lib/gcc/nios2-elf/10.3.1/../../../../../H-x86_64-mingw32/nios2-elf/lib\libc.a(lib_a-mbtowc_r.o)
                                        0x7b1 (size before relaxing)
 .debug_str     0x0000000000002821       0x3c d:/intel_fpga/nios2eds/bin/gnu/h-x86_64-mingw32/bin/../lib/gcc/nios2-elf/10.3.1/../../../../../H-x86_64-mingw32/nios2-elf/lib\libc.a(lib_a-memcmp.o)
                                        0x1c1 (size before relaxing)
 .debug_str     0x000000000000285d       0x46 d:/intel_fpga/nios2eds/bin/gnu/h-x86_64-mingw32/bin/../lib/gcc/nios2-elf/10.3.1/../../../../../H-x86_64-mingw32/nios2-elf/lib\libc.a(lib_a-memmove.o)
                                        0x1f4 (size before relaxing)
 .debug_str     0x00000000000028a3       0xa6 d:/intel_fpga/nios2eds/bin/gnu/h-x86_64-mingw32/bin/../lib/gcc/nios2-elf/10.3.1/../../../../../H-x86_64-mingw32/nios2-elf/lib\libc.a(lib_a-mprec.o)
                                        0x8cb (size before relaxing)
 .debug_str     0x0000000000002949       0x3a d:/intel_fpga/nios2eds/bin/gnu/h-x86_64-mingw32/bin/../lib/gcc/nios2-elf/10.3.1/../../../../../H-x86_64-mingw32/nios2-elf/lib\libc.a(lib_a-readr.o)
                                        0x593 (size before relaxing)
 .debug_str     0x0000000000002983       0x4e d:/intel_fpga/nios2eds/bin/gnu/h-x86_64-mingw32/bin/../lib/gcc/nios2-elf/10.3.1/../../../../../H-x86_64-mingw32/nios2-elf/lib\libc.a(lib_a-reallocr.o)
                                        0x67d (size before relaxing)
 .debug_str     0x00000000000029d1       0x49 d:/intel_fpga/nios2eds/bin/gnu/h-x86_64-mingw32/bin/../lib/gcc/nios2-elf/10.3.1/../../../../../H-x86_64-mingw32/nios2-elf/lib\libc.a(lib_a-sccl.o)
                                        0x1de (size before relaxing)
 .debug_str     0x0000000000002a1a       0x3d d:/intel_fpga/nios2eds/bin/gnu/h-x86_64-mingw32/bin/../lib/gcc/nios2-elf/10.3.1/../../../../../H-x86_64-mingw32/nios2-elf/lib\libc.a(lib_a-strnlen.o)
                                        0x1c9 (size before relaxing)
 .debug_str     0x0000000000002a57      0x274 d:/intel_fpga/nios2eds/bin/gnu/h-x86_64-mingw32/bin/../lib/gcc/nios2-elf/10.3.1/../../../../../H-x86_64-mingw32/nios2-elf/lib\libc.a(lib_a-strtod.o)
                                        0xb4a (size before relaxing)
 .debug_str     0x0000000000002ccb       0x89 d:/intel_fpga/nios2eds/bin/gnu/h-x86_64-mingw32/bin/../lib/gcc/nios2-elf/10.3.1/../../../../../H-x86_64-mingw32/nios2-elf/lib\libc.a(lib_a-strtol.o)
                                        0x820 (size before relaxing)
 .debug_str     0x0000000000002d54       0x59 d:/intel_fpga/nios2eds/bin/gnu/h-x86_64-mingw32/bin/../lib/gcc/nios2-elf/10.3.1/../../../../../H-x86_64-mingw32/nios2-elf/lib\libc.a(lib_a-strtoll.o)
                                        0x826 (size before relaxing)
 .debug_str     0x0000000000002dad       0x5b d:/intel_fpga/nios2eds/bin/gnu/h-x86_64-mingw32/bin/../lib/gcc/nios2-elf/10.3.1/../../../../../H-x86_64-mingw32/nios2-elf/lib\libc.a(lib_a-strtoul.o)
                                        0x81d (size before relaxing)
 .debug_str     0x0000000000002e08       0x53 d:/intel_fpga/nios2eds/bin/gnu/h-x86_64-mingw32/bin/../lib/gcc/nios2-elf/10.3.1/../../../../../H-x86_64-mingw32/nios2-elf/lib\libc.a(lib_a-strtoull.o)
                                        0x82b (size before relaxing)
 .debug_str     0x0000000000002e5b       0x19 d:/intel_fpga/nios2eds/bin/gnu/h-x86_64-mingw32/bin/../lib/gcc/nios2-elf/10.3.1/../../../../../H-x86_64-mingw32/nios2-elf/lib\libc.a(lib_a-svfiprintf.o)
                                        0x91e (size before relaxing)
 .debug_str     0x0000000000002e74       0x1f d:/intel_fpga/nios2eds/bin/gnu/h-x86_64-mingw32/bin/../lib/gcc/nios2-elf/10.3.1/../../../../../H-x86_64-mingw32/nios2-elf/lib\libc.a(lib_a-svfiscanf.o)
                                        0x957 (size before relaxing)
 .debug_str     0x0000000000002e93       0x4c d:/intel_fpga/nios2eds/bin/gnu/h-x86_64-mingw32/bin/../lib/gcc/nios2-elf/10.3.1/../../../../../H-x86_64-mingw32/nios2-elf/lib\libc.a(lib_a-ungetc.o)
                                        0x5f8 (size before relaxing)
 .debug_str     0x0000000000002edf       0x37 d:/intel_fpga/nios2eds/bin/gnu/h-x86_64-mingw32/bin/../lib/gcc/nios2-elf/10.3.1/../../../../../H-x86_64-mingw32/nios2-elf/lib\libc.a(lib_a-vfiprintf.o)
                                        0x952 (size before relaxing)
 .debug_str     0x0000000000002f16       0x5e d:/intel_fpga/nios2eds/bin/gnu/h-x86_64-mingw32/bin/../lib/gcc/nios2-elf/10.3.1/../../../../../H-x86_64-mingw32/nios2-elf/lib\libc.a(lib_a-wctomb_r.o)
                                        0x7b8 (size before relaxing)
 .debug_str     0x0000000000002f74       0x64 d:/intel_fpga/nios2eds/bin/gnu/h-x86_64-mingw32/bin/../lib/gcc/nios2-elf/10.3.1/../../../../../H-x86_64-mingw32/nios2-elf/lib\libc.a(lib_a-assert.o)
                                        0x5bf (size before relaxing)
 .debug_str     0x0000000000002fd8        0xf d:/intel_fpga/nios2eds/bin/gnu/h-x86_64-mingw32/bin/../lib/gcc/nios2-elf/10.3.1/../../../../../H-x86_64-mingw32/nios2-elf/lib\libc.a(lib_a-callocr.o)
                                        0x5ee (size before relaxing)
 .debug_str     0x0000000000002fe7       0xbe d:/intel_fpga/nios2eds/bin/gnu/h-x86_64-mingw32/bin/../lib/gcc/nios2-elf/10.3.1/../../../../../H-x86_64-mingw32/nios2-elf/lib\libc.a(lib_a-errno.o)
                                        0x584 (size before relaxing)
 .debug_str     0x00000000000030a5       0x56 d:/intel_fpga/nios2eds/bin/gnu/h-x86_64-mingw32/bin/../lib/gcc/nios2-elf/10.3.1/../../../../../H-x86_64-mingw32/nios2-elf/lib\libc.a(lib_a-fiprintf.o)
                                        0x5cf (size before relaxing)
 .debug_str     0x00000000000030fb       0x59 d:/intel_fpga/nios2eds/bin/gnu/h-x86_64-mingw32/bin/../lib/gcc/nios2-elf/10.3.1/../../../../../H-x86_64-mingw32/nios2-elf/lib\libc.a(lib_a-fputwc.o)
                                        0x5f2 (size before relaxing)
 .debug_str     0x0000000000003154       0xd1 d:/intel_fpga/nios2eds/bin/gnu/h-x86_64-mingw32/bin/../lib/gcc/nios2-elf/10.3.1/../../../../../H-x86_64-mingw32/nios2-elf/lib\libc.a(lib_a-gdtoa-gethex.o)
                                        0x9c8 (size before relaxing)
 .debug_str     0x0000000000003225       0x42 d:/intel_fpga/nios2eds/bin/gnu/h-x86_64-mingw32/bin/../lib/gcc/nios2-elf/10.3.1/../../../../../H-x86_64-mingw32/nios2-elf/lib\libc.a(lib_a-gdtoa-hexnan.o)
                                        0x304 (size before relaxing)
 .debug_str     0x0000000000003267       0x78 d:/intel_fpga/nios2eds/bin/gnu/h-x86_64-mingw32/bin/../lib/gcc/nios2-elf/10.3.1/../../../../../H-x86_64-mingw32/nios2-elf/lib\libc.a(lib_a-lnumeric.o)
                                        0x7b3 (size before relaxing)
 .debug_str     0x00000000000032df       0x3d d:/intel_fpga/nios2eds/bin/gnu/h-x86_64-mingw32/bin/../lib/gcc/nios2-elf/10.3.1/../../../../../H-x86_64-mingw32/nios2-elf/lib\libc.a(lib_a-strncmp.o)
                                        0x1c3 (size before relaxing)
 .debug_str     0x000000000000331c       0x41 d:/intel_fpga/nios2eds/bin/gnu/h-x86_64-mingw32/bin/../lib/gcc/nios2-elf/10.3.1/../../../../../H-x86_64-mingw32/nios2-elf/lib\libc.a(lib_a-vfiprintfr_1.o)
                                        0x5cf (size before relaxing)
 .debug_str     0x000000000000335d       0x41 d:/intel_fpga/nios2eds/bin/gnu/h-x86_64-mingw32/bin/../lib/gcc/nios2-elf/10.3.1/../../../../../H-x86_64-mingw32/nios2-elf/lib\libc.a(lib_a-wbuf.o)
                                        0x5c0 (size before relaxing)
 .debug_str     0x000000000000339e       0x45 d:/intel_fpga/nios2eds/bin/gnu/h-x86_64-mingw32/bin/../lib/gcc/nios2-elf/10.3.1/../../../../../H-x86_64-mingw32/nios2-elf/lib\libc.a(lib_a-wcrtomb.o)
                                        0x7b7 (size before relaxing)
 .debug_str     0x00000000000033e3       0x41 d:/intel_fpga/nios2eds/bin/gnu/h-x86_64-mingw32/bin/../lib/gcc/nios2-elf/10.3.1/../../../../../H-x86_64-mingw32/nios2-elf/lib\libc.a(lib_a-abort.o)
                                        0x1c4 (size before relaxing)
 .debug_str     0x0000000000003424      0x127 d:/intel_fpga/nios2eds/bin/gnu/h-x86_64-mingw32/bin/../lib/gcc/nios2-elf/10.3.1/../../../../../H-x86_64-mingw32/nios2-elf/lib\libc.a(lib_a-signal.o)
                                        0x623 (size before relaxing)
 .debug_str     0x000000000000354b       0x48 d:/intel_fpga/nios2eds/bin/gnu/h-x86_64-mingw32/bin/../lib/gcc/nios2-elf/10.3.1/../../../../../H-x86_64-mingw32/nios2-elf/lib\libc.a(lib_a-signalr.o)
                                        0x596 (size before relaxing)
 .debug_str     0x0000000000003593       0x84 d:/intel_fpga/nios2eds/bin/gnu/h-x86_64-mingw32/bin/../lib/gcc/nios2-elf/10.3.1\libgcc.a(_muldi3.o)
                                        0x21e (size before relaxing)
 .debug_str     0x0000000000003617        0xf d:/intel_fpga/nios2eds/bin/gnu/h-x86_64-mingw32/bin/../lib/gcc/nios2-elf/10.3.1\libgcc.a(_fixunsdfsi.o)
                                        0x1ff (size before relaxing)
 .debug_str     0x0000000000003626        0xd d:/intel_fpga/nios2eds/bin/gnu/h-x86_64-mingw32/bin/../lib/gcc/nios2-elf/10.3.1\libgcc.a(_fixdfdi.o)
                                        0x1ee (size before relaxing)
 .debug_str     0x0000000000003633        0x8 d:/intel_fpga/nios2eds/bin/gnu/h-x86_64-mingw32/bin/../lib/gcc/nios2-elf/10.3.1\libgcc.a(_fixunsdfdi.o)
                                        0x212 (size before relaxing)
 .debug_str     0x000000000000363b      0x216 d:/intel_fpga/nios2eds/bin/gnu/h-x86_64-mingw32/bin/../lib/gcc/nios2-elf/10.3.1\libgcc.a(_floatdidf.o)
 .debug_str     0x000000000000363b       0xe3 d:/intel_fpga/nios2eds/bin/gnu/h-x86_64-mingw32/bin/../lib/gcc/nios2-elf/10.3.1\libgcc.a(_udivdi3.o)
                                        0x2a0 (size before relaxing)
 .debug_str     0x000000000000371e      0x2a0 d:/intel_fpga/nios2eds/bin/gnu/h-x86_64-mingw32/bin/../lib/gcc/nios2-elf/10.3.1\libgcc.a(_umoddi3.o)
 .debug_str     0x000000000000371e       0x59 d:/intel_fpga/nios2eds/bin/gnu/h-x86_64-mingw32/bin/../lib/gcc/nios2-elf/10.3.1\libgcc.a(lib2-divmod.o)
                                        0x1c6 (size before relaxing)
 .debug_str     0x0000000000003777       0x64 d:/intel_fpga/nios2eds/bin/gnu/h-x86_64-mingw32/bin/../lib/gcc/nios2-elf/10.3.1\libgcc.a(lesf2.o)
                                        0x21c (size before relaxing)
 .debug_str     0x00000000000037db       0x32 d:/intel_fpga/nios2eds/bin/gnu/h-x86_64-mingw32/bin/../lib/gcc/nios2-elf/10.3.1\libgcc.a(unordsf2.o)
                                        0x1fe (size before relaxing)
 .debug_str     0x000000000000380d      0x178 d:/intel_fpga/nios2eds/bin/gnu/h-x86_64-mingw32/bin/../lib/gcc/nios2-elf/10.3.1\libgcc.a(adddf3.o)
                                        0x311 (size before relaxing)
 .debug_str     0x0000000000003985      0x192 d:/intel_fpga/nios2eds/bin/gnu/h-x86_64-mingw32/bin/../lib/gcc/nios2-elf/10.3.1\libgcc.a(divdf3.o)
                                        0x3e7 (size before relaxing)
 .debug_str     0x0000000000003b17       0x2f d:/intel_fpga/nios2eds/bin/gnu/h-x86_64-mingw32/bin/../lib/gcc/nios2-elf/10.3.1\libgcc.a(eqdf2.o)
                                        0x214 (size before relaxing)
 .debug_str     0x0000000000003b46       0x2f d:/intel_fpga/nios2eds/bin/gnu/h-x86_64-mingw32/bin/../lib/gcc/nios2-elf/10.3.1\libgcc.a(gedf2.o)
                                        0x238 (size before relaxing)
 .debug_str     0x0000000000003b75       0x2f d:/intel_fpga/nios2eds/bin/gnu/h-x86_64-mingw32/bin/../lib/gcc/nios2-elf/10.3.1\libgcc.a(ledf2.o)
                                        0x238 (size before relaxing)
 .debug_str     0x0000000000003ba4      0x155 d:/intel_fpga/nios2eds/bin/gnu/h-x86_64-mingw32/bin/../lib/gcc/nios2-elf/10.3.1\libgcc.a(muldf3.o)
                                        0x42b (size before relaxing)
 .debug_str     0x0000000000003cf9       0x30 d:/intel_fpga/nios2eds/bin/gnu/h-x86_64-mingw32/bin/../lib/gcc/nios2-elf/10.3.1\libgcc.a(subdf3.o)
                                        0x311 (size before relaxing)
 .debug_str     0x0000000000003d29       0x32 d:/intel_fpga/nios2eds/bin/gnu/h-x86_64-mingw32/bin/../lib/gcc/nios2-elf/10.3.1\libgcc.a(unorddf2.o)
                                        0x21a (size before relaxing)
 .debug_str     0x0000000000003d5b       0x31 d:/intel_fpga/nios2eds/bin/gnu/h-x86_64-mingw32/bin/../lib/gcc/nios2-elf/10.3.1\libgcc.a(fixdfsi.o)
                                        0x21f (size before relaxing)
 .debug_str     0x0000000000003d8c       0x60 d:/intel_fpga/nios2eds/bin/gnu/h-x86_64-mingw32/bin/../lib/gcc/nios2-elf/10.3.1\libgcc.a(floatsidf.o)
                                        0x2c3 (size before relaxing)
 .debug_str     0x0000000000003dec       0x35 d:/intel_fpga/nios2eds/bin/gnu/h-x86_64-mingw32/bin/../lib/gcc/nios2-elf/10.3.1\libgcc.a(floatunsidf.o)
                                        0x2c0 (size before relaxing)
 .debug_str     0x0000000000003e21       0x5c d:/intel_fpga/nios2eds/bin/gnu/h-x86_64-mingw32/bin/../lib/gcc/nios2-elf/10.3.1\libgcc.a(truncdfsf2.o)
                                        0x2a1 (size before relaxing)
 .debug_str     0x0000000000003e7d      0x1d3 d:/intel_fpga/nios2eds/bin/gnu/h-x86_64-mingw32/bin/../lib/gcc/nios2-elf/10.3.1\libgcc.a(_clz.o)
 .debug_str     0x0000000000003e7d      0x1f0 d:/intel_fpga/nios2eds/bin/gnu/h-x86_64-mingw32/bin/../lib/gcc/nios2-elf/10.3.1\libgcc.a(_clzsi2.o)
 .debug_str     0x0000000000003e7d       0x93 d:/Downloads/RFS/DE10_Nano_WiFi_Web_Server/software/ewaff_server_bsp/\libhal_bsp.a(alt_close.o)
                                        0x207 (size before relaxing)
 .debug_str     0x0000000000003f10       0x5d d:/Downloads/RFS/DE10_Nano_WiFi_Web_Server/software/ewaff_server_bsp/\libhal_bsp.a(alt_dev.o)
                                        0x36d (size before relaxing)
 .debug_str     0x0000000000003f6d       0x14 d:/Downloads/RFS/DE10_Nano_WiFi_Web_Server/software/ewaff_server_bsp/\libhal_bsp.a(alt_errno.o)
                                        0x148 (size before relaxing)
 .debug_str     0x0000000000003f81       0x2a d:/Downloads/RFS/DE10_Nano_WiFi_Web_Server/software/ewaff_server_bsp/\libhal_bsp.a(alt_exit.o)
                                        0x15a (size before relaxing)
 .debug_str     0x0000000000003fab       0x27 d:/Downloads/RFS/DE10_Nano_WiFi_Web_Server/software/ewaff_server_bsp/\libhal_bsp.a(alt_fcntl.o)
                                        0x389 (size before relaxing)
 .debug_str     0x0000000000003fd2       0x14 d:/Downloads/RFS/DE10_Nano_WiFi_Web_Server/software/ewaff_server_bsp/\libhal_bsp.a(alt_fstat.o)
                                        0x347 (size before relaxing)
 .debug_str     0x0000000000003fe6       0x15 d:/Downloads/RFS/DE10_Nano_WiFi_Web_Server/software/ewaff_server_bsp/\libhal_bsp.a(alt_getpid.o)
                                         0xb1 (size before relaxing)
 .debug_str     0x0000000000003ffb       0x15 d:/Downloads/RFS/DE10_Nano_WiFi_Web_Server/software/ewaff_server_bsp/\libhal_bsp.a(alt_isatty.o)
                                        0x34f (size before relaxing)
 .debug_str     0x0000000000004010       0x1a d:/Downloads/RFS/DE10_Nano_WiFi_Web_Server/software/ewaff_server_bsp/\libhal_bsp.a(alt_kill.o)
                                        0x167 (size before relaxing)
 .debug_str     0x000000000000402a       0xe9 d:/Downloads/RFS/DE10_Nano_WiFi_Web_Server/software/ewaff_server_bsp/\libhal_bsp.a(alt_load.o)
                                        0x21b (size before relaxing)
 .debug_str     0x0000000000004113       0x14 d:/Downloads/RFS/DE10_Nano_WiFi_Web_Server/software/ewaff_server_bsp/\libhal_bsp.a(alt_lseek.o)
                                        0x215 (size before relaxing)
 .debug_str     0x0000000000004127       0x44 d:/Downloads/RFS/DE10_Nano_WiFi_Web_Server/software/ewaff_server_bsp/\libhal_bsp.a(alt_main.o)
                                        0x175 (size before relaxing)
 .debug_str     0x000000000000416b       0x1a d:/Downloads/RFS/DE10_Nano_WiFi_Web_Server/software/ewaff_server_bsp/\libhal_bsp.a(alt_malloc_lock.o)
                                        0x522 (size before relaxing)
 .debug_str     0x0000000000004185       0x29 d:/Downloads/RFS/DE10_Nano_WiFi_Web_Server/software/ewaff_server_bsp/\libhal_bsp.a(alt_open.o)
                                        0x254 (size before relaxing)
 .debug_str     0x00000000000041ae       0x13 d:/Downloads/RFS/DE10_Nano_WiFi_Web_Server/software/ewaff_server_bsp/\libhal_bsp.a(alt_read.o)
                                        0x352 (size before relaxing)
 .debug_str     0x00000000000041c1       0x28 d:/Downloads/RFS/DE10_Nano_WiFi_Web_Server/software/ewaff_server_bsp/\libhal_bsp.a(alt_release_fd.o)
                                        0x1d8 (size before relaxing)
 .debug_str     0x00000000000041e9       0x82 d:/Downloads/RFS/DE10_Nano_WiFi_Web_Server/software/ewaff_server_bsp/\libhal_bsp.a(alt_sbrk.o)
                                        0x1c7 (size before relaxing)
 .debug_str     0x000000000000426b       0x29 d:/Downloads/RFS/DE10_Nano_WiFi_Web_Server/software/ewaff_server_bsp/\libhal_bsp.a(alt_usleep.o)
                                        0x15e (size before relaxing)
 .debug_str     0x0000000000004294       0x14 d:/Downloads/RFS/DE10_Nano_WiFi_Web_Server/software/ewaff_server_bsp/\libhal_bsp.a(alt_write.o)
                                        0x353 (size before relaxing)
 .debug_str     0x00000000000042a8      0x1d0 d:/Downloads/RFS/DE10_Nano_WiFi_Web_Server/software/ewaff_server_bsp/\libhal_bsp.a(alt_sys_init.o)
                                        0x3dd (size before relaxing)
 .debug_str     0x0000000000004478       0xac d:/Downloads/RFS/DE10_Nano_WiFi_Web_Server/software/ewaff_server_bsp/\libhal_bsp.a(altera_avalon_jtag_uart_fd.o)
                                        0x384 (size before relaxing)
 .debug_str     0x0000000000004524       0xe0 d:/Downloads/RFS/DE10_Nano_WiFi_Web_Server/software/ewaff_server_bsp/\libhal_bsp.a(altera_avalon_jtag_uart_init.o)
                                        0x327 (size before relaxing)
 .debug_str     0x0000000000004604       0x4a d:/Downloads/RFS/DE10_Nano_WiFi_Web_Server/software/ewaff_server_bsp/\libhal_bsp.a(altera_avalon_jtag_uart_ioctl.o)
                                        0x26c (size before relaxing)
 .debug_str     0x000000000000464e       0x48 d:/Downloads/RFS/DE10_Nano_WiFi_Web_Server/software/ewaff_server_bsp/\libhal_bsp.a(altera_avalon_jtag_uart_read.o)
                                        0x2c8 (size before relaxing)
 .debug_str     0x0000000000004696       0x4a d:/Downloads/RFS/DE10_Nano_WiFi_Web_Server/software/ewaff_server_bsp/\libhal_bsp.a(altera_avalon_jtag_uart_write.o)
                                        0x2c9 (size before relaxing)
 .debug_str     0x00000000000046e0       0x72 d:/Downloads/RFS/DE10_Nano_WiFi_Web_Server/software/ewaff_server_bsp/\libhal_bsp.a(altera_avalon_timer_sc.o)
                                        0x217 (size before relaxing)
 .debug_str     0x0000000000004752       0x77 d:/Downloads/RFS/DE10_Nano_WiFi_Web_Server/software/ewaff_server_bsp/\libhal_bsp.a(altera_avalon_uart_fd.o)
                                        0x2f1 (size before relaxing)
 .debug_str     0x00000000000047c9       0xa0 d:/Downloads/RFS/DE10_Nano_WiFi_Web_Server/software/ewaff_server_bsp/\libhal_bsp.a(altera_avalon_uart_init.o)
                                        0x284 (size before relaxing)
 .debug_str     0x0000000000004869       0x4f d:/Downloads/RFS/DE10_Nano_WiFi_Web_Server/software/ewaff_server_bsp/\libhal_bsp.a(altera_avalon_uart_read.o)
                                        0x270 (size before relaxing)
 .debug_str     0x00000000000048b8       0x49 d:/Downloads/RFS/DE10_Nano_WiFi_Web_Server/software/ewaff_server_bsp/\libhal_bsp.a(altera_avalon_uart_write.o)
                                        0x269 (size before relaxing)
 .debug_str     0x0000000000004901       0x65 d:/Downloads/RFS/DE10_Nano_WiFi_Web_Server/software/ewaff_server_bsp/\libhal_bsp.a(alt_alarm_start.o)
                                        0x27f (size before relaxing)
 .debug_str     0x0000000000004966       0x42 d:/Downloads/RFS/DE10_Nano_WiFi_Web_Server/software/ewaff_server_bsp/\libhal_bsp.a(alt_busy_sleep.o)
                                        0x174 (size before relaxing)
 .debug_str     0x00000000000049a8       0x34 d:/Downloads/RFS/DE10_Nano_WiFi_Web_Server/software/ewaff_server_bsp/\libhal_bsp.a(alt_dcache_flush_all.o)
                                        0x15e (size before relaxing)
 .debug_str     0x00000000000049dc       0x34 d:/Downloads/RFS/DE10_Nano_WiFi_Web_Server/software/ewaff_server_bsp/\libhal_bsp.a(alt_dev_llist_insert.o)
                                        0x1d5 (size before relaxing)
 .debug_str     0x0000000000004a10       0x48 d:/Downloads/RFS/DE10_Nano_WiFi_Web_Server/software/ewaff_server_bsp/\libhal_bsp.a(alt_do_ctors.o)
                                         0xe2 (size before relaxing)
 .debug_str     0x0000000000004a58       0x4c d:/Downloads/RFS/DE10_Nano_WiFi_Web_Server/software/ewaff_server_bsp/\libhal_bsp.a(alt_do_dtors.o)
                                         0xe1 (size before relaxing)
 .debug_str     0x0000000000004aa4       0x24 d:/Downloads/RFS/DE10_Nano_WiFi_Web_Server/software/ewaff_server_bsp/\libhal_bsp.a(alt_find_dev.o)
                                        0x1e8 (size before relaxing)
 .debug_str     0x0000000000004ac8       0x26 d:/Downloads/RFS/DE10_Nano_WiFi_Web_Server/software/ewaff_server_bsp/\libhal_bsp.a(alt_find_file.o)
                                        0x1f6 (size before relaxing)
 .debug_str     0x0000000000004aee       0x30 d:/Downloads/RFS/DE10_Nano_WiFi_Web_Server/software/ewaff_server_bsp/\libhal_bsp.a(alt_get_fd.o)
                                        0x218 (size before relaxing)
 .debug_str     0x0000000000004b1e       0x34 d:/Downloads/RFS/DE10_Nano_WiFi_Web_Server/software/ewaff_server_bsp/\libhal_bsp.a(alt_icache_flush_all.o)
                                        0x15e (size before relaxing)
 .debug_str     0x0000000000004b52       0xab d:/Downloads/RFS/DE10_Nano_WiFi_Web_Server/software/ewaff_server_bsp/\libhal_bsp.a(alt_iic.o)
                                        0x235 (size before relaxing)
 .debug_str     0x0000000000004bfd       0x4c d:/Downloads/RFS/DE10_Nano_WiFi_Web_Server/software/ewaff_server_bsp/\libhal_bsp.a(alt_iic_isr_register.o)
                                        0x1f1 (size before relaxing)
 .debug_str     0x0000000000004c49       0x56 d:/Downloads/RFS/DE10_Nano_WiFi_Web_Server/software/ewaff_server_bsp/\libhal_bsp.a(alt_io_redirect.o)
                                        0x371 (size before relaxing)
 .debug_str     0x0000000000004c9f       0x18 d:/Downloads/RFS/DE10_Nano_WiFi_Web_Server/software/ewaff_server_bsp/\libhal_bsp.a(alt_irq_entry.o)
                                         0x6c (size before relaxing)
 .debug_str     0x0000000000004cb7       0x3a d:/Downloads/RFS/DE10_Nano_WiFi_Web_Server/software/ewaff_server_bsp/\libhal_bsp.a(alt_irq_handler.o)
                                        0x1a0 (size before relaxing)
 .debug_str     0x0000000000004cf1       0x29 d:/Downloads/RFS/DE10_Nano_WiFi_Web_Server/software/ewaff_server_bsp/\libhal_bsp.a(alt_irq_vars.o)
                                        0x14c (size before relaxing)
 .debug_str     0x0000000000004d1a       0x4a d:/Downloads/RFS/DE10_Nano_WiFi_Web_Server/software/ewaff_server_bsp/\libhal_bsp.a(alt_tick.o)
                                        0x253 (size before relaxing)
 .debug_str     0x0000000000004d64       0x3b d:/Downloads/RFS/DE10_Nano_WiFi_Web_Server/software/ewaff_server_bsp/\libhal_bsp.a(altera_nios2_gen2_irq.o)
                                        0x165 (size before relaxing)
 .debug_str     0x0000000000004d9f       0x1e d:/Downloads/RFS/DE10_Nano_WiFi_Web_Server/software/ewaff_server_bsp/\libhal_bsp.a(alt_exception_entry.o)
                                         0x72 (size before relaxing)
 .debug_str     0x0000000000004dbd       0x2c d:/Downloads/RFS/DE10_Nano_WiFi_Web_Server/software/ewaff_server_bsp/\libhal_bsp.a(alt_icache_flush.o)
                                        0x164 (size before relaxing)
 .debug_str     0x0000000000004de9      0x48b d:/Downloads/RFS/DE10_Nano_WiFi_Web_Server/software/ewaff_server_bsp/\libhal_bsp.a(alt_instruction_exception_entry.o)
                                        0x5b2 (size before relaxing)
 .debug_str     0x0000000000005274       0x80 d:/intel_fpga/nios2eds/bin/gnu/h-x86_64-mingw32/bin/../lib/gcc/nios2-elf/10.3.1/../../../../../H-x86_64-mingw32/nios2-elf/lib\libc.a(lib_a-atexit.o)
                                        0x1fe (size before relaxing)
 .debug_str     0x00000000000052f4       0x4b d:/intel_fpga/nios2eds/bin/gnu/h-x86_64-mingw32/bin/../lib/gcc/nios2-elf/10.3.1/../../../../../H-x86_64-mingw32/nios2-elf/lib\libc.a(lib_a-exit.o)
                                        0x5a5 (size before relaxing)
 .debug_str     0x000000000000533f       0x3e d:/intel_fpga/nios2eds/bin/gnu/h-x86_64-mingw32/bin/../lib/gcc/nios2-elf/10.3.1/../../../../../H-x86_64-mingw32/nios2-elf/lib\libc.a(lib_a-__atexit.o)
                                        0x5d6 (size before relaxing)
 .debug_str     0x000000000000537d       0x6a d:/intel_fpga/nios2eds/bin/gnu/h-x86_64-mingw32/bin/../lib/gcc/nios2-elf/10.3.1/../../../../../H-x86_64-mingw32/nios2-elf/lib\libc.a(lib_a-__call_atexit.o)
                                        0x5cf (size before relaxing)

.debug_loc      0x0000000000000000    0x31b8e
 *(.debug_loc)
 .debug_loc     0x0000000000000000      0x136 d:/intel_fpga/nios2eds/bin/gnu/h-x86_64-mingw32/bin/../lib/gcc/nios2-elf/10.3.1\libgcc.a(fixsfsi.o)
 .debug_loc     0x0000000000000136      0x4c6 d:/intel_fpga/nios2eds/bin/gnu/h-x86_64-mingw32/bin/../lib/gcc/nios2-elf/10.3.1/../../../../../H-x86_64-mingw32/nios2-elf/lib\libc.a(lib_a-fflush.o)
 .debug_loc     0x00000000000005fc      0x21b d:/intel_fpga/nios2eds/bin/gnu/h-x86_64-mingw32/bin/../lib/gcc/nios2-elf/10.3.1/../../../../../H-x86_64-mingw32/nios2-elf/lib\libc.a(lib_a-fgetc.o)
 .debug_loc     0x0000000000000817      0x414 d:/intel_fpga/nios2eds/bin/gnu/h-x86_64-mingw32/bin/../lib/gcc/nios2-elf/10.3.1/../../../../../H-x86_64-mingw32/nios2-elf/lib\libc.a(lib_a-fgets.o)
 .debug_loc     0x0000000000000c2b       0x85 d:/intel_fpga/nios2eds/bin/gnu/h-x86_64-mingw32/bin/../lib/gcc/nios2-elf/10.3.1/../../../../../H-x86_64-mingw32/nios2-elf/lib\libc.a(lib_a-fileno.o)
 .debug_loc     0x0000000000000cb0      0x32c d:/intel_fpga/nios2eds/bin/gnu/h-x86_64-mingw32/bin/../lib/gcc/nios2-elf/10.3.1/../../../../../H-x86_64-mingw32/nios2-elf/lib\libc.a(lib_a-findfp.o)
 .debug_loc     0x0000000000000fdc      0x1ae d:/intel_fpga/nios2eds/bin/gnu/h-x86_64-mingw32/bin/../lib/gcc/nios2-elf/10.3.1/../../../../../H-x86_64-mingw32/nios2-elf/lib\libc.a(lib_a-fopen.o)
 .debug_loc     0x000000000000118a      0x11e d:/intel_fpga/nios2eds/bin/gnu/h-x86_64-mingw32/bin/../lib/gcc/nios2-elf/10.3.1/../../../../../H-x86_64-mingw32/nios2-elf/lib\libc.a(lib_a-fprintf.o)
 .debug_loc     0x00000000000012a8      0x614 d:/intel_fpga/nios2eds/bin/gnu/h-x86_64-mingw32/bin/../lib/gcc/nios2-elf/10.3.1/../../../../../H-x86_64-mingw32/nios2-elf/lib\libc.a(lib_a-freer.o)
 .debug_loc     0x00000000000018bc      0x1c0 d:/intel_fpga/nios2eds/bin/gnu/h-x86_64-mingw32/bin/../lib/gcc/nios2-elf/10.3.1/../../../../../H-x86_64-mingw32/nios2-elf/lib\libc.a(lib_a-fseek.o)
 .debug_loc     0x0000000000001a7c      0x3f3 d:/intel_fpga/nios2eds/bin/gnu/h-x86_64-mingw32/bin/../lib/gcc/nios2-elf/10.3.1/../../../../../H-x86_64-mingw32/nios2-elf/lib\libc.a(lib_a-fseeko.o)
 .debug_loc     0x0000000000001e6f       0xbb d:/intel_fpga/nios2eds/bin/gnu/h-x86_64-mingw32/bin/../lib/gcc/nios2-elf/10.3.1/../../../../../H-x86_64-mingw32/nios2-elf/lib\libc.a(lib_a-fstatr.o)
 .debug_loc     0x0000000000001f2a      0x1eb d:/intel_fpga/nios2eds/bin/gnu/h-x86_64-mingw32/bin/../lib/gcc/nios2-elf/10.3.1/../../../../../H-x86_64-mingw32/nios2-elf/lib\libc.a(lib_a-fwalk.o)
 .debug_loc     0x0000000000002115      0x449 d:/intel_fpga/nios2eds/bin/gnu/h-x86_64-mingw32/bin/../lib/gcc/nios2-elf/10.3.1/../../../../../H-x86_64-mingw32/nios2-elf/lib\libc.a(lib_a-makebuf.o)
 .debug_loc     0x000000000000255e       0x64 d:/intel_fpga/nios2eds/bin/gnu/h-x86_64-mingw32/bin/../lib/gcc/nios2-elf/10.3.1/../../../../../H-x86_64-mingw32/nios2-elf/lib\libc.a(lib_a-malloc.o)
 .debug_loc     0x00000000000025c2      0xd34 d:/intel_fpga/nios2eds/bin/gnu/h-x86_64-mingw32/bin/../lib/gcc/nios2-elf/10.3.1/../../../../../H-x86_64-mingw32/nios2-elf/lib\libc.a(lib_a-mallocr.o)
 .debug_loc     0x00000000000032f6      0x240 d:/intel_fpga/nios2eds/bin/gnu/h-x86_64-mingw32/bin/../lib/gcc/nios2-elf/10.3.1/../../../../../H-x86_64-mingw32/nios2-elf/lib\libc.a(lib_a-memchr.o)
 .debug_loc     0x0000000000003536      0x347 d:/intel_fpga/nios2eds/bin/gnu/h-x86_64-mingw32/bin/../lib/gcc/nios2-elf/10.3.1/../../../../../H-x86_64-mingw32/nios2-elf/lib\libc.a(lib_a-memcpy.o)
 .debug_loc     0x000000000000387d      0x1b5 d:/intel_fpga/nios2eds/bin/gnu/h-x86_64-mingw32/bin/../lib/gcc/nios2-elf/10.3.1/../../../../../H-x86_64-mingw32/nios2-elf/lib\libc.a(lib_a-memset.o)
 .debug_loc     0x0000000000003a32       0xed d:/intel_fpga/nios2eds/bin/gnu/h-x86_64-mingw32/bin/../lib/gcc/nios2-elf/10.3.1/../../../../../H-x86_64-mingw32/nios2-elf/lib\libc.a(lib_a-openr.o)
 .debug_loc     0x0000000000003b1f       0xe1 d:/intel_fpga/nios2eds/bin/gnu/h-x86_64-mingw32/bin/../lib/gcc/nios2-elf/10.3.1/../../../../../H-x86_64-mingw32/nios2-elf/lib\libc.a(lib_a-printf.o)
 .debug_loc     0x0000000000003c00      0x143 d:/intel_fpga/nios2eds/bin/gnu/h-x86_64-mingw32/bin/../lib/gcc/nios2-elf/10.3.1/../../../../../H-x86_64-mingw32/nios2-elf/lib\libc.a(lib_a-puts.o)
 .debug_loc     0x0000000000003d43      0x145 d:/intel_fpga/nios2eds/bin/gnu/h-x86_64-mingw32/bin/../lib/gcc/nios2-elf/10.3.1/../../../../../H-x86_64-mingw32/nios2-elf/lib\libc.a(lib_a-refill.o)
 .debug_loc     0x0000000000003e88      0x1b0 d:/intel_fpga/nios2eds/bin/gnu/h-x86_64-mingw32/bin/../lib/gcc/nios2-elf/10.3.1/../../../../../H-x86_64-mingw32/nios2-elf/lib\libc.a(lib_a-rget.o)
 .debug_loc     0x0000000000004038       0x89 d:/intel_fpga/nios2eds/bin/gnu/h-x86_64-mingw32/bin/../lib/gcc/nios2-elf/10.3.1/../../../../../H-x86_64-mingw32/nios2-elf/lib\libc.a(lib_a-sbrkr.o)
 .debug_loc     0x00000000000040c1      0x11e d:/intel_fpga/nios2eds/bin/gnu/h-x86_64-mingw32/bin/../lib/gcc/nios2-elf/10.3.1/../../../../../H-x86_64-mingw32/nios2-elf/lib\libc.a(lib_a-sprintf.o)
 .debug_loc     0x00000000000041df      0x138 d:/intel_fpga/nios2eds/bin/gnu/h-x86_64-mingw32/bin/../lib/gcc/nios2-elf/10.3.1/../../../../../H-x86_64-mingw32/nios2-elf/lib\libc.a(lib_a-sscanf.o)
 .debug_loc     0x0000000000004317      0x456 d:/intel_fpga/nios2eds/bin/gnu/h-x86_64-mingw32/bin/../lib/gcc/nios2-elf/10.3.1/../../../../../H-x86_64-mingw32/nios2-elf/lib\libc.a(lib_a-stdio.o)
 .debug_loc     0x000000000000476d       0xb2 d:/intel_fpga/nios2eds/bin/gnu/h-x86_64-mingw32/bin/../lib/gcc/nios2-elf/10.3.1/../../../../../H-x86_64-mingw32/nios2-elf/lib\libc.a(lib_a-strcat.o)
 .debug_loc     0x000000000000481f      0x1c6 d:/intel_fpga/nios2eds/bin/gnu/h-x86_64-mingw32/bin/../lib/gcc/nios2-elf/10.3.1/../../../../../H-x86_64-mingw32/nios2-elf/lib\libc.a(lib_a-strchr.o)
 .debug_loc     0x00000000000049e5       0x8e d:/intel_fpga/nios2eds/bin/gnu/h-x86_64-mingw32/bin/../lib/gcc/nios2-elf/10.3.1/../../../../../H-x86_64-mingw32/nios2-elf/lib\libc.a(lib_a-strcmp.o)
 .debug_loc     0x0000000000004a73      0x125 d:/intel_fpga/nios2eds/bin/gnu/h-x86_64-mingw32/bin/../lib/gcc/nios2-elf/10.3.1/../../../../../H-x86_64-mingw32/nios2-elf/lib\libc.a(lib_a-strcpy.o)
 .debug_loc     0x0000000000004b98       0x73 d:/intel_fpga/nios2eds/bin/gnu/h-x86_64-mingw32/bin/../lib/gcc/nios2-elf/10.3.1/../../../../../H-x86_64-mingw32/nios2-elf/lib\libc.a(lib_a-strlen.o)
 .debug_loc     0x0000000000004c0b     0x1020 d:/intel_fpga/nios2eds/bin/gnu/h-x86_64-mingw32/bin/../lib/gcc/nios2-elf/10.3.1/../../../../../H-x86_64-mingw32/nios2-elf/lib\libc.a(lib_a-strstr.o)
 .debug_loc     0x0000000000005c2b     0x365d d:/intel_fpga/nios2eds/bin/gnu/h-x86_64-mingw32/bin/../lib/gcc/nios2-elf/10.3.1/../../../../../H-x86_64-mingw32/nios2-elf/lib\libc.a(lib_a-svfprintf.o)
 .debug_loc     0x0000000000009288     0x2190 d:/intel_fpga/nios2eds/bin/gnu/h-x86_64-mingw32/bin/../lib/gcc/nios2-elf/10.3.1/../../../../../H-x86_64-mingw32/nios2-elf/lib\libc.a(lib_a-svfscanf.o)
 .debug_loc     0x000000000000b418     0x3a45 d:/intel_fpga/nios2eds/bin/gnu/h-x86_64-mingw32/bin/../lib/gcc/nios2-elf/10.3.1/../../../../../H-x86_64-mingw32/nios2-elf/lib\libc.a(lib_a-vfprintf.o)
 .debug_loc     0x000000000000ee5d       0xed d:/intel_fpga/nios2eds/bin/gnu/h-x86_64-mingw32/bin/../lib/gcc/nios2-elf/10.3.1/../../../../../H-x86_64-mingw32/nios2-elf/lib\libc.a(lib_a-writer.o)
 .debug_loc     0x000000000000ef4a       0xd4 d:/intel_fpga/nios2eds/bin/gnu/h-x86_64-mingw32/bin/../lib/gcc/nios2-elf/10.3.1/../../../../../H-x86_64-mingw32/nios2-elf/lib\libc.a(lib_a-wsetup.o)
 .debug_loc     0x000000000000f01e       0x89 d:/intel_fpga/nios2eds/bin/gnu/h-x86_64-mingw32/bin/../lib/gcc/nios2-elf/10.3.1/../../../../../H-x86_64-mingw32/nios2-elf/lib\libc.a(closer.o)
 .debug_loc     0x000000000000f0a7     0x30d1 d:/intel_fpga/nios2eds/bin/gnu/h-x86_64-mingw32/bin/../lib/gcc/nios2-elf/10.3.1/../../../../../H-x86_64-mingw32/nios2-elf/lib\libc.a(lib_a-dtoa.o)
 .debug_loc     0x0000000000012178      0x2fc d:/intel_fpga/nios2eds/bin/gnu/h-x86_64-mingw32/bin/../lib/gcc/nios2-elf/10.3.1/../../../../../H-x86_64-mingw32/nios2-elf/lib\libc.a(lib_a-fclose.o)
 .debug_loc     0x0000000000012474       0xda d:/intel_fpga/nios2eds/bin/gnu/h-x86_64-mingw32/bin/../lib/gcc/nios2-elf/10.3.1/../../../../../H-x86_64-mingw32/nios2-elf/lib\libc.a(lib_a-flags.o)
 .debug_loc     0x000000000001254e      0x6f4 d:/intel_fpga/nios2eds/bin/gnu/h-x86_64-mingw32/bin/../lib/gcc/nios2-elf/10.3.1/../../../../../H-x86_64-mingw32/nios2-elf/lib\libc.a(lib_a-fvwrite.o)
 .debug_loc     0x0000000000012c42       0x89 d:/intel_fpga/nios2eds/bin/gnu/h-x86_64-mingw32/bin/../lib/gcc/nios2-elf/10.3.1/../../../../../H-x86_64-mingw32/nios2-elf/lib\libc.a(lib_a-isattyr.o)
 .debug_loc     0x0000000000012ccb       0x25 d:/intel_fpga/nios2eds/bin/gnu/h-x86_64-mingw32/bin/../lib/gcc/nios2-elf/10.3.1/../../../../../H-x86_64-mingw32/nios2-elf/lib\libc.a(lib_a-iswspace.o)
 .debug_loc     0x0000000000012cf0      0x2f1 d:/intel_fpga/nios2eds/bin/gnu/h-x86_64-mingw32/bin/../lib/gcc/nios2-elf/10.3.1/../../../../../H-x86_64-mingw32/nios2-elf/lib\libc.a(lib_a-locale.o)
 .debug_loc     0x0000000000012fe1       0x25 d:/intel_fpga/nios2eds/bin/gnu/h-x86_64-mingw32/bin/../lib/gcc/nios2-elf/10.3.1/../../../../../H-x86_64-mingw32/nios2-elf/lib\libc.a(lib_a-localeconv.o)
 .debug_loc     0x0000000000013006       0xed d:/intel_fpga/nios2eds/bin/gnu/h-x86_64-mingw32/bin/../lib/gcc/nios2-elf/10.3.1/../../../../../H-x86_64-mingw32/nios2-elf/lib\libc.a(lib_a-lseekr.o)
 .debug_loc     0x00000000000130f3      0x328 d:/intel_fpga/nios2eds/bin/gnu/h-x86_64-mingw32/bin/../lib/gcc/nios2-elf/10.3.1/../../../../../H-x86_64-mingw32/nios2-elf/lib\libc.a(lib_a-mbrtowc.o)
 .debug_loc     0x000000000001341b      0x119 d:/intel_fpga/nios2eds/bin/gnu/h-x86_64-mingw32/bin/../lib/gcc/nios2-elf/10.3.1/../../../../../H-x86_64-mingw32/nios2-elf/lib\libc.a(lib_a-mbtowc_r.o)
 .debug_loc     0x0000000000013534      0x158 d:/intel_fpga/nios2eds/bin/gnu/h-x86_64-mingw32/bin/../lib/gcc/nios2-elf/10.3.1/../../../../../H-x86_64-mingw32/nios2-elf/lib\libc.a(lib_a-memcmp.o)
 .debug_loc     0x000000000001368c      0x3ff d:/intel_fpga/nios2eds/bin/gnu/h-x86_64-mingw32/bin/../lib/gcc/nios2-elf/10.3.1/../../../../../H-x86_64-mingw32/nios2-elf/lib\libc.a(lib_a-memmove.o)
 .debug_loc     0x0000000000013a8b     0x24b5 d:/intel_fpga/nios2eds/bin/gnu/h-x86_64-mingw32/bin/../lib/gcc/nios2-elf/10.3.1/../../../../../H-x86_64-mingw32/nios2-elf/lib\libc.a(lib_a-mprec.o)
 .debug_loc     0x0000000000015f40       0xed d:/intel_fpga/nios2eds/bin/gnu/h-x86_64-mingw32/bin/../lib/gcc/nios2-elf/10.3.1/../../../../../H-x86_64-mingw32/nios2-elf/lib\libc.a(lib_a-readr.o)
 .debug_loc     0x000000000001602d     0x11b9 d:/intel_fpga/nios2eds/bin/gnu/h-x86_64-mingw32/bin/../lib/gcc/nios2-elf/10.3.1/../../../../../H-x86_64-mingw32/nios2-elf/lib\libc.a(lib_a-reallocr.o)
 .debug_loc     0x00000000000171e6      0x1f4 d:/intel_fpga/nios2eds/bin/gnu/h-x86_64-mingw32/bin/../lib/gcc/nios2-elf/10.3.1/../../../../../H-x86_64-mingw32/nios2-elf/lib\libc.a(lib_a-sccl.o)
 .debug_loc     0x00000000000173da       0xd2 d:/intel_fpga/nios2eds/bin/gnu/h-x86_64-mingw32/bin/../lib/gcc/nios2-elf/10.3.1/../../../../../H-x86_64-mingw32/nios2-elf/lib\libc.a(lib_a-strnlen.o)
 .debug_loc     0x00000000000174ac     0x3120 d:/intel_fpga/nios2eds/bin/gnu/h-x86_64-mingw32/bin/../lib/gcc/nios2-elf/10.3.1/../../../../../H-x86_64-mingw32/nios2-elf/lib\libc.a(lib_a-strtod.o)
 .debug_loc     0x000000000001a5cc      0xbe0 d:/intel_fpga/nios2eds/bin/gnu/h-x86_64-mingw32/bin/../lib/gcc/nios2-elf/10.3.1/../../../../../H-x86_64-mingw32/nios2-elf/lib\libc.a(lib_a-strtol.o)
 .debug_loc     0x000000000001b1ac      0x75e d:/intel_fpga/nios2eds/bin/gnu/h-x86_64-mingw32/bin/../lib/gcc/nios2-elf/10.3.1/../../../../../H-x86_64-mingw32/nios2-elf/lib\libc.a(lib_a-strtoll.o)
 .debug_loc     0x000000000001b90a      0x6bd d:/intel_fpga/nios2eds/bin/gnu/h-x86_64-mingw32/bin/../lib/gcc/nios2-elf/10.3.1/../../../../../H-x86_64-mingw32/nios2-elf/lib\libc.a(lib_a-strtoul.o)
 .debug_loc     0x000000000001bfc7      0x747 d:/intel_fpga/nios2eds/bin/gnu/h-x86_64-mingw32/bin/../lib/gcc/nios2-elf/10.3.1/../../../../../H-x86_64-mingw32/nios2-elf/lib\libc.a(lib_a-strtoull.o)
 .debug_loc     0x000000000001c70e     0x174b d:/intel_fpga/nios2eds/bin/gnu/h-x86_64-mingw32/bin/../lib/gcc/nios2-elf/10.3.1/../../../../../H-x86_64-mingw32/nios2-elf/lib\libc.a(lib_a-svfiprintf.o)
 .debug_loc     0x000000000001de59     0x1f83 d:/intel_fpga/nios2eds/bin/gnu/h-x86_64-mingw32/bin/../lib/gcc/nios2-elf/10.3.1/../../../../../H-x86_64-mingw32/nios2-elf/lib\libc.a(lib_a-svfiscanf.o)
 .debug_loc     0x000000000001fddc      0x33f d:/intel_fpga/nios2eds/bin/gnu/h-x86_64-mingw32/bin/../lib/gcc/nios2-elf/10.3.1/../../../../../H-x86_64-mingw32/nios2-elf/lib\libc.a(lib_a-ungetc.o)
 .debug_loc     0x000000000002011b     0x2b95 d:/intel_fpga/nios2eds/bin/gnu/h-x86_64-mingw32/bin/../lib/gcc/nios2-elf/10.3.1/../../../../../H-x86_64-mingw32/nios2-elf/lib\libc.a(lib_a-vfiprintf.o)
 .debug_loc     0x0000000000022cb0       0xa9 d:/intel_fpga/nios2eds/bin/gnu/h-x86_64-mingw32/bin/../lib/gcc/nios2-elf/10.3.1/../../../../../H-x86_64-mingw32/nios2-elf/lib\libc.a(lib_a-wctomb_r.o)
 .debug_loc     0x0000000000022d59      0x1a2 d:/intel_fpga/nios2eds/bin/gnu/h-x86_64-mingw32/bin/../lib/gcc/nios2-elf/10.3.1/../../../../../H-x86_64-mingw32/nios2-elf/lib\libc.a(lib_a-assert.o)
 .debug_loc     0x0000000000022efb      0x374 d:/intel_fpga/nios2eds/bin/gnu/h-x86_64-mingw32/bin/../lib/gcc/nios2-elf/10.3.1/../../../../../H-x86_64-mingw32/nios2-elf/lib\libc.a(lib_a-callocr.o)
 .debug_loc     0x000000000002326f      0x12b d:/intel_fpga/nios2eds/bin/gnu/h-x86_64-mingw32/bin/../lib/gcc/nios2-elf/10.3.1/../../../../../H-x86_64-mingw32/nios2-elf/lib\libc.a(lib_a-fiprintf.o)
 .debug_loc     0x000000000002339a      0x2eb d:/intel_fpga/nios2eds/bin/gnu/h-x86_64-mingw32/bin/../lib/gcc/nios2-elf/10.3.1/../../../../../H-x86_64-mingw32/nios2-elf/lib\libc.a(lib_a-fputwc.o)
 .debug_loc     0x0000000000023685     0x15e6 d:/intel_fpga/nios2eds/bin/gnu/h-x86_64-mingw32/bin/../lib/gcc/nios2-elf/10.3.1/../../../../../H-x86_64-mingw32/nios2-elf/lib\libc.a(lib_a-gdtoa-gethex.o)
 .debug_loc     0x0000000000024c6b      0x779 d:/intel_fpga/nios2eds/bin/gnu/h-x86_64-mingw32/bin/../lib/gcc/nios2-elf/10.3.1/../../../../../H-x86_64-mingw32/nios2-elf/lib\libc.a(lib_a-gdtoa-hexnan.o)
 .debug_loc     0x00000000000253e4      0x175 d:/intel_fpga/nios2eds/bin/gnu/h-x86_64-mingw32/bin/../lib/gcc/nios2-elf/10.3.1/../../../../../H-x86_64-mingw32/nios2-elf/lib\libc.a(lib_a-strncmp.o)
 .debug_loc     0x0000000000025559       0x94 d:/intel_fpga/nios2eds/bin/gnu/h-x86_64-mingw32/bin/../lib/gcc/nios2-elf/10.3.1/../../../../../H-x86_64-mingw32/nios2-elf/lib\libc.a(lib_a-vfiprintfr_1.o)
 .debug_loc     0x00000000000255ed      0x201 d:/intel_fpga/nios2eds/bin/gnu/h-x86_64-mingw32/bin/../lib/gcc/nios2-elf/10.3.1/../../../../../H-x86_64-mingw32/nios2-elf/lib\libc.a(lib_a-wbuf.o)
 .debug_loc     0x00000000000257ee      0x2a4 d:/intel_fpga/nios2eds/bin/gnu/h-x86_64-mingw32/bin/../lib/gcc/nios2-elf/10.3.1/../../../../../H-x86_64-mingw32/nios2-elf/lib\libc.a(lib_a-wcrtomb.o)
 .debug_loc     0x0000000000025a92      0x8e7 d:/intel_fpga/nios2eds/bin/gnu/h-x86_64-mingw32/bin/../lib/gcc/nios2-elf/10.3.1/../../../../../H-x86_64-mingw32/nios2-elf/lib\libc.a(lib_a-signal.o)
 .debug_loc     0x0000000000026379       0xe0 d:/intel_fpga/nios2eds/bin/gnu/h-x86_64-mingw32/bin/../lib/gcc/nios2-elf/10.3.1/../../../../../H-x86_64-mingw32/nios2-elf/lib\libc.a(lib_a-signalr.o)
 .debug_loc     0x0000000000026459      0x187 d:/intel_fpga/nios2eds/bin/gnu/h-x86_64-mingw32/bin/../lib/gcc/nios2-elf/10.3.1\libgcc.a(_muldi3.o)
 .debug_loc     0x00000000000265e0       0x2c d:/intel_fpga/nios2eds/bin/gnu/h-x86_64-mingw32/bin/../lib/gcc/nios2-elf/10.3.1\libgcc.a(_fixunsdfsi.o)
 .debug_loc     0x000000000002660c       0x2c d:/intel_fpga/nios2eds/bin/gnu/h-x86_64-mingw32/bin/../lib/gcc/nios2-elf/10.3.1\libgcc.a(_fixdfdi.o)
 .debug_loc     0x0000000000026638       0x5b d:/intel_fpga/nios2eds/bin/gnu/h-x86_64-mingw32/bin/../lib/gcc/nios2-elf/10.3.1\libgcc.a(_fixunsdfdi.o)
 .debug_loc     0x0000000000026693       0x58 d:/intel_fpga/nios2eds/bin/gnu/h-x86_64-mingw32/bin/../lib/gcc/nios2-elf/10.3.1\libgcc.a(_floatdidf.o)
 .debug_loc     0x00000000000266eb     0x14a5 d:/intel_fpga/nios2eds/bin/gnu/h-x86_64-mingw32/bin/../lib/gcc/nios2-elf/10.3.1\libgcc.a(_udivdi3.o)
 .debug_loc     0x0000000000027b90     0x1185 d:/intel_fpga/nios2eds/bin/gnu/h-x86_64-mingw32/bin/../lib/gcc/nios2-elf/10.3.1\libgcc.a(_umoddi3.o)
 .debug_loc     0x0000000000028d15      0x5d0 d:/intel_fpga/nios2eds/bin/gnu/h-x86_64-mingw32/bin/../lib/gcc/nios2-elf/10.3.1\libgcc.a(lib2-divmod.o)
 .debug_loc     0x00000000000292e5      0x17e d:/intel_fpga/nios2eds/bin/gnu/h-x86_64-mingw32/bin/../lib/gcc/nios2-elf/10.3.1\libgcc.a(lesf2.o)
 .debug_loc     0x0000000000029463      0x122 d:/intel_fpga/nios2eds/bin/gnu/h-x86_64-mingw32/bin/../lib/gcc/nios2-elf/10.3.1\libgcc.a(unordsf2.o)
 .debug_loc     0x0000000000029585     0x1ecb d:/intel_fpga/nios2eds/bin/gnu/h-x86_64-mingw32/bin/../lib/gcc/nios2-elf/10.3.1\libgcc.a(adddf3.o)
 .debug_loc     0x000000000002b450     0x22de d:/intel_fpga/nios2eds/bin/gnu/h-x86_64-mingw32/bin/../lib/gcc/nios2-elf/10.3.1\libgcc.a(divdf3.o)
 .debug_loc     0x000000000002d72e      0x113 d:/intel_fpga/nios2eds/bin/gnu/h-x86_64-mingw32/bin/../lib/gcc/nios2-elf/10.3.1\libgcc.a(eqdf2.o)
 .debug_loc     0x000000000002d841      0x185 d:/intel_fpga/nios2eds/bin/gnu/h-x86_64-mingw32/bin/../lib/gcc/nios2-elf/10.3.1\libgcc.a(gedf2.o)
 .debug_loc     0x000000000002d9c6      0x177 d:/intel_fpga/nios2eds/bin/gnu/h-x86_64-mingw32/bin/../lib/gcc/nios2-elf/10.3.1\libgcc.a(ledf2.o)
 .debug_loc     0x000000000002db3d     0x12d0 d:/intel_fpga/nios2eds/bin/gnu/h-x86_64-mingw32/bin/../lib/gcc/nios2-elf/10.3.1\libgcc.a(muldf3.o)
 .debug_loc     0x000000000002ee0d     0x1eb1 d:/intel_fpga/nios2eds/bin/gnu/h-x86_64-mingw32/bin/../lib/gcc/nios2-elf/10.3.1\libgcc.a(subdf3.o)
 .debug_loc     0x0000000000030cbe       0x9e d:/intel_fpga/nios2eds/bin/gnu/h-x86_64-mingw32/bin/../lib/gcc/nios2-elf/10.3.1\libgcc.a(unorddf2.o)
 .debug_loc     0x0000000000030d5c      0x1bf d:/intel_fpga/nios2eds/bin/gnu/h-x86_64-mingw32/bin/../lib/gcc/nios2-elf/10.3.1\libgcc.a(fixdfsi.o)
 .debug_loc     0x0000000000030f1b      0x239 d:/intel_fpga/nios2eds/bin/gnu/h-x86_64-mingw32/bin/../lib/gcc/nios2-elf/10.3.1\libgcc.a(floatsidf.o)
 .debug_loc     0x0000000000031154      0x24d d:/intel_fpga/nios2eds/bin/gnu/h-x86_64-mingw32/bin/../lib/gcc/nios2-elf/10.3.1\libgcc.a(floatunsidf.o)
 .debug_loc     0x00000000000313a1      0x41a d:/intel_fpga/nios2eds/bin/gnu/h-x86_64-mingw32/bin/../lib/gcc/nios2-elf/10.3.1\libgcc.a(truncdfsf2.o)
 .debug_loc     0x00000000000317bb       0xbe d:/intel_fpga/nios2eds/bin/gnu/h-x86_64-mingw32/bin/../lib/gcc/nios2-elf/10.3.1\libgcc.a(_clzsi2.o)
 .debug_loc     0x0000000000031879       0x32 d:/intel_fpga/nios2eds/bin/gnu/h-x86_64-mingw32/bin/../lib/gcc/nios2-elf/10.3.1/../../../../../H-x86_64-mingw32/nios2-elf/lib\libc.a(lib_a-atexit.o)
 .debug_loc     0x00000000000318ab       0x22 d:/intel_fpga/nios2eds/bin/gnu/h-x86_64-mingw32/bin/../lib/gcc/nios2-elf/10.3.1/../../../../../H-x86_64-mingw32/nios2-elf/lib\libc.a(lib_a-exit.o)
 .debug_loc     0x00000000000318cd       0xf7 d:/intel_fpga/nios2eds/bin/gnu/h-x86_64-mingw32/bin/../lib/gcc/nios2-elf/10.3.1/../../../../../H-x86_64-mingw32/nios2-elf/lib\libc.a(lib_a-__atexit.o)
 .debug_loc     0x00000000000319c4      0x1ca d:/intel_fpga/nios2eds/bin/gnu/h-x86_64-mingw32/bin/../lib/gcc/nios2-elf/10.3.1/../../../../../H-x86_64-mingw32/nios2-elf/lib\libc.a(lib_a-__call_atexit.o)

.debug_macinfo
 *(.debug_macinfo)

.debug_weaknames
 *(.debug_weaknames)

.debug_funcnames
 *(.debug_funcnames)

.debug_typenames
 *(.debug_typenames)

.debug_varnames
 *(.debug_varnames)

.debug_alt_sim_info
                0x0000000000000000       0x60
 *(.debug_alt_sim_info)
 .debug_alt_sim_info
                0x0000000000000000       0x30 d:/Downloads/RFS/DE10_Nano_WiFi_Web_Server/software/ewaff_server_bsp//obj/HAL/src/crt0.o
 .debug_alt_sim_info
                0x0000000000000030       0x30 d:/Downloads/RFS/DE10_Nano_WiFi_Web_Server/software/ewaff_server_bsp/\libhal_bsp.a(alt_busy_sleep.o)
                0x00000000000649f0                __alt_data_end = 0x649f0
                0x00000000000649f0                PROVIDE (__alt_stack_pointer = __alt_data_end)
                [!provide]                        PROVIDE (__alt_stack_limit = __alt_stack_base)
                0x00000000000627f4                PROVIDE (__alt_heap_start = end)
                0x00000000000649f0                PROVIDE (__alt_heap_limit = 0x649f0)
OUTPUT(ewaff_server.elf elf32-littlenios2)
LOAD linker stubs

.debug_ranges   0x0000000000000000     0x35d8
 .debug_ranges  0x0000000000000000       0x20 d:/Downloads/RFS/DE10_Nano_WiFi_Web_Server/software/ewaff_server_bsp//obj/HAL/src/crt0.o
 .debug_ranges  0x0000000000000020       0x18 d:/intel_fpga/nios2eds/bin/gnu/h-x86_64-mingw32/bin/../lib/gcc/nios2-elf/10.3.1\libgcc.a(fixsfsi.o)
 .debug_ranges  0x0000000000000038       0xc8 d:/intel_fpga/nios2eds/bin/gnu/h-x86_64-mingw32/bin/../lib/gcc/nios2-elf/10.3.1/../../../../../H-x86_64-mingw32/nios2-elf/lib\libc.a(lib_a-fflush.o)
 .debug_ranges  0x0000000000000100       0x58 d:/intel_fpga/nios2eds/bin/gnu/h-x86_64-mingw32/bin/../lib/gcc/nios2-elf/10.3.1/../../../../../H-x86_64-mingw32/nios2-elf/lib\libc.a(lib_a-fgetc.o)
 .debug_ranges  0x0000000000000158       0x30 d:/intel_fpga/nios2eds/bin/gnu/h-x86_64-mingw32/bin/../lib/gcc/nios2-elf/10.3.1/../../../../../H-x86_64-mingw32/nios2-elf/lib\libc.a(lib_a-fgets.o)
 .debug_ranges  0x0000000000000188       0x30 d:/intel_fpga/nios2eds/bin/gnu/h-x86_64-mingw32/bin/../lib/gcc/nios2-elf/10.3.1/../../../../../H-x86_64-mingw32/nios2-elf/lib\libc.a(lib_a-fileno.o)
 .debug_ranges  0x00000000000001b8      0x148 d:/intel_fpga/nios2eds/bin/gnu/h-x86_64-mingw32/bin/../lib/gcc/nios2-elf/10.3.1/../../../../../H-x86_64-mingw32/nios2-elf/lib\libc.a(lib_a-findfp.o)
 .debug_ranges  0x0000000000000300       0x18 d:/intel_fpga/nios2eds/bin/gnu/h-x86_64-mingw32/bin/../lib/gcc/nios2-elf/10.3.1/../../../../../H-x86_64-mingw32/nios2-elf/lib\libc.a(lib_a-fopen.o)
 .debug_ranges  0x0000000000000318       0x18 d:/intel_fpga/nios2eds/bin/gnu/h-x86_64-mingw32/bin/../lib/gcc/nios2-elf/10.3.1/../../../../../H-x86_64-mingw32/nios2-elf/lib\libc.a(lib_a-fprintf.o)
 .debug_ranges  0x0000000000000330       0x18 d:/intel_fpga/nios2eds/bin/gnu/h-x86_64-mingw32/bin/../lib/gcc/nios2-elf/10.3.1/../../../../../H-x86_64-mingw32/nios2-elf/lib\libc.a(lib_a-freer.o)
 .debug_ranges  0x0000000000000348       0x38 d:/intel_fpga/nios2eds/bin/gnu/h-x86_64-mingw32/bin/../lib/gcc/nios2-elf/10.3.1/../../../../../H-x86_64-mingw32/nios2-elf/lib\libc.a(lib_a-fseek.o)
 .debug_ranges  0x0000000000000380       0x40 d:/intel_fpga/nios2eds/bin/gnu/h-x86_64-mingw32/bin/../lib/gcc/nios2-elf/10.3.1/../../../../../H-x86_64-mingw32/nios2-elf/lib\libc.a(lib_a-fseeko.o)
 .debug_ranges  0x00000000000003c0       0x10 d:/intel_fpga/nios2eds/bin/gnu/h-x86_64-mingw32/bin/../lib/gcc/nios2-elf/10.3.1/../../../../../H-x86_64-mingw32/nios2-elf/lib\libc.a(lib_a-fstatr.o)
 .debug_ranges  0x00000000000003d0       0x18 d:/intel_fpga/nios2eds/bin/gnu/h-x86_64-mingw32/bin/../lib/gcc/nios2-elf/10.3.1/../../../../../H-x86_64-mingw32/nios2-elf/lib\libc.a(lib_a-fwalk.o)
 .debug_ranges  0x00000000000003e8       0xc0 d:/intel_fpga/nios2eds/bin/gnu/h-x86_64-mingw32/bin/../lib/gcc/nios2-elf/10.3.1/../../../../../H-x86_64-mingw32/nios2-elf/lib\libc.a(lib_a-makebuf.o)
 .debug_ranges  0x00000000000004a8       0x18 d:/intel_fpga/nios2eds/bin/gnu/h-x86_64-mingw32/bin/../lib/gcc/nios2-elf/10.3.1/../../../../../H-x86_64-mingw32/nios2-elf/lib\libc.a(lib_a-malloc.o)
 .debug_ranges  0x00000000000004c0       0x60 d:/intel_fpga/nios2eds/bin/gnu/h-x86_64-mingw32/bin/../lib/gcc/nios2-elf/10.3.1/../../../../../H-x86_64-mingw32/nios2-elf/lib\libc.a(lib_a-mallocr.o)
 .debug_ranges  0x0000000000000520       0x10 d:/intel_fpga/nios2eds/bin/gnu/h-x86_64-mingw32/bin/../lib/gcc/nios2-elf/10.3.1/../../../../../H-x86_64-mingw32/nios2-elf/lib\libc.a(lib_a-memchr.o)
 .debug_ranges  0x0000000000000530       0x10 d:/intel_fpga/nios2eds/bin/gnu/h-x86_64-mingw32/bin/../lib/gcc/nios2-elf/10.3.1/../../../../../H-x86_64-mingw32/nios2-elf/lib\libc.a(lib_a-memcpy.o)
 .debug_ranges  0x0000000000000540       0x10 d:/intel_fpga/nios2eds/bin/gnu/h-x86_64-mingw32/bin/../lib/gcc/nios2-elf/10.3.1/../../../../../H-x86_64-mingw32/nios2-elf/lib\libc.a(lib_a-memset.o)
 .debug_ranges  0x0000000000000550       0x10 d:/intel_fpga/nios2eds/bin/gnu/h-x86_64-mingw32/bin/../lib/gcc/nios2-elf/10.3.1/../../../../../H-x86_64-mingw32/nios2-elf/lib\libc.a(lib_a-openr.o)
 .debug_ranges  0x0000000000000560       0x18 d:/intel_fpga/nios2eds/bin/gnu/h-x86_64-mingw32/bin/../lib/gcc/nios2-elf/10.3.1/../../../../../H-x86_64-mingw32/nios2-elf/lib\libc.a(lib_a-printf.o)
 .debug_ranges  0x0000000000000578       0x30 d:/intel_fpga/nios2eds/bin/gnu/h-x86_64-mingw32/bin/../lib/gcc/nios2-elf/10.3.1/../../../../../H-x86_64-mingw32/nios2-elf/lib\libc.a(lib_a-puts.o)
 .debug_ranges  0x00000000000005a8       0x40 d:/intel_fpga/nios2eds/bin/gnu/h-x86_64-mingw32/bin/../lib/gcc/nios2-elf/10.3.1/../../../../../H-x86_64-mingw32/nios2-elf/lib\libc.a(lib_a-refill.o)
 .debug_ranges  0x00000000000005e8       0x70 d:/intel_fpga/nios2eds/bin/gnu/h-x86_64-mingw32/bin/../lib/gcc/nios2-elf/10.3.1/../../../../../H-x86_64-mingw32/nios2-elf/lib\libc.a(lib_a-rget.o)
 .debug_ranges  0x0000000000000658       0x10 d:/intel_fpga/nios2eds/bin/gnu/h-x86_64-mingw32/bin/../lib/gcc/nios2-elf/10.3.1/../../../../../H-x86_64-mingw32/nios2-elf/lib\libc.a(lib_a-sbrkr.o)
 .debug_ranges  0x0000000000000668       0x18 d:/intel_fpga/nios2eds/bin/gnu/h-x86_64-mingw32/bin/../lib/gcc/nios2-elf/10.3.1/../../../../../H-x86_64-mingw32/nios2-elf/lib\libc.a(lib_a-sprintf.o)
 .debug_ranges  0x0000000000000680       0x18 d:/intel_fpga/nios2eds/bin/gnu/h-x86_64-mingw32/bin/../lib/gcc/nios2-elf/10.3.1/../../../../../H-x86_64-mingw32/nios2-elf/lib\libc.a(lib_a-sscanf.o)
 .debug_ranges  0x0000000000000698       0x30 d:/intel_fpga/nios2eds/bin/gnu/h-x86_64-mingw32/bin/../lib/gcc/nios2-elf/10.3.1/../../../../../H-x86_64-mingw32/nios2-elf/lib\libc.a(lib_a-stdio.o)
 .debug_ranges  0x00000000000006c8       0x10 d:/intel_fpga/nios2eds/bin/gnu/h-x86_64-mingw32/bin/../lib/gcc/nios2-elf/10.3.1/../../../../../H-x86_64-mingw32/nios2-elf/lib\libc.a(lib_a-strcat.o)
 .debug_ranges  0x00000000000006d8       0x10 d:/intel_fpga/nios2eds/bin/gnu/h-x86_64-mingw32/bin/../lib/gcc/nios2-elf/10.3.1/../../../../../H-x86_64-mingw32/nios2-elf/lib\libc.a(lib_a-strchr.o)
 .debug_ranges  0x00000000000006e8       0x10 d:/intel_fpga/nios2eds/bin/gnu/h-x86_64-mingw32/bin/../lib/gcc/nios2-elf/10.3.1/../../../../../H-x86_64-mingw32/nios2-elf/lib\libc.a(lib_a-strcmp.o)
 .debug_ranges  0x00000000000006f8       0x10 d:/intel_fpga/nios2eds/bin/gnu/h-x86_64-mingw32/bin/../lib/gcc/nios2-elf/10.3.1/../../../../../H-x86_64-mingw32/nios2-elf/lib\libc.a(lib_a-strcpy.o)
 .debug_ranges  0x0000000000000708       0x10 d:/intel_fpga/nios2eds/bin/gnu/h-x86_64-mingw32/bin/../lib/gcc/nios2-elf/10.3.1/../../../../../H-x86_64-mingw32/nios2-elf/lib\libc.a(lib_a-strlen.o)
 .debug_ranges  0x0000000000000718       0xc0 d:/intel_fpga/nios2eds/bin/gnu/h-x86_64-mingw32/bin/../lib/gcc/nios2-elf/10.3.1/../../../../../H-x86_64-mingw32/nios2-elf/lib\libc.a(lib_a-strstr.o)
 .debug_ranges  0x00000000000007d8      0x1a8 d:/intel_fpga/nios2eds/bin/gnu/h-x86_64-mingw32/bin/../lib/gcc/nios2-elf/10.3.1/../../../../../H-x86_64-mingw32/nios2-elf/lib\libc.a(lib_a-svfprintf.o)
 .debug_ranges  0x0000000000000980      0x2a8 d:/intel_fpga/nios2eds/bin/gnu/h-x86_64-mingw32/bin/../lib/gcc/nios2-elf/10.3.1/../../../../../H-x86_64-mingw32/nios2-elf/lib\libc.a(lib_a-svfscanf.o)
 .debug_ranges  0x0000000000000c28      0x1c8 d:/intel_fpga/nios2eds/bin/gnu/h-x86_64-mingw32/bin/../lib/gcc/nios2-elf/10.3.1/../../../../../H-x86_64-mingw32/nios2-elf/lib\libc.a(lib_a-vfprintf.o)
 .debug_ranges  0x0000000000000df0       0x10 d:/intel_fpga/nios2eds/bin/gnu/h-x86_64-mingw32/bin/../lib/gcc/nios2-elf/10.3.1/../../../../../H-x86_64-mingw32/nios2-elf/lib\libc.a(lib_a-writer.o)
 .debug_ranges  0x0000000000000e00       0x30 d:/intel_fpga/nios2eds/bin/gnu/h-x86_64-mingw32/bin/../lib/gcc/nios2-elf/10.3.1/../../../../../H-x86_64-mingw32/nios2-elf/lib\libc.a(lib_a-wsetup.o)
 .debug_ranges  0x0000000000000e30       0x10 d:/intel_fpga/nios2eds/bin/gnu/h-x86_64-mingw32/bin/../lib/gcc/nios2-elf/10.3.1/../../../../../H-x86_64-mingw32/nios2-elf/lib\libc.a(closer.o)
 .debug_ranges  0x0000000000000e40       0x50 d:/intel_fpga/nios2eds/bin/gnu/h-x86_64-mingw32/bin/../lib/gcc/nios2-elf/10.3.1/../../../../../H-x86_64-mingw32/nios2-elf/lib\libc.a(lib_a-dtoa.o)
 .debug_ranges  0x0000000000000e90       0x90 d:/intel_fpga/nios2eds/bin/gnu/h-x86_64-mingw32/bin/../lib/gcc/nios2-elf/10.3.1/../../../../../H-x86_64-mingw32/nios2-elf/lib\libc.a(lib_a-fclose.o)
 .debug_ranges  0x0000000000000f20       0x10 d:/intel_fpga/nios2eds/bin/gnu/h-x86_64-mingw32/bin/../lib/gcc/nios2-elf/10.3.1/../../../../../H-x86_64-mingw32/nios2-elf/lib\libc.a(lib_a-flags.o)
 .debug_ranges  0x0000000000000f30       0x38 d:/intel_fpga/nios2eds/bin/gnu/h-x86_64-mingw32/bin/../lib/gcc/nios2-elf/10.3.1/../../../../../H-x86_64-mingw32/nios2-elf/lib\libc.a(lib_a-fvwrite.o)
 .debug_ranges  0x0000000000000f68       0x10 d:/intel_fpga/nios2eds/bin/gnu/h-x86_64-mingw32/bin/../lib/gcc/nios2-elf/10.3.1/../../../../../H-x86_64-mingw32/nios2-elf/lib\libc.a(lib_a-isattyr.o)
 .debug_ranges  0x0000000000000f78       0x10 d:/intel_fpga/nios2eds/bin/gnu/h-x86_64-mingw32/bin/../lib/gcc/nios2-elf/10.3.1/../../../../../H-x86_64-mingw32/nios2-elf/lib\libc.a(lib_a-iswspace.o)
 .debug_ranges  0x0000000000000f88       0x10 d:/intel_fpga/nios2eds/bin/gnu/h-x86_64-mingw32/bin/../lib/gcc/nios2-elf/10.3.1/../../../../../H-x86_64-mingw32/nios2-elf/lib\libc.a(lib_a-iswspace_l.o)
 .debug_ranges  0x0000000000000f98       0x80 d:/intel_fpga/nios2eds/bin/gnu/h-x86_64-mingw32/bin/../lib/gcc/nios2-elf/10.3.1/../../../../../H-x86_64-mingw32/nios2-elf/lib\libc.a(lib_a-locale.o)
 .debug_ranges  0x0000000000001018       0x20 d:/intel_fpga/nios2eds/bin/gnu/h-x86_64-mingw32/bin/../lib/gcc/nios2-elf/10.3.1/../../../../../H-x86_64-mingw32/nios2-elf/lib\libc.a(lib_a-localeconv.o)
 .debug_ranges  0x0000000000001038       0x10 d:/intel_fpga/nios2eds/bin/gnu/h-x86_64-mingw32/bin/../lib/gcc/nios2-elf/10.3.1/../../../../../H-x86_64-mingw32/nios2-elf/lib\libc.a(lib_a-lseekr.o)
 .debug_ranges  0x0000000000001048       0x18 d:/intel_fpga/nios2eds/bin/gnu/h-x86_64-mingw32/bin/../lib/gcc/nios2-elf/10.3.1/../../../../../H-x86_64-mingw32/nios2-elf/lib\libc.a(lib_a-mbrtowc.o)
 .debug_ranges  0x0000000000001060       0x18 d:/intel_fpga/nios2eds/bin/gnu/h-x86_64-mingw32/bin/../lib/gcc/nios2-elf/10.3.1/../../../../../H-x86_64-mingw32/nios2-elf/lib\libc.a(lib_a-mbtowc_r.o)
 .debug_ranges  0x0000000000001078       0x10 d:/intel_fpga/nios2eds/bin/gnu/h-x86_64-mingw32/bin/../lib/gcc/nios2-elf/10.3.1/../../../../../H-x86_64-mingw32/nios2-elf/lib\libc.a(lib_a-memcmp.o)
 .debug_ranges  0x0000000000001088       0x10 d:/intel_fpga/nios2eds/bin/gnu/h-x86_64-mingw32/bin/../lib/gcc/nios2-elf/10.3.1/../../../../../H-x86_64-mingw32/nios2-elf/lib\libc.a(lib_a-memmove.o)
 .debug_ranges  0x0000000000001098      0x1e0 d:/intel_fpga/nios2eds/bin/gnu/h-x86_64-mingw32/bin/../lib/gcc/nios2-elf/10.3.1/../../../../../H-x86_64-mingw32/nios2-elf/lib\libc.a(lib_a-mprec.o)
 .debug_ranges  0x0000000000001278       0x10 d:/intel_fpga/nios2eds/bin/gnu/h-x86_64-mingw32/bin/../lib/gcc/nios2-elf/10.3.1/../../../../../H-x86_64-mingw32/nios2-elf/lib\libc.a(lib_a-readr.o)
 .debug_ranges  0x0000000000001288      0x158 d:/intel_fpga/nios2eds/bin/gnu/h-x86_64-mingw32/bin/../lib/gcc/nios2-elf/10.3.1/../../../../../H-x86_64-mingw32/nios2-elf/lib\libc.a(lib_a-reallocr.o)
 .debug_ranges  0x00000000000013e0       0x10 d:/intel_fpga/nios2eds/bin/gnu/h-x86_64-mingw32/bin/../lib/gcc/nios2-elf/10.3.1/../../../../../H-x86_64-mingw32/nios2-elf/lib\libc.a(lib_a-sccl.o)
 .debug_ranges  0x00000000000013f0       0x10 d:/intel_fpga/nios2eds/bin/gnu/h-x86_64-mingw32/bin/../lib/gcc/nios2-elf/10.3.1/../../../../../H-x86_64-mingw32/nios2-elf/lib\libc.a(lib_a-strnlen.o)
 .debug_ranges  0x0000000000001400      0x140 d:/intel_fpga/nios2eds/bin/gnu/h-x86_64-mingw32/bin/../lib/gcc/nios2-elf/10.3.1/../../../../../H-x86_64-mingw32/nios2-elf/lib\libc.a(lib_a-strtod.o)
 .debug_ranges  0x0000000000001540       0xb0 d:/intel_fpga/nios2eds/bin/gnu/h-x86_64-mingw32/bin/../lib/gcc/nios2-elf/10.3.1/../../../../../H-x86_64-mingw32/nios2-elf/lib\libc.a(lib_a-strtol.o)
 .debug_ranges  0x00000000000015f0       0x28 d:/intel_fpga/nios2eds/bin/gnu/h-x86_64-mingw32/bin/../lib/gcc/nios2-elf/10.3.1/../../../../../H-x86_64-mingw32/nios2-elf/lib\libc.a(lib_a-strtoll.o)
 .debug_ranges  0x0000000000001618       0x28 d:/intel_fpga/nios2eds/bin/gnu/h-x86_64-mingw32/bin/../lib/gcc/nios2-elf/10.3.1/../../../../../H-x86_64-mingw32/nios2-elf/lib\libc.a(lib_a-strtoul.o)
 .debug_ranges  0x0000000000001640       0x28 d:/intel_fpga/nios2eds/bin/gnu/h-x86_64-mingw32/bin/../lib/gcc/nios2-elf/10.3.1/../../../../../H-x86_64-mingw32/nios2-elf/lib\libc.a(lib_a-strtoull.o)
 .debug_ranges  0x0000000000001668       0x70 d:/intel_fpga/nios2eds/bin/gnu/h-x86_64-mingw32/bin/../lib/gcc/nios2-elf/10.3.1/../../../../../H-x86_64-mingw32/nios2-elf/lib\libc.a(lib_a-svfiprintf.o)
 .debug_ranges  0x00000000000016d8      0x418 d:/intel_fpga/nios2eds/bin/gnu/h-x86_64-mingw32/bin/../lib/gcc/nios2-elf/10.3.1/../../../../../H-x86_64-mingw32/nios2-elf/lib\libc.a(lib_a-svfiscanf.o)
 .debug_ranges  0x0000000000001af0       0x38 d:/intel_fpga/nios2eds/bin/gnu/h-x86_64-mingw32/bin/../lib/gcc/nios2-elf/10.3.1/../../../../../H-x86_64-mingw32/nios2-elf/lib\libc.a(lib_a-ungetc.o)
 .debug_ranges  0x0000000000001b28      0x1c8 d:/intel_fpga/nios2eds/bin/gnu/h-x86_64-mingw32/bin/../lib/gcc/nios2-elf/10.3.1/../../../../../H-x86_64-mingw32/nios2-elf/lib\libc.a(lib_a-vfiprintf.o)
 .debug_ranges  0x0000000000001cf0       0x18 d:/intel_fpga/nios2eds/bin/gnu/h-x86_64-mingw32/bin/../lib/gcc/nios2-elf/10.3.1/../../../../../H-x86_64-mingw32/nios2-elf/lib\libc.a(lib_a-wctomb_r.o)
 .debug_ranges  0x0000000000001d08       0x18 d:/intel_fpga/nios2eds/bin/gnu/h-x86_64-mingw32/bin/../lib/gcc/nios2-elf/10.3.1/../../../../../H-x86_64-mingw32/nios2-elf/lib\libc.a(lib_a-assert.o)
 .debug_ranges  0x0000000000001d20       0x60 d:/intel_fpga/nios2eds/bin/gnu/h-x86_64-mingw32/bin/../lib/gcc/nios2-elf/10.3.1/../../../../../H-x86_64-mingw32/nios2-elf/lib\libc.a(lib_a-callocr.o)
 .debug_ranges  0x0000000000001d80       0x10 d:/intel_fpga/nios2eds/bin/gnu/h-x86_64-mingw32/bin/../lib/gcc/nios2-elf/10.3.1/../../../../../H-x86_64-mingw32/nios2-elf/lib\libc.a(lib_a-errno.o)
 .debug_ranges  0x0000000000001d90       0x18 d:/intel_fpga/nios2eds/bin/gnu/h-x86_64-mingw32/bin/../lib/gcc/nios2-elf/10.3.1/../../../../../H-x86_64-mingw32/nios2-elf/lib\libc.a(lib_a-fiprintf.o)
 .debug_ranges  0x0000000000001da8       0x58 d:/intel_fpga/nios2eds/bin/gnu/h-x86_64-mingw32/bin/../lib/gcc/nios2-elf/10.3.1/../../../../../H-x86_64-mingw32/nios2-elf/lib\libc.a(lib_a-fputwc.o)
 .debug_ranges  0x0000000000001e00       0x98 d:/intel_fpga/nios2eds/bin/gnu/h-x86_64-mingw32/bin/../lib/gcc/nios2-elf/10.3.1/../../../../../H-x86_64-mingw32/nios2-elf/lib\libc.a(lib_a-gdtoa-gethex.o)
 .debug_ranges  0x0000000000001e98       0x30 d:/intel_fpga/nios2eds/bin/gnu/h-x86_64-mingw32/bin/../lib/gcc/nios2-elf/10.3.1/../../../../../H-x86_64-mingw32/nios2-elf/lib\libc.a(lib_a-gdtoa-hexnan.o)
 .debug_ranges  0x0000000000001ec8       0x10 d:/intel_fpga/nios2eds/bin/gnu/h-x86_64-mingw32/bin/../lib/gcc/nios2-elf/10.3.1/../../../../../H-x86_64-mingw32/nios2-elf/lib\libc.a(lib_a-lnumeric.o)
 .debug_ranges  0x0000000000001ed8       0x10 d:/intel_fpga/nios2eds/bin/gnu/h-x86_64-mingw32/bin/../lib/gcc/nios2-elf/10.3.1/../../../../../H-x86_64-mingw32/nios2-elf/lib\libc.a(lib_a-strncmp.o)
 .debug_ranges  0x0000000000001ee8       0x10 d:/intel_fpga/nios2eds/bin/gnu/h-x86_64-mingw32/bin/../lib/gcc/nios2-elf/10.3.1/../../../../../H-x86_64-mingw32/nios2-elf/lib\libc.a(lib_a-vfiprintfr_1.o)
 .debug_ranges  0x0000000000001ef8       0x40 d:/intel_fpga/nios2eds/bin/gnu/h-x86_64-mingw32/bin/../lib/gcc/nios2-elf/10.3.1/../../../../../H-x86_64-mingw32/nios2-elf/lib\libc.a(lib_a-wbuf.o)
 .debug_ranges  0x0000000000001f38       0x18 d:/intel_fpga/nios2eds/bin/gnu/h-x86_64-mingw32/bin/../lib/gcc/nios2-elf/10.3.1/../../../../../H-x86_64-mingw32/nios2-elf/lib\libc.a(lib_a-wcrtomb.o)
 .debug_ranges  0x0000000000001f50       0x10 d:/intel_fpga/nios2eds/bin/gnu/h-x86_64-mingw32/bin/../lib/gcc/nios2-elf/10.3.1/../../../../../H-x86_64-mingw32/nios2-elf/lib\libc.a(lib_a-abort.o)
 .debug_ranges  0x0000000000001f60      0x100 d:/intel_fpga/nios2eds/bin/gnu/h-x86_64-mingw32/bin/../lib/gcc/nios2-elf/10.3.1/../../../../../H-x86_64-mingw32/nios2-elf/lib\libc.a(lib_a-signal.o)
 .debug_ranges  0x0000000000002060       0x18 d:/intel_fpga/nios2eds/bin/gnu/h-x86_64-mingw32/bin/../lib/gcc/nios2-elf/10.3.1/../../../../../H-x86_64-mingw32/nios2-elf/lib\libc.a(lib_a-signalr.o)
 .debug_ranges  0x0000000000002078       0x20 d:/intel_fpga/nios2eds/bin/gnu/h-x86_64-mingw32/bin/../lib/gcc/nios2-elf/10.3.1\libgcc.a(_muldi3.o)
 .debug_ranges  0x0000000000002098      0x1d0 d:/intel_fpga/nios2eds/bin/gnu/h-x86_64-mingw32/bin/../lib/gcc/nios2-elf/10.3.1\libgcc.a(_udivdi3.o)
 .debug_ranges  0x0000000000002268      0x180 d:/intel_fpga/nios2eds/bin/gnu/h-x86_64-mingw32/bin/../lib/gcc/nios2-elf/10.3.1\libgcc.a(_umoddi3.o)
 .debug_ranges  0x00000000000023e8       0x70 d:/intel_fpga/nios2eds/bin/gnu/h-x86_64-mingw32/bin/../lib/gcc/nios2-elf/10.3.1\libgcc.a(lib2-divmod.o)
 .debug_ranges  0x0000000000002458       0x70 d:/intel_fpga/nios2eds/bin/gnu/h-x86_64-mingw32/bin/../lib/gcc/nios2-elf/10.3.1\libgcc.a(lesf2.o)
 .debug_ranges  0x00000000000024c8       0x20 d:/intel_fpga/nios2eds/bin/gnu/h-x86_64-mingw32/bin/../lib/gcc/nios2-elf/10.3.1\libgcc.a(unordsf2.o)
 .debug_ranges  0x00000000000024e8      0x328 d:/intel_fpga/nios2eds/bin/gnu/h-x86_64-mingw32/bin/../lib/gcc/nios2-elf/10.3.1\libgcc.a(adddf3.o)
 .debug_ranges  0x0000000000002810      0x250 d:/intel_fpga/nios2eds/bin/gnu/h-x86_64-mingw32/bin/../lib/gcc/nios2-elf/10.3.1\libgcc.a(divdf3.o)
 .debug_ranges  0x0000000000002a60       0x48 d:/intel_fpga/nios2eds/bin/gnu/h-x86_64-mingw32/bin/../lib/gcc/nios2-elf/10.3.1\libgcc.a(eqdf2.o)
 .debug_ranges  0x0000000000002aa8       0x70 d:/intel_fpga/nios2eds/bin/gnu/h-x86_64-mingw32/bin/../lib/gcc/nios2-elf/10.3.1\libgcc.a(gedf2.o)
 .debug_ranges  0x0000000000002b18       0x70 d:/intel_fpga/nios2eds/bin/gnu/h-x86_64-mingw32/bin/../lib/gcc/nios2-elf/10.3.1\libgcc.a(ledf2.o)
 .debug_ranges  0x0000000000002b88      0x2d0 d:/intel_fpga/nios2eds/bin/gnu/h-x86_64-mingw32/bin/../lib/gcc/nios2-elf/10.3.1\libgcc.a(muldf3.o)
 .debug_ranges  0x0000000000002e58      0x3a8 d:/intel_fpga/nios2eds/bin/gnu/h-x86_64-mingw32/bin/../lib/gcc/nios2-elf/10.3.1\libgcc.a(subdf3.o)
 .debug_ranges  0x0000000000003200       0x48 d:/intel_fpga/nios2eds/bin/gnu/h-x86_64-mingw32/bin/../lib/gcc/nios2-elf/10.3.1\libgcc.a(unorddf2.o)
 .debug_ranges  0x0000000000003248       0x18 d:/intel_fpga/nios2eds/bin/gnu/h-x86_64-mingw32/bin/../lib/gcc/nios2-elf/10.3.1\libgcc.a(fixdfsi.o)
 .debug_ranges  0x0000000000003260       0xd8 d:/intel_fpga/nios2eds/bin/gnu/h-x86_64-mingw32/bin/../lib/gcc/nios2-elf/10.3.1\libgcc.a(floatsidf.o)
 .debug_ranges  0x0000000000003338       0xd8 d:/intel_fpga/nios2eds/bin/gnu/h-x86_64-mingw32/bin/../lib/gcc/nios2-elf/10.3.1\libgcc.a(floatunsidf.o)
 .debug_ranges  0x0000000000003410       0x78 d:/intel_fpga/nios2eds/bin/gnu/h-x86_64-mingw32/bin/../lib/gcc/nios2-elf/10.3.1\libgcc.a(truncdfsf2.o)
 .debug_ranges  0x0000000000003488       0x20 d:/intel_fpga/nios2eds/bin/gnu/h-x86_64-mingw32/bin/../lib/gcc/nios2-elf/10.3.1\libgcc.a(_clzsi2.o)
 .debug_ranges  0x00000000000034a8       0x30 d:/Downloads/RFS/DE10_Nano_WiFi_Web_Server/software/ewaff_server_bsp/\libhal_bsp.a(altera_avalon_jtag_uart_init.o)
 .debug_ranges  0x00000000000034d8       0x18 d:/Downloads/RFS/DE10_Nano_WiFi_Web_Server/software/ewaff_server_bsp/\libhal_bsp.a(altera_avalon_jtag_uart_read.o)
 .debug_ranges  0x00000000000034f0       0x28 d:/Downloads/RFS/DE10_Nano_WiFi_Web_Server/software/ewaff_server_bsp/\libhal_bsp.a(alt_irq_entry.o)
 .debug_ranges  0x0000000000003518       0x10 d:/Downloads/RFS/DE10_Nano_WiFi_Web_Server/software/ewaff_server_bsp/\libhal_bsp.a(alt_irq_handler.o)
 .debug_ranges  0x0000000000003528       0x30 d:/Downloads/RFS/DE10_Nano_WiFi_Web_Server/software/ewaff_server_bsp/\libhal_bsp.a(alt_exception_entry.o)
 .debug_ranges  0x0000000000003558       0x18 d:/Downloads/RFS/DE10_Nano_WiFi_Web_Server/software/ewaff_server_bsp/\libhal_bsp.a(alt_instruction_exception_entry.o)
 .debug_ranges  0x0000000000003570       0x10 d:/intel_fpga/nios2eds/bin/gnu/h-x86_64-mingw32/bin/../lib/gcc/nios2-elf/10.3.1/../../../../../H-x86_64-mingw32/nios2-elf/lib\libc.a(lib_a-atexit.o)
 .debug_ranges  0x0000000000003580       0x10 d:/intel_fpga/nios2eds/bin/gnu/h-x86_64-mingw32/bin/../lib/gcc/nios2-elf/10.3.1/../../../../../H-x86_64-mingw32/nios2-elf/lib\libc.a(lib_a-exit.o)
 .debug_ranges  0x0000000000003590       0x10 d:/intel_fpga/nios2eds/bin/gnu/h-x86_64-mingw32/bin/../lib/gcc/nios2-elf/10.3.1/../../../../../H-x86_64-mingw32/nios2-elf/lib\libc.a(lib_a-__atexit.o)
 .debug_ranges  0x00000000000035a0       0x38 d:/intel_fpga/nios2eds/bin/gnu/h-x86_64-mingw32/bin/../lib/gcc/nios2-elf/10.3.1/../../../../../H-x86_64-mingw32/nios2-elf/lib\libc.a(lib_a-__call_atexit.o)
