
ewaff_server.elf:     file format elf32-littlenios2
ewaff_server.elf
architecture: nios2:r1, flags 0x00000112:
EXEC_P, HAS_SYMS, D_PAGED
start address 0x00040238

Program Header:
    LOAD off    0x00001000 vaddr 0x00040000 paddr 0x00040000 align 2**12
         filesz 0x00000020 memsz 0x00000020 flags r-x
    LOAD off    0x00001020 vaddr 0x00040020 paddr 0x00040020 align 2**12
         filesz 0x0001dacc memsz 0x0001dacc flags r-x
    LOAD off    0x0001eaec vaddr 0x0005daec paddr 0x0005fec0 align 2**12
         filesz 0x000023d4 memsz 0x000023d4 flags rw-
    LOAD off    0x00000294 vaddr 0x00062294 paddr 0x00062294 align 2**12
         filesz 0x00000000 memsz 0x00000560 flags rw-

Sections:
Idx Name          Size      VMA       LMA       File off  Algn
  0 .entry        00000020  00040000  00040000  00001000  2**5
                  CONTENTS, ALLOC, LOAD, READONLY, CODE
  1 .exceptions   00000218  00040020  00040020  00001020  2**2
                  CONTENTS, ALLOC, LOAD, READONLY, CODE
  2 .text         0001cb3c  00040238  00040238  00001238  2**2
                  CONTENTS, ALLOC, LOAD, READONLY, CODE
  3 .rodata       00000d78  0005cd74  0005cd74  0001dd74  2**2
                  CONTENTS, ALLOC, LOAD, READONLY, DATA
  4 .rwdata       000023d4  0005daec  0005fec0  0001eaec  2**2
                  CONTENTS, ALLOC, LOAD, DATA, SMALL_DATA
  5 .bss          00000560  00062294  00062294  00021294  2**2
                  ALLOC, SMALL_DATA
  6 .onchip_memory2 00000000  000627f4  000627f4  00020ec0  2**0
                  CONTENTS
  7 .comment      0000002d  00000000  00000000  00020ec0  2**0
                  CONTENTS, READONLY
  8 .debug_aranges 00001870  00000000  00000000  00020ef0  2**3
                  CONTENTS, READONLY, DEBUGGING, OCTETS
  9 .debug_info   0004c03c  00000000  00000000  00022760  2**0
                  CONTENTS, READONLY, DEBUGGING, OCTETS
 10 .debug_abbrev 00012264  00000000  00000000  0006e79c  2**0
                  CONTENTS, READONLY, DEBUGGING, OCTETS
 11 .debug_line   00026830  00000000  00000000  00080a00  2**0
                  CONTENTS, READONLY, DEBUGGING, OCTETS
 12 .debug_frame  000037c8  00000000  00000000  000a7230  2**2
                  CONTENTS, READONLY, DEBUGGING, OCTETS
 13 .debug_str    000053e7  00000000  00000000  000aa9f8  2**0
                  CONTENTS, READONLY, DEBUGGING, OCTETS
 14 .debug_loc    00031b8e  00000000  00000000  000afddf  2**0
                  CONTENTS, READONLY, DEBUGGING, OCTETS
 15 .debug_alt_sim_info 00000060  00000000  00000000  000e1970  2**2
                  CONTENTS, READONLY, DEBUGGING, OCTETS
 16 .debug_ranges 000035d8  00000000  00000000  000e19d0  2**3
                  CONTENTS, READONLY, DEBUGGING, OCTETS
 17 .thread_model 00000003  00000000  00000000  000e97c8  2**0
                  CONTENTS, READONLY
 18 .cpu          0000000c  00000000  00000000  000e97cb  2**0
                  CONTENTS, READONLY
 19 .qsys         00000001  00000000  00000000  000e97d7  2**0
                  CONTENTS, READONLY
 20 .simulation_enabled 00000001  00000000  00000000  000e97d8  2**0
                  CONTENTS, READONLY
 21 .sysid_hash   00000004  00000000  00000000  000e97d9  2**0
                  CONTENTS, READONLY
 22 .sysid_base   00000004  00000000  00000000  000e97dd  2**0
                  CONTENTS, READONLY
 23 .sysid_time   00000004  00000000  00000000  000e97e1  2**0
                  CONTENTS, READONLY
 24 .stderr_dev   00000009  00000000  00000000  000e97e5  2**0
                  CONTENTS, READONLY
 25 .stdin_dev    00000009  00000000  00000000  000e97ee  2**0
                  CONTENTS, READONLY
 26 .stdout_dev   00000009  00000000  00000000  000e97f7  2**0
                  CONTENTS, READONLY
 27 .sopc_system_name 00000008  00000000  00000000  000e9800  2**0
                  CONTENTS, READONLY
 28 .sopcinfo     000555dc  00000000  00000000  000e9808  2**0
                  CONTENTS, READONLY
SYMBOL TABLE:
00040000 l    d  .entry	00000000 .entry
00040020 l    d  .exceptions	00000000 .exceptions
00040238 l    d  .text	00000000 .text
0005cd74 l    d  .rodata	00000000 .rodata
0005daec l    d  .rwdata	00000000 .rwdata
00062294 l    d  .bss	00000000 .bss
000627f4 l    d  .onchip_memory2	00000000 .onchip_memory2
00000000 l    d  .comment	00000000 .comment
00000000 l    d  .debug_aranges	00000000 .debug_aranges
00000000 l    d  .debug_info	00000000 .debug_info
00000000 l    d  .debug_abbrev	00000000 .debug_abbrev
00000000 l    d  .debug_line	00000000 .debug_line
00000000 l    d  .debug_frame	00000000 .debug_frame
00000000 l    d  .debug_str	00000000 .debug_str
00000000 l    d  .debug_loc	00000000 .debug_loc
00000000 l    d  .debug_alt_sim_info	00000000 .debug_alt_sim_info
00000000 l    d  .debug_ranges	00000000 .debug_ranges
00000000 l    df *ABS*	00000000 d:/Downloads/RFS/DE10_Nano_WiFi_Web_Server/software/ewaff_server_bsp//obj/HAL/src/crt0.o
00040280 l       .text	00000000 alt_after_alt_main
00000000 l    df *ABS*	00000000 alt_irq_handler.c
00000000 l    df *ABS*	00000000 alt_instruction_exception_entry.c
00000000 l    df *ABS*	00000000 esp8266.c
00000000 l    df *ABS*	00000000 main.c
00000000 l    df *ABS*	00000000 fixsfsi.c
00000000 l    df *ABS*	00000000 fflush.c
00000000 l    df *ABS*	00000000 fgetc.c
00000000 l    df *ABS*	00000000 fgets.c
00000000 l    df *ABS*	00000000 fileno.c
00000000 l    df *ABS*	00000000 findfp.c
00041dc0 l     F .text	00000008 __fp_lock
00041dd4 l     F .text	00000008 __fp_unlock
00041ddc l     F .text	00000168 __sinit.part.0
00000000 l    df *ABS*	00000000 fopen.c
00000000 l    df *ABS*	00000000 fprintf.c
00000000 l    df *ABS*	00000000 mallocr.c
00000000 l    df *ABS*	00000000 fseek.c
00000000 l    df *ABS*	00000000 fseeko.c
00000000 l    df *ABS*	00000000 fstatr.c
00000000 l    df *ABS*	00000000 fwalk.c
00000000 l    df *ABS*	00000000 impure.c
0005e1ec l     O .rwdata	00000424 impure_data
00000000 l    df *ABS*	00000000 int_errno.c
00000000 l    df *ABS*	00000000 makebuf.c
00000000 l    df *ABS*	00000000 malloc.c
00000000 l    df *ABS*	00000000 mallocr.c
00000000 l    df *ABS*	00000000 memchr.c
00000000 l    df *ABS*	00000000 memcpy.c
00000000 l    df *ABS*	00000000 memset.c
00000000 l    df *ABS*	00000000 openr.c
00000000 l    df *ABS*	00000000 printf.c
00000000 l    df *ABS*	00000000 puts.c
00000000 l    df *ABS*	00000000 refill.c
00043ba8 l     F .text	0000001c lflush
00000000 l    df *ABS*	00000000 rget.c
00000000 l    df *ABS*	00000000 sbrkr.c
00000000 l    df *ABS*	00000000 sprintf.c
00000000 l    df *ABS*	00000000 sscanf.c
00000000 l    df *ABS*	00000000 stdio.c
00000000 l    df *ABS*	00000000 strcat.c
00000000 l    df *ABS*	00000000 strchr.c
00000000 l    df *ABS*	00000000 strcmp.c
00000000 l    df *ABS*	00000000 strcpy.c
00000000 l    df *ABS*	00000000 strlen.c
00000000 l    df *ABS*	00000000 strstr.c
0004458c l     F .text	000003f8 two_way_long_needle
00000000 l    df *ABS*	00000000 vfprintf.c
0005d2b0 l     O .rodata	00000010 blanks.1
0005d2a0 l     O .rodata	00000010 zeroes.0
00000000 l    df *ABS*	00000000 vfscanf.c
0005d2c6 l     O .rodata	00000022 basefix.0
00000000 l    df *ABS*	00000000 vfprintf.c
0004a484 l     F .text	000000c0 __sbprintf
0005d2f8 l     O .rodata	00000010 blanks.1
0005d2e8 l     O .rodata	00000010 zeroes.0
00000000 l    df *ABS*	00000000 writer.c
00000000 l    df *ABS*	00000000 wsetup.c
00000000 l    df *ABS*	00000000 closer.c
00000000 l    df *ABS*	00000000 ctype_.c
00000000 l    df *ABS*	00000000 dtoa.c
0004a764 l     F .text	000001fc quorem
00000000 l    df *ABS*	00000000 fclose.c
0004c0a8 l     F .text	000000c0 _fclose_r.part.0
00000000 l    df *ABS*	00000000 flags.c
00000000 l    df *ABS*	00000000 fvwrite.c
00000000 l    df *ABS*	00000000 isattyr.c
00000000 l    df *ABS*	00000000 iswspace.c
00000000 l    df *ABS*	00000000 iswspace_l.c
00000000 l    df *ABS*	00000000 locale.c
00000000 l    df *ABS*	00000000 localeconv.c
00000000 l    df *ABS*	00000000 lseekr.c
00000000 l    df *ABS*	00000000 mbrtowc.c
00000000 l    df *ABS*	00000000 mbtowc_r.c
00000000 l    df *ABS*	00000000 memcmp.c
00000000 l    df *ABS*	00000000 memmove.c
00000000 l    df *ABS*	00000000 mprec.c
0005d638 l     O .rodata	0000000c p05.0
00000000 l    df *ABS*	00000000 readr.c
00000000 l    df *ABS*	00000000 mallocr.c
00000000 l    df *ABS*	00000000 sccl.c
00000000 l    df *ABS*	00000000 strnlen.c
00000000 l    df *ABS*	00000000 strtod.c
0005d794 l     O .rodata	00000028 tinytens
0005d780 l     O .rodata	00000014 fpi.1
0005d76c l     O .rodata	00000014 fpinan.0
00000000 l    df *ABS*	00000000 strtol.c
0004fd64 l     F .text	0000021c _strtol_l.part.0
00000000 l    df *ABS*	00000000 strtoll.c
00050058 l     F .text	000002cc _strtoll_l.constprop.0
00000000 l    df *ABS*	00000000 strtoul.c
00050360 l     F .text	00000248 _strtoul_l.constprop.0
00000000 l    df *ABS*	00000000 strtoull.c
000505e4 l     F .text	00000318 _strtoull_l.constprop.0
00000000 l    df *ABS*	00000000 vfprintf.c
0005d7cc l     O .rodata	00000010 blanks.1
0005d7bc l     O .rodata	00000010 zeroes.0
00000000 l    df *ABS*	00000000 vfscanf.c
0005d7dc l     O .rodata	00000022 basefix.0
00000000 l    df *ABS*	00000000 ungetc.c
00000000 l    df *ABS*	00000000 vfprintf.c
00053518 l     F .text	000000f4 __sprint_r.part.0
00054890 l     F .text	000000c0 __sbprintf
0005d810 l     O .rodata	00000010 blanks.1
0005d800 l     O .rodata	00000010 zeroes.0
00000000 l    df *ABS*	00000000 wctomb_r.c
00000000 l    df *ABS*	00000000 assert.c
00000000 l    df *ABS*	00000000 mallocr.c
00000000 l    df *ABS*	00000000 errno.c
00000000 l    df *ABS*	00000000 fiprintf.c
00000000 l    df *ABS*	00000000 fputwc.c
00000000 l    df *ABS*	00000000 gdtoa-gethex.c
00054d94 l     F .text	000000dc rshift
00000000 l    df *ABS*	00000000 gdtoa-hexnan.c
00000000 l    df *ABS*	00000000 lnumeric.c
0005fe94 l     O .rwdata	00000002 numempty
00000000 l    df *ABS*	00000000 strncmp.c
00000000 l    df *ABS*	00000000 vfiprintfr_1.c
00000000 l    df *ABS*	00000000 wbuf.c
00000000 l    df *ABS*	00000000 wcrtomb.c
00000000 l    df *ABS*	00000000 abort.c
00000000 l    df *ABS*	00000000 signal.c
00000000 l    df *ABS*	00000000 signalr.c
00000000 l    df *ABS*	00000000 libgcc2.c
00000000 l    df *ABS*	00000000 libgcc2.c
00000000 l    df *ABS*	00000000 libgcc2.c
00000000 l    df *ABS*	00000000 libgcc2.c
00000000 l    df *ABS*	00000000 libgcc2.c
00000000 l    df *ABS*	00000000 libgcc2.c
00000000 l    df *ABS*	00000000 libgcc2.c
00000000 l    df *ABS*	00000000 lib2-divmod.c
00000000 l    df *ABS*	00000000 lesf2.c
00000000 l    df *ABS*	00000000 unordsf2.c
00000000 l    df *ABS*	00000000 adddf3.c
00000000 l    df *ABS*	00000000 divdf3.c
00000000 l    df *ABS*	00000000 eqdf2.c
00000000 l    df *ABS*	00000000 gedf2.c
00000000 l    df *ABS*	00000000 ledf2.c
00000000 l    df *ABS*	00000000 muldf3.c
00000000 l    df *ABS*	00000000 subdf3.c
00000000 l    df *ABS*	00000000 unorddf2.c
00000000 l    df *ABS*	00000000 fixdfsi.c
00000000 l    df *ABS*	00000000 floatsidf.c
00000000 l    df *ABS*	00000000 floatunsidf.c
00000000 l    df *ABS*	00000000 truncdfsf2.c
00000000 l    df *ABS*	00000000 libgcc2.c
00000000 l    df *ABS*	00000000 libgcc2.c
00000000 l    df *ABS*	00000000 alt_close.c
0005995c l     F .text	0000003c alt_get_errno
00000000 l    df *ABS*	00000000 alt_dev.c
00059a68 l     F .text	0000002c alt_dev_null_write
00000000 l    df *ABS*	00000000 alt_errno.c
00000000 l    df *ABS*	00000000 alt_exit.c
00000000 l    df *ABS*	00000000 alt_fcntl.c
00059acc l     F .text	0000003c alt_get_errno
00000000 l    df *ABS*	00000000 alt_fstat.c
00059c2c l     F .text	0000003c alt_get_errno
00000000 l    df *ABS*	00000000 alt_getpid.c
00000000 l    df *ABS*	00000000 alt_isatty.c
00059d38 l     F .text	0000003c alt_get_errno
00000000 l    df *ABS*	00000000 alt_kill.c
00059e18 l     F .text	0000003c alt_get_errno
00000000 l    df *ABS*	00000000 alt_load.c
00059f80 l     F .text	00000068 alt_load_section
00000000 l    df *ABS*	00000000 alt_lseek.c
0005a06c l     F .text	0000003c alt_get_errno
00000000 l    df *ABS*	00000000 alt_main.c
00000000 l    df *ABS*	00000000 alt_malloc_lock.c
00000000 l    df *ABS*	00000000 alt_open.c
0005a240 l     F .text	0000003c alt_get_errno
0005a27c l     F .text	000000b8 alt_file_locked
00000000 l    df *ABS*	00000000 alt_read.c
0005a488 l     F .text	0000003c alt_get_errno
00000000 l    df *ABS*	00000000 alt_release_fd.c
00000000 l    df *ABS*	00000000 alt_sbrk.c
0005feb0 l     O .rwdata	00000004 heap_end
00000000 l    df *ABS*	00000000 alt_usleep.c
00000000 l    df *ABS*	00000000 alt_write.c
0005a700 l     F .text	0000003c alt_get_errno
00000000 l    df *ABS*	00000000 alt_sys_init.c
0005a834 l     F .text	00000034 alt_dev_reg
0005ed2c l     O .rwdata	00001060 jtag_uart
0005fd8c l     O .rwdata	000000c4 wifi_uart0
00000000 l    df *ABS*	00000000 altera_avalon_jtag_uart_fd.c
00000000 l    df *ABS*	00000000 altera_avalon_jtag_uart_init.c
0005ab4c l     F .text	0000020c altera_avalon_jtag_uart_irq
0005ad58 l     F .text	000000a0 altera_avalon_jtag_uart_timeout
00000000 l    df *ABS*	00000000 altera_avalon_jtag_uart_ioctl.c
00000000 l    df *ABS*	00000000 altera_avalon_jtag_uart_read.c
00000000 l    df *ABS*	00000000 altera_avalon_jtag_uart_write.c
00000000 l    df *ABS*	00000000 altera_avalon_timer_sc.c
0005b39c l     F .text	0000007c alt_avalon_timer_sc_irq
00000000 l    df *ABS*	00000000 altera_avalon_uart_fd.c
00000000 l    df *ABS*	00000000 altera_avalon_uart_init.c
0005b658 l     F .text	0000009c altera_avalon_uart_irq
0005b6f4 l     F .text	000000e0 altera_avalon_uart_rxirq
0005b7d4 l     F .text	00000144 altera_avalon_uart_txirq
00000000 l    df *ABS*	00000000 altera_avalon_uart_read.c
0005b96c l     F .text	0000003c alt_get_errno
00000000 l    df *ABS*	00000000 altera_avalon_uart_write.c
0005bb90 l     F .text	0000003c alt_get_errno
00000000 l    df *ABS*	00000000 alt_alarm_start.c
00000000 l    df *ABS*	00000000 alt_busy_sleep.c
00000000 l    df *ABS*	00000000 alt_dcache_flush_all.c
00000000 l    df *ABS*	00000000 alt_dev_llist_insert.c
0005c084 l     F .text	0000003c alt_get_errno
00000000 l    df *ABS*	00000000 alt_do_ctors.c
00000000 l    df *ABS*	00000000 alt_do_dtors.c
00000000 l    df *ABS*	00000000 alt_find_dev.c
00000000 l    df *ABS*	00000000 alt_find_file.c
00000000 l    df *ABS*	00000000 alt_get_fd.c
00000000 l    df *ABS*	00000000 alt_icache_flush_all.c
00000000 l    df *ABS*	00000000 alt_iic.c
00000000 l    df *ABS*	00000000 alt_iic_isr_register.c
00000000 l    df *ABS*	00000000 alt_io_redirect.c
0005c734 l     F .text	000000b0 alt_open_fd
00000000 l    df *ABS*	00000000 alt_irq_vars.c
00000000 l    df *ABS*	00000000 alt_tick.c
00000000 l    df *ABS*	00000000 altera_nios2_gen2_irq.c
00000000 l    df *ABS*	00000000 alt_icache_flush.c
00000000 l    df *ABS*	00000000 atexit.c
00000000 l    df *ABS*	00000000 exit.c
00000000 l    df *ABS*	00000000 __atexit.c
00000000 l    df *ABS*	00000000 __call_atexit.c
000622c8 g     O .bss	00000004 alt_instruction_exception_handler
0004dc94 g     F .text	00000070 _mprec_log10
0004dd80 g     F .text	00000060 __any_on
0004c784 g     F .text	00000058 _isatty_r
0005d644 g     O .rodata	00000028 __mprec_tinytens
0005a17c g     F .text	0000007c alt_main
00044468 g     F .text	0000008c strcpy
00043acc g     F .text	000000cc _puts_r
000626f4 g     O .bss	00000100 alt_irq
0004c91c g     F .text	00000064 _lseek_r
0005fec0 g       *ABS*	00000000 __flash_rwdata_start
0004c248 g     F .text	000000b8 __sflags
000583ac g     F .text	00000080 .hidden __eqdf2
0005fe70 g     O .rwdata	00000003 __302_html
0005fe64 g     O .rwdata	00000004 favicon_ico_head
000627f4 g       *ABS*	00000000 __alt_heap_start
00056484 g     F .text	00000070 .hidden __floatdidf
00056248 g     F .text	00000060 _kill_r
00043a94 g     F .text	00000038 printf
00055c50 g     F .text	0000006c _wcrtomb_r
00055db8 g     F .text	00000098 _signal_r
00044164 g     F .text	0000005c __sseek
00042114 g     F .text	00000010 __sinit
00055af0 g     F .text	00000148 __swbuf_r
000405dc g     F .text	00000120 esp8266_send_data
0004c808 g     F .text	00000074 _setlocale_r
00041f44 g     F .text	00000068 __sfmoreglue
00053500 g     F .text	00000018 ungetc
0005a21c g     F .text	00000024 __malloc_unlock
00050900 g     F .text	0000001c strtoull_l
0004fad8 g     F .text	0000000c _strtod_r
00051c3c g     F .text	00000148 _sfread_r
0005fe7c g     O .rwdata	00000004 http_resp
0004cb54 g     F .text	0000012c memmove
00042100 g     F .text	00000014 _cleanup
0005dcec g     O .rwdata	0000010b fire_html
0004cc80 g     F .text	000000a4 _Balloc
00041764 g     F .text	00000070 .hidden __fixsfsi
00040d34 g     F .text	000002e8 fire_react
0005842c g     F .text	000000e8 .hidden __gtdf2
0005ca30 g     F .text	00000024 altera_nios2_gen2_irq_init
00054b30 g     F .text	0000000c __errno
00040000 g     F .entry	0000001c __reset
0004c8fc g     F .text	00000008 __localeconv_l
00040020 g       *ABS*	00000000 __flash_exceptions_start
00042b58 g     F .text	00000060 _fstat_r
00062298 g     O .bss	00000004 errno
00043e04 g     F .text	0000007c __srget
000440dc g     F .text	00000008 __seofread
00050af8 g     F .text	00000fe4 ___svfiprintf_internal_r
000622b0 g     O .bss	00000004 alt_argv
00067e50 g       *ABS*	00000000 _gp
0005a6d0 g     F .text	00000030 usleep
00059d18 g     F .text	00000020 getpid
00041d40 g     F .text	0000001c fgets
0005ebac g     O .rwdata	00000180 alt_fd_list
0005c230 g     F .text	00000090 alt_find_dev
00043810 g     F .text	00000100 memcpy
00055784 g     F .text	00000290 __hexnan
00041dc8 g     F .text	0000000c _cleanup_r
00059650 g     F .text	000000b8 .hidden __floatsidf
0005c7e4 g     F .text	0000007c alt_io_redirect
00058514 g     F .text	000000e8 .hidden __ltdf2
00050328 g     F .text	0000001c strtoll_l
0005cd74 g       *ABS*	00000000 __DTOR_END__
00043b98 g     F .text	00000010 puts
0005cae4 g     F .text	00000098 alt_exception_cause_generated_bad_addr
0004c9fc g     F .text	00000090 mbrtowc
0004dbec g     F .text	000000a8 __ratio
00054874 g     F .text	0000001c __vfiprintf_internal
0005af54 g     F .text	00000220 altera_avalon_jtag_uart_read
00042f40 g     F .text	00000010 malloc
00043a64 g     F .text	00000030 _printf_r
000570ac g     F .text	00000064 .hidden __udivsi3
00059d74 g     F .text	000000a4 isatty
00055e50 g     F .text	000000c4 _raise_r
0004c7dc g     F .text	00000008 iswspace
0005498c g     F .text	00000064 __assert_func
0005d694 g     O .rodata	000000c8 __mprec_tens
00050344 g     F .text	0000001c strtoll
0005716c g     F .text	000000b4 .hidden __lesf2
0005630c g     F .text	00000074 .hidden __fixunsdfsi
0005ca54 g     F .text	00000090 alt_icache_flush
000622a4 g     O .bss	00000004 __malloc_top_pad
00051bcc g     F .text	00000070 __ssrefill_r
000562a8 g     F .text	00000004 _getpid_r
000505c8 g     F .text	0000001c strtoul
0004c904 g     F .text	0000000c _localeconv_r
000508fc g     F .text	00000004 _strtoull_r
0004d0cc g     F .text	000000b0 __i2b
0004c300 g     F .text	00000484 __sfvwrite_r
00055f14 g     F .text	000000bc __sigtramp_r
00043e80 g     F .text	00000058 _sbrk_r
0004dde0 g     F .text	00000064 _read_r
0005fea8 g     O .rwdata	00000004 alt_max_fd
0004c168 g     F .text	00000070 _fclose_r
00041a5c g     F .text	00000084 fflush
000622a0 g     O .bss	00000004 __malloc_max_sbrked_mem
00046b90 g     F .text	000018d0 __ssvfscanf_r
00041ae0 g     F .text	0000007c _fgetc_r
0005726c g     F .text	000008f0 .hidden __adddf3
0004d980 g     F .text	00000108 __b2d
00056a84 g     F .text	00000534 .hidden __umoddi3
0005a0a8 g     F .text	000000d4 lseek
0005fe84 g     O .rwdata	00000004 _global_impure_ptr
0004de44 g     F .text	0000053c _realloc_r
000627f4 g       *ABS*	00000000 __bss_end
0005c64c g     F .text	000000e8 alt_iic_isr_register
0004ffb8 g     F .text	00000050 strtol_l
0005fe50 g     O .rwdata	00000004 index_html_len
0005c904 g     F .text	0000012c alt_tick
0005fe5c g     O .rwdata	00000004 favicon_ico_len
0005d8a4 g     O .rodata	00000100 __hexdig
000564f4 g     F .text	00000590 .hidden __udivdi3
00054cf8 g     F .text	00000024 _fputwc_r
0005d66c g     O .rodata	00000028 __mprec_bigtens
0004ce80 g     F .text	00000138 __s2b
00055d44 g     F .text	00000018 abort
00059708 g     F .text	00000090 .hidden __floatunsidf
0004d6a0 g     F .text	00000058 __mcmp
0005b5ac g     F .text	000000ac altera_avalon_uart_init
00042134 g     F .text	00000014 __fp_lock_all
0005c600 g     F .text	0000004c alt_ic_irq_enabled
0005c860 g     F .text	000000a4 alt_alarm_stop
00050008 g     F .text	00000050 strtol
000622b8 g     O .bss	00000004 alt_irq_active
000426e8 g     F .text	00000454 _fseeko_r
0004e4c4 g     F .text	00000038 strnlen
000400fc g     F .exceptions	000000c8 alt_irq_handler
0005eb84 g     O .rwdata	00000028 alt_dev_null
0004e4fc g     F .text	000015dc _strtod_l
00055734 g     F .text	00000050 __match
0005fe6c g     O .rwdata	00000004 __302_head
0005c038 g     F .text	0000004c alt_dcache_flush_all
0004cfb8 g     F .text	00000064 __hi0bits
000595d0 g     F .text	00000080 .hidden __fixdfsi
0004fb00 g     F .text	00000020 strtod
000408f4 g     F .text	000001e0 http_response_send
0005fec0 g       *ABS*	00000000 __ram_rwdata_end
0005fea0 g     O .rwdata	00000008 alt_dev_list
0005a73c g     F .text	000000f8 write
0005daec g       *ABS*	00000000 __ram_rodata_end
00059c68 g     F .text	000000b0 fstat
0004228c g     F .text	00000024 fprintf
00059e54 g     F .text	0000012c kill
00058514 g     F .text	000000e8 .hidden __ledf2
000441c8 g     F .text	0000008c strcat
0004fb20 g     F .text	00000120 strtof_l
0004d3d0 g     F .text	00000148 __pow5mult
00053624 g     F .text	00001250 ___vfiprintf_internal_r
00057110 g     F .text	0000005c .hidden __umodsi3
000627f4 g       *ABS*	00000000 end
00042b3c g     F .text	0000001c fseeko
0005bbcc g     F .text	000001b4 altera_avalon_uart_write
000426cc g     F .text	0000001c fseek
0005aa8c g     F .text	000000c0 altera_avalon_jtag_uart_init
000401c4 g     F .exceptions	00000074 alt_instruction_exception_entry
0005cd74 g       *ABS*	00000000 __CTOR_LIST__
000649f0 g       *ABS*	00000000 __alt_stack_pointer
0005b418 g     F .text	00000084 alt_avalon_timer_sc_init
0005b4fc g     F .text	00000060 altera_avalon_uart_write_fd
00059908 g     F .text	00000054 .hidden __clzsi2
0005b55c g     F .text	00000050 altera_avalon_uart_close_fd
0005b174 g     F .text	00000228 altera_avalon_jtag_uart_write
00042124 g     F .text	00000004 __sfp_lock_acquire
00043740 g     F .text	000000d0 memchr
00048460 g     F .text	00002008 ___vfprintf_internal_r
00043ed8 g     F .text	00000054 _sprintf_r
000423cc g     F .text	000002fc _free_r
0005d40c g     O .rodata	00000180 _ctype_b
0004c87c g     F .text	0000000c __locale_mb_cur_max
0005cc54 g     F .text	00000120 __call_exitprocs
00043d90 g     F .text	00000074 __srget_r
00051adc g     F .text	000000f0 _sungetc_r
0005fe8c g     O .rwdata	00000004 __malloc_sbrk_base
00040238 g     F .text	0000004c _start
000622bc g     O .bss	00000004 _alt_tick_rate
00044984 g     F .text	0000027c strstr
00050324 g     F .text	00000004 _strtoll_r
0004d518 g     F .text	00000188 __lshift
000622c0 g     O .bss	00000008 _alt_nticks
0005608c g     F .text	000000a0 signal
0005a4c4 g     F .text	000000fc read
0005a8a4 g     F .text	00000084 alt_sys_init
00050938 g     F .text	000001c0 __ssprint_r
00043a00 g     F .text	00000064 _open_r
0005cbc4 g     F .text	00000090 __register_exitproc
000622cc g     O .bss	00000400 buffer
00055a1c g     F .text	000000d0 strncmp
00040284 g     F .text	000000a8 set_esp8266_file_blocking
0004d17c g     F .text	00000254 __multiply
0005adf8 g     F .text	00000068 altera_avalon_jtag_uart_close
0005daec g       *ABS*	00000000 __ram_rwdata_start
0005cd74 g       *ABS*	00000000 __ram_rodata_start
000626cc g     O .bss	00000028 __malloc_current_mallinfo
0004da88 g     F .text	00000164 __d2b
0005a928 g     F .text	00000060 altera_avalon_jtag_uart_read_fd
000505a8 g     F .text	00000004 _strtoul_r
0005c3c8 g     F .text	000000a0 alt_get_fd
00040764 g     F .text	00000190 http_request_parse
0005bee0 g     F .text	00000158 alt_busy_sleep
0004a70c g     F .text	00000058 _close_r
0005fe80 g     O .rwdata	00000004 http_resp_len
0004cadc g     F .text	00000078 memcmp
0005a9e8 g     F .text	00000050 altera_avalon_jtag_uart_close_fd
000627f4 g       *ABS*	00000000 __alt_stack_base
0005aa38 g     F .text	00000054 altera_avalon_jtag_uart_ioctl_fd
00043f90 g     F .text	00000078 sscanf
0004a5a8 g     F .text	00000164 __swsetup_r
00057b5c g     F .text	00000850 .hidden __divdf3
00041fac g     F .text	00000154 __sfp
0004dd04 g     F .text	0000007c __copybits
0005e610 g     O .rwdata	00000408 __malloc_av_
00042130 g     F .text	00000004 __sinit_lock_release
000585fc g     F .text	00000674 .hidden __muldf3
00044088 g     F .text	00000054 __sread
0005c2c0 g     F .text	00000108 alt_find_file
0005c0c0 g     F .text	000000a8 alt_dev_llist_insert
0005a1f8 g     F .text	00000024 __malloc_lock
00042264 g     F .text	00000028 _fprintf_r
0005a618 g     F .text	000000b8 sbrk
00044c00 g     F .text	00001f90 ___svfprintf_internal_r
0005fe68 g     O .rwdata	00000004 jpg_head
000419fc g     F .text	00000060 _fflush_r
00054a04 g     F .text	0000012c _calloc_r
0005091c g     F .text	0000001c strtoull
0005de88 g     O .rwdata	00000361 favicon_ico
0004224c g     F .text	00000018 fopen
00062294 g       *ABS*	00000000 __bss_start
00043910 g     F .text	000000f0 memset
00041724 g     F .text	00000040 main
000622b4 g     O .bss	00000004 alt_envp
0006229c g     O .bss	00000004 __malloc_max_total_mem
0005a988 g     F .text	00000060 altera_avalon_jtag_uart_write_fd
00055c38 g     F .text	00000018 __swbuf
0005716c g     F .text	000000b4 .hidden __ltsf2
000441c0 g     F .text	00000008 __sclose
000649f0 g       *ABS*	00000000 __alt_heap_limit
0004c1d8 g     F .text	00000070 fclose
0004ff80 g     F .text	00000038 _strtol_r
00059798 g     F .text	00000170 .hidden __truncdfsf2
0004a960 g     F .text	00001748 _dtoa_r
00042f60 g     F .text	000007e0 _malloc_r
0005495c g     F .text	00000030 __ascii_wctomb
0005feac g     O .rwdata	00000004 alt_errno
00054b3c g     F .text	00000020 _fiprintf_r
000532b4 g     F .text	000000c8 __submore
0005612c g     F .text	00000060 _init_signal
00042bb8 g     F .text	00000098 _fwalk
00041bec g     F .text	00000154 _fgets_r
0004ca8c g     F .text	0000000c _mbtowc_r
00056fb8 g     F .text	00000080 .hidden __divsi3
000422b0 g     F .text	0000011c _malloc_trim_r
0005cd74 g       *ABS*	00000000 __CTOR_END__
000443b0 g     F .text	000000b8 strcmp
0005cd74 g       *ABS*	00000000 __flash_rodata_start
000406fc g     F .text	00000068 esp8266_dump_rx
0005cd74 g       *ABS*	00000000 __DTOR_LIST__
000505ac g     F .text	0000001c strtoul_l
000563f4 g     F .text	00000090 .hidden __fixunsdfdi
000583ac g     F .text	00000080 .hidden __nedf2
0005a868 g     F .text	0000003c alt_irq_init
0005a5c0 g     F .text	00000058 alt_release_fd
00041b5c g     F .text	00000090 fgetc
00043f2c g     F .text	00000064 sprintf
0005d9b0 g     O .rodata	00000100 .hidden __clz_tab
000622a8 g     O .bss	00000004 _PathLocale
00056380 g     F .text	00000074 .hidden __fixdfdi
0004fc40 g     F .text	00000124 strtof
0004fae4 g     F .text	0000001c strtod_l
0005cb7c g     F .text	00000014 atexit
0004a544 g     F .text	00000064 _write_r
0004c7e4 g     F .text	00000024 iswspace_l
0004c888 g     F .text	00000074 setlocale
00040ad4 g     F .text	00000158 led_response
0005fe58 g     O .rwdata	00000004 __404_html_len
0005fe78 g     O .rwdata	00000004 __404_head
0005fe88 g     O .rwdata	00000004 _impure_ptr
000622ac g     O .bss	00000004 alt_argc
000417d4 g     F .text	00000228 __sflush_r
0004c980 g     F .text	0000007c _mbrtowc_r
0005c1cc g     F .text	00000064 _do_dtors
00062294 g     O .bss	00000004 esp8266_file
000426c8 g     F .text	00000004 _fseek_r
00043bc4 g     F .text	000001cc __srefill_r
00040020 g       .exceptions	00000000 alt_irq_entry
0004ca98 g     F .text	00000044 __ascii_mbtowc
0004d924 g     F .text	0000005c __ulp
00042148 g     F .text	00000014 __fp_unlock_all
0005d9a4 g     O .rodata	0000000c _C_numeric_locale
0005fe98 g     O .rwdata	00000008 alt_fs_list
0005daec g     O .rwdata	000001fe index_html
00051d84 g     F .text	00001530 __ssvfiscanf_r
00040020 g       *ABS*	00000000 __ram_exceptions_start
0004c910 g     F .text	0000000c localeconv
00040000 g       *ABS*	00000000 __alt_mem_onchip_memory2
00042ea8 g     F .text	00000098 __swhatbuf_r
0004048c g     F .text	00000150 esp8266_send_command
0005c49c g     F .text	00000050 alt_ic_isr_register
00044008 g     F .text	00000080 _sscanf_r
0005fec0 g       *ABS*	00000000 _edata
0005b49c g     F .text	00000060 altera_avalon_uart_read_fd
000627f4 g       *ABS*	00000000 _end
00057220 g     F .text	0000004c .hidden __unordsf2
00054b94 g     F .text	00000164 __fputwc
00040238 g       *ABS*	00000000 __ram_exceptions_end
0005ae60 g     F .text	000000f4 altera_avalon_jtag_uart_ioctl
0005c574 g     F .text	0000008c alt_ic_irq_disable
000440e4 g     F .text	00000080 __swrite
0005fe90 g     O .rwdata	00000004 __malloc_trim_threshold
0005cb90 g     F .text	00000034 exit
00054b5c g     F .text	00000038 fiprintf
00055aec g     F .text	00000004 _vfiprintf_r
0005fe54 g     O .rwdata	00000004 fire_html_len
000403f4 g     F .text	00000098 get_line_noblock
00042c50 g     F .text	000000a8 _fwalk_reent
0004d6f8 g     F .text	0000022c __mdiff
0004101c g     F .text	00000708 esp8266_listen
00057038 g     F .text	00000074 .hidden __modsi3
000649f0 g       *ABS*	00000000 __alt_data_end
00040020 g     F .exceptions	00000000 alt_exception
00042128 g     F .text	00000004 __sfp_lock_release
0004e380 g     F .text	00000144 __sccl
0005d308 g     O .rodata	00000101 _ctype_
0005957c g     F .text	00000054 .hidden __unorddf2
00041d5c g     F .text	00000064 fileno
0005b918 g     F .text	00000054 altera_avalon_uart_close
0005fe74 g     O .rwdata	00000004 __302_html_len
0004215c g     F .text	000000f0 _fopen_r
00059a94 g     F .text	00000038 _exit
0005bd80 g     F .text	00000160 alt_alarm_start
000562ac g     F .text	00000060 .hidden __muldi3
00042cf8 g     F .text	000001b0 __smakebuf_r
000444f4 g     F .text	00000098 strlen
00055d5c g     F .text	0000005c _init_signal_r
0005a334 g     F .text	00000154 open
0004032c g     F .text	000000c8 esp8266_init
0005842c g     F .text	000000e8 .hidden __gedf2
00054e70 g     F .text	000008c4 __gethex
000549f0 g     F .text	00000014 __assert
0005360c g     F .text	00000018 __sprint_r
0005c468 g     F .text	00000034 alt_icache_flush_all
00044254 g     F .text	0000015c strchr
00055a14 g     F .text	00000008 __numeric_load_locale
0005feb4 g     O .rwdata	00000004 alt_priority_mask
0005c4ec g     F .text	00000088 alt_ic_irq_enable
0005ddf8 g     O .rwdata	00000090 __404_html
0004a468 g     F .text	0000001c __vfprintf_internal
0005b9a8 g     F .text	000001e8 altera_avalon_uart_read
00054950 g     F .text	0000000c _wctomb_r
00058c70 g     F .text	0000090c .hidden __subdf3
00059b08 g     F .text	00000124 fcntl
0004d01c g     F .text	000000b0 __lo0bits
0005feb8 g     O .rwdata	00000008 alt_alarm_list
0005337c g     F .text	00000184 _ungetc_r
0005c168 g     F .text	00000064 _do_ctors
0005618c g     F .text	000000bc __sigtramp
0005fe60 g     O .rwdata	00000004 html_head
00055cbc g     F .text	00000088 wcrtomb
00059998 g     F .text	000000d0 close
00040c2c g     F .text	00000108 fire_response
0005ea18 g     O .rwdata	0000016c __global_locale
00059fe8 g     F .text	00000084 alt_load
00054d1c g     F .text	00000078 fputwc
00055fd0 g     F .text	000000bc raise
00042f50 g     F .text	00000010 free
0004212c g     F .text	00000004 __sinit_lock_acquire
0004cd48 g     F .text	00000138 __multadd
0004cd24 g     F .text	00000024 _Bfree



Disassembly of section .entry:

00040000 <__reset>:
   40000:	00840014 	movui	r2,4096
   40004:	1001483a 	initi	r2
   40008:	10bff804 	addi	r2,r2,-32
   4000c:	00bffd16 	blt	zero,r2,40004 <__reset+0x4>
   40010:	00400134 	movhi	at,4
   40014:	08408e14 	ori	at,at,568
   40018:	0800683a 	jmp	at
   4001c:	00000000 	call	0 <__reset-0x40000>

Disassembly of section .exceptions:

00040020 <alt_exception>:
   40020:	deffed04 	addi	sp,sp,-76
   40024:	dfc00015 	stw	ra,0(sp)
   40028:	d8400215 	stw	at,8(sp)
   4002c:	d8800315 	stw	r2,12(sp)
   40030:	d8c00415 	stw	r3,16(sp)
   40034:	d9000515 	stw	r4,20(sp)
   40038:	d9400615 	stw	r5,24(sp)
   4003c:	d9800715 	stw	r6,28(sp)
   40040:	d9c00815 	stw	r7,32(sp)
   40044:	000b307a 	rdctl	r5,estatus
   40048:	da000915 	stw	r8,36(sp)
   4004c:	da400a15 	stw	r9,40(sp)
   40050:	da800b15 	stw	r10,44(sp)
   40054:	dac00c15 	stw	r11,48(sp)
   40058:	db000d15 	stw	r12,52(sp)
   4005c:	db400e15 	stw	r13,56(sp)
   40060:	db800f15 	stw	r14,60(sp)
   40064:	dbc01015 	stw	r15,64(sp)
   40068:	d9401115 	stw	r5,68(sp)
   4006c:	ebffff04 	addi	r15,ea,-4
   40070:	dbc01215 	stw	r15,72(sp)
   40074:	0009313a 	rdctl	r4,ipending
   40078:	2880004c 	andi	r2,r5,1
   4007c:	10000326 	beq	r2,zero,4008c <alt_exception+0x6c>
   40080:	20000226 	beq	r4,zero,4008c <alt_exception+0x6c>
   40084:	00400fc0 	call	400fc <alt_irq_handler>
   40088:	00000706 	br	400a8 <alt_exception+0x88>
   4008c:	df401215 	stw	ea,72(sp)
   40090:	e8bfff17 	ldw	r2,-4(ea)
   40094:	e93fff04 	addi	r4,ea,-4
   40098:	00401c40 	call	401c4 <alt_instruction_exception_entry>
   4009c:	1000021e 	bne	r2,zero,400a8 <alt_exception+0x88>
   400a0:	ebffff04 	addi	r15,ea,-4
   400a4:	dbc01215 	stw	r15,72(sp)
   400a8:	d9401117 	ldw	r5,68(sp)
   400ac:	df401217 	ldw	ea,72(sp)
   400b0:	dfc00017 	ldw	ra,0(sp)
   400b4:	2801707a 	wrctl	estatus,r5
   400b8:	d8400217 	ldw	at,8(sp)
   400bc:	d8800317 	ldw	r2,12(sp)
   400c0:	d8c00417 	ldw	r3,16(sp)
   400c4:	d9000517 	ldw	r4,20(sp)
   400c8:	d9400617 	ldw	r5,24(sp)
   400cc:	d9800717 	ldw	r6,28(sp)
   400d0:	d9c00817 	ldw	r7,32(sp)
   400d4:	da000917 	ldw	r8,36(sp)
   400d8:	da400a17 	ldw	r9,40(sp)
   400dc:	da800b17 	ldw	r10,44(sp)
   400e0:	dac00c17 	ldw	r11,48(sp)
   400e4:	db000d17 	ldw	r12,52(sp)
   400e8:	db400e17 	ldw	r13,56(sp)
   400ec:	db800f17 	ldw	r14,60(sp)
   400f0:	dbc01017 	ldw	r15,64(sp)
   400f4:	dec01304 	addi	sp,sp,76
   400f8:	ef80083a 	eret

000400fc <alt_irq_handler>:
   400fc:	defff904 	addi	sp,sp,-28
   40100:	dfc00615 	stw	ra,24(sp)
   40104:	df000515 	stw	fp,20(sp)
   40108:	df000504 	addi	fp,sp,20
   4010c:	0001883a 	nop
   40110:	0005313a 	rdctl	r2,ipending
   40114:	e0bffc15 	stw	r2,-16(fp)
   40118:	e0bffc17 	ldw	r2,-16(fp)
   4011c:	e0bfff15 	stw	r2,-4(fp)
   40120:	e03ffd15 	stw	zero,-12(fp)
   40124:	00800044 	movi	r2,1
   40128:	e0bffe15 	stw	r2,-8(fp)
   4012c:	e0ffff17 	ldw	r3,-4(fp)
   40130:	e0bffe17 	ldw	r2,-8(fp)
   40134:	1884703a 	and	r2,r3,r2
   40138:	10001126 	beq	r2,zero,40180 <alt_irq_handler+0x84>
   4013c:	e0bffd17 	ldw	r2,-12(fp)
   40140:	100690fa 	slli	r3,r2,3
   40144:	008001b4 	movhi	r2,6
   40148:	1885883a 	add	r2,r3,r2
   4014c:	10c9bd17 	ldw	r3,9972(r2)
   40150:	e0bffd17 	ldw	r2,-12(fp)
   40154:	100890fa 	slli	r4,r2,3
   40158:	008001b4 	movhi	r2,6
   4015c:	2085883a 	add	r2,r4,r2
   40160:	1089be17 	ldw	r2,9976(r2)
   40164:	1009883a 	mov	r4,r2
   40168:	183ee83a 	callr	r3
   4016c:	0001883a 	nop
   40170:	0005313a 	rdctl	r2,ipending
   40174:	e0bffb15 	stw	r2,-20(fp)
   40178:	e0bffb17 	ldw	r2,-20(fp)
   4017c:	00000706 	br	4019c <alt_irq_handler+0xa0>
   40180:	e0bffe17 	ldw	r2,-8(fp)
   40184:	1085883a 	add	r2,r2,r2
   40188:	e0bffe15 	stw	r2,-8(fp)
   4018c:	e0bffd17 	ldw	r2,-12(fp)
   40190:	10800044 	addi	r2,r2,1
   40194:	e0bffd15 	stw	r2,-12(fp)
   40198:	003fe406 	br	4012c <alt_irq_handler+0x30>
   4019c:	e0bfff15 	stw	r2,-4(fp)
   401a0:	e0bfff17 	ldw	r2,-4(fp)
   401a4:	103fde1e 	bne	r2,zero,40120 <alt_irq_handler+0x24>
   401a8:	0001883a 	nop
   401ac:	0001883a 	nop
   401b0:	e037883a 	mov	sp,fp
   401b4:	dfc00117 	ldw	ra,4(sp)
   401b8:	df000017 	ldw	fp,0(sp)
   401bc:	dec00204 	addi	sp,sp,8
   401c0:	f800283a 	ret

000401c4 <alt_instruction_exception_entry>:
   401c4:	defffb04 	addi	sp,sp,-20
   401c8:	dfc00415 	stw	ra,16(sp)
   401cc:	df000315 	stw	fp,12(sp)
   401d0:	df000304 	addi	fp,sp,12
   401d4:	e13ffd15 	stw	r4,-12(fp)
   401d8:	000531fa 	rdctl	r2,exception
   401dc:	e0bfff15 	stw	r2,-4(fp)
   401e0:	e0bfff17 	ldw	r2,-4(fp)
   401e4:	1004d0ba 	srli	r2,r2,2
   401e8:	108007cc 	andi	r2,r2,31
   401ec:	e0bfff15 	stw	r2,-4(fp)
   401f0:	0005333a 	rdctl	r2,badaddr
   401f4:	e0bffe15 	stw	r2,-8(fp)
   401f8:	d0a91e17 	ldw	r2,-23432(gp)
   401fc:	10000726 	beq	r2,zero,4021c <alt_instruction_exception_entry+0x58>
   40200:	d0a91e17 	ldw	r2,-23432(gp)
   40204:	e0ffff17 	ldw	r3,-4(fp)
   40208:	e1bffe17 	ldw	r6,-8(fp)
   4020c:	e17ffd17 	ldw	r5,-12(fp)
   40210:	1809883a 	mov	r4,r3
   40214:	103ee83a 	callr	r2
   40218:	00000206 	br	40224 <alt_instruction_exception_entry+0x60>
   4021c:	003da03a 	break	0
   40220:	0005883a 	mov	r2,zero
   40224:	e037883a 	mov	sp,fp
   40228:	dfc00117 	ldw	ra,4(sp)
   4022c:	df000017 	ldw	fp,0(sp)
   40230:	dec00204 	addi	sp,sp,8
   40234:	f800283a 	ret

Disassembly of section .text:

00040238 <_start>:
   40238:	00820014 	movui	r2,2048
   4023c:	10000033 	initd	0(r2)
   40240:	10bff804 	addi	r2,r2,-32
   40244:	00bffd16 	blt	zero,r2,4023c <_start+0x4>
   40248:	06c001b4 	movhi	sp,6
   4024c:	ded27c14 	ori	sp,sp,18928
   40250:	068001b4 	movhi	gp,6
   40254:	d69f9414 	ori	gp,gp,32336
   40258:	008001b4 	movhi	r2,6
   4025c:	1088a514 	ori	r2,r2,8852
   40260:	00c001b4 	movhi	r3,6
   40264:	18c9fd14 	ori	r3,r3,10228
   40268:	10c00326 	beq	r2,r3,40278 <_start+0x40>
   4026c:	10000015 	stw	zero,0(r2)
   40270:	10800104 	addi	r2,r2,4
   40274:	10fffd36 	bltu	r2,r3,4026c <_start+0x34>
   40278:	0059fe80 	call	59fe8 <alt_load>
   4027c:	005a17c0 	call	5a17c <alt_main>

00040280 <alt_after_alt_main>:
   40280:	003fff06 	br	40280 <alt_after_alt_main>

00040284 <set_esp8266_file_blocking>:
   40284:	defffc04 	addi	sp,sp,-16
   40288:	dfc00315 	stw	ra,12(sp)
   4028c:	df000215 	stw	fp,8(sp)
   40290:	df000204 	addi	fp,sp,8
   40294:	2005883a 	mov	r2,r4
   40298:	e0bffe05 	stb	r2,-8(fp)
   4029c:	e0bffe03 	ldbu	r2,-8(fp)
   402a0:	1080005c 	xori	r2,r2,1
   402a4:	10803fcc 	andi	r2,r2,255
   402a8:	10000826 	beq	r2,zero,402cc <set_esp8266_file_blocking+0x48>
   402ac:	d0a91117 	ldw	r2,-23484(gp)
   402b0:	1009883a 	mov	r4,r2
   402b4:	0041d5c0 	call	41d5c <fileno>
   402b8:	01900004 	movi	r6,16384
   402bc:	01400104 	movi	r5,4
   402c0:	1009883a 	mov	r4,r2
   402c4:	0059b080 	call	59b08 <fcntl>
   402c8:	00001206 	br	40314 <set_esp8266_file_blocking+0x90>
   402cc:	d0a91117 	ldw	r2,-23484(gp)
   402d0:	1009883a 	mov	r4,r2
   402d4:	0041d5c0 	call	41d5c <fileno>
   402d8:	014000c4 	movi	r5,3
   402dc:	1009883a 	mov	r4,r2
   402e0:	0059b080 	call	59b08 <fcntl>
   402e4:	e0bfff15 	stw	r2,-4(fp)
   402e8:	e0ffff17 	ldw	r3,-4(fp)
   402ec:	00afffc4 	movi	r2,-16385
   402f0:	1884703a 	and	r2,r3,r2
   402f4:	e0bfff15 	stw	r2,-4(fp)
   402f8:	d0a91117 	ldw	r2,-23484(gp)
   402fc:	1009883a 	mov	r4,r2
   40300:	0041d5c0 	call	41d5c <fileno>
   40304:	e1bfff17 	ldw	r6,-4(fp)
   40308:	01400104 	movi	r5,4
   4030c:	1009883a 	mov	r4,r2
   40310:	0059b080 	call	59b08 <fcntl>
   40314:	0001883a 	nop
   40318:	e037883a 	mov	sp,fp
   4031c:	dfc00117 	ldw	ra,4(sp)
   40320:	df000017 	ldw	fp,0(sp)
   40324:	dec00204 	addi	sp,sp,8
   40328:	f800283a 	ret

0004032c <esp8266_init>:
   4032c:	defffc04 	addi	sp,sp,-16
   40330:	dfc00315 	stw	ra,12(sp)
   40334:	df000215 	stw	fp,8(sp)
   40338:	df000204 	addi	fp,sp,8
   4033c:	2005883a 	mov	r2,r4
   40340:	e0bffe05 	stb	r2,-8(fp)
   40344:	00800044 	movi	r2,1
   40348:	e0bfffc5 	stb	r2,-1(fp)
   4034c:	014001b4 	movhi	r5,6
   40350:	2973e104 	addi	r5,r5,-12412
   40354:	010001b4 	movhi	r4,6
   40358:	2133e204 	addi	r4,r4,-12408
   4035c:	004224c0 	call	4224c <fopen>
   40360:	d0a91115 	stw	r2,-23484(gp)
   40364:	d0a91117 	ldw	r2,-23484(gp)
   40368:	1000051e 	bne	r2,zero,40380 <esp8266_init+0x54>
   4036c:	010001b4 	movhi	r4,6
   40370:	2133e604 	addi	r4,r4,-12392
   40374:	0043b980 	call	43b98 <puts>
   40378:	0005883a 	mov	r2,zero
   4037c:	00001806 	br	403e0 <esp8266_init+0xb4>
   40380:	e0bffe03 	ldbu	r2,-8(fp)
   40384:	10000c26 	beq	r2,zero,403b8 <esp8266_init+0x8c>
   40388:	0007883a 	mov	r3,zero
   4038c:	00800234 	movhi	r2,8
   40390:	10c42435 	stwio	r3,4240(r2)
   40394:	01000c84 	movi	r4,50
   40398:	005a6d00 	call	5a6d0 <usleep>
   4039c:	00c00044 	movi	r3,1
   403a0:	00800234 	movhi	r2,8
   403a4:	10c42435 	stwio	r3,4240(r2)
   403a8:	01000bb4 	movhi	r4,46
   403ac:	2131b004 	addi	r4,r4,-14656
   403b0:	005a6d00 	call	5a6d0 <usleep>
   403b4:	00406fc0 	call	406fc <esp8266_dump_rx>
   403b8:	010001b4 	movhi	r4,6
   403bc:	2133eb04 	addi	r4,r4,-12372
   403c0:	004048c0 	call	4048c <esp8266_send_command>
   403c4:	010001b4 	movhi	r4,6
   403c8:	2133f604 	addi	r4,r4,-12328
   403cc:	004048c0 	call	4048c <esp8266_send_command>
   403d0:	010001b4 	movhi	r4,6
   403d4:	2133fa04 	addi	r4,r4,-12312
   403d8:	004048c0 	call	4048c <esp8266_send_command>
   403dc:	e0bfffc3 	ldbu	r2,-1(fp)
   403e0:	e037883a 	mov	sp,fp
   403e4:	dfc00117 	ldw	ra,4(sp)
   403e8:	df000017 	ldw	fp,0(sp)
   403ec:	dec00204 	addi	sp,sp,8
   403f0:	f800283a 	ret

000403f4 <get_line_noblock>:
   403f4:	defffe04 	addi	sp,sp,-8
   403f8:	dfc00115 	stw	ra,4(sp)
   403fc:	df000015 	stw	fp,0(sp)
   40400:	d839883a 	mov	fp,sp
   40404:	0009883a 	mov	r4,zero
   40408:	00402840 	call	40284 <set_esp8266_file_blocking>
   4040c:	d0a91117 	ldw	r2,-23484(gp)
   40410:	1009883a 	mov	r4,r2
   40414:	0041b5c0 	call	41b5c <fgetc>
   40418:	1007883a 	mov	r3,r2
   4041c:	008001b4 	movhi	r2,6
   40420:	10c8b305 	stb	r3,8908(r2)
   40424:	01000044 	movi	r4,1
   40428:	00402840 	call	40284 <set_esp8266_file_blocking>
   4042c:	008001b4 	movhi	r2,6
   40430:	1088b303 	ldbu	r2,8908(r2)
   40434:	10803fcc 	andi	r2,r2,255
   40438:	1080201c 	xori	r2,r2,128
   4043c:	10bfe004 	addi	r2,r2,-128
   40440:	10bfffe0 	cmpeqi	r2,r2,-1
   40444:	10000b1e 	bne	r2,zero,40474 <get_line_noblock+0x80>
   40448:	008001b4 	movhi	r2,6
   4044c:	1088b344 	addi	r2,r2,8909
   40450:	d0e91117 	ldw	r3,-23484(gp)
   40454:	180d883a 	mov	r6,r3
   40458:	0140ffc4 	movi	r5,1023
   4045c:	1009883a 	mov	r4,r2
   40460:	0041d400 	call	41d40 <fgets>
   40464:	10000326 	beq	r2,zero,40474 <get_line_noblock+0x80>
   40468:	008001b4 	movhi	r2,6
   4046c:	1088b304 	addi	r2,r2,8908
   40470:	00000106 	br	40478 <get_line_noblock+0x84>
   40474:	0005883a 	mov	r2,zero
   40478:	e037883a 	mov	sp,fp
   4047c:	dfc00117 	ldw	ra,4(sp)
   40480:	df000017 	ldw	fp,0(sp)
   40484:	dec00204 	addi	sp,sp,8
   40488:	f800283a 	ret

0004048c <esp8266_send_command>:
   4048c:	defffc04 	addi	sp,sp,-16
   40490:	dfc00315 	stw	ra,12(sp)
   40494:	df000215 	stw	fp,8(sp)
   40498:	df000204 	addi	fp,sp,8
   4049c:	e13ffe15 	stw	r4,-8(fp)
   404a0:	d0a91117 	ldw	r2,-23484(gp)
   404a4:	e1bffe17 	ldw	r6,-8(fp)
   404a8:	014001b4 	movhi	r5,6
   404ac:	2973fd04 	addi	r5,r5,-12300
   404b0:	1009883a 	mov	r4,r2
   404b4:	004228c0 	call	4228c <fprintf>
   404b8:	e03fff15 	stw	zero,-4(fp)
   404bc:	e0ffff17 	ldw	r3,-4(fp)
   404c0:	008001b4 	movhi	r2,6
   404c4:	1088b304 	addi	r2,r2,8908
   404c8:	1889883a 	add	r4,r3,r2
   404cc:	e0bfff17 	ldw	r2,-4(fp)
   404d0:	00c10004 	movi	r3,1024
   404d4:	1885c83a 	sub	r2,r3,r2
   404d8:	1007883a 	mov	r3,r2
   404dc:	d0a91117 	ldw	r2,-23484(gp)
   404e0:	100d883a 	mov	r6,r2
   404e4:	180b883a 	mov	r5,r3
   404e8:	0041d400 	call	41d40 <fgets>
   404ec:	103ff326 	beq	r2,zero,404bc <esp8266_send_command+0x30>
   404f0:	e0ffff17 	ldw	r3,-4(fp)
   404f4:	008001b4 	movhi	r2,6
   404f8:	1088b304 	addi	r2,r2,8908
   404fc:	1885883a 	add	r2,r3,r2
   40500:	014001b4 	movhi	r5,6
   40504:	2973ff04 	addi	r5,r5,-12292
   40508:	1009883a 	mov	r4,r2
   4050c:	00449840 	call	44984 <strstr>
   40510:	10000c26 	beq	r2,zero,40544 <esp8266_send_command+0xb8>
   40514:	e17ffe17 	ldw	r5,-8(fp)
   40518:	010001b4 	movhi	r4,6
   4051c:	21340004 	addi	r4,r4,-12288
   40520:	00443b00 	call	443b0 <strcmp>
   40524:	1000051e 	bne	r2,zero,4053c <esp8266_send_command+0xb0>
   40528:	014001b4 	movhi	r5,6
   4052c:	2948b304 	addi	r5,r5,8908
   40530:	010001b4 	movhi	r4,6
   40534:	21340304 	addi	r4,r4,-12276
   40538:	0043a940 	call	43a94 <printf>
   4053c:	00800044 	movi	r2,1
   40540:	00002106 	br	405c8 <esp8266_send_command+0x13c>
   40544:	e0ffff17 	ldw	r3,-4(fp)
   40548:	008001b4 	movhi	r2,6
   4054c:	1088b304 	addi	r2,r2,8908
   40550:	1885883a 	add	r2,r3,r2
   40554:	014001b4 	movhi	r5,6
   40558:	29740404 	addi	r5,r5,-12272
   4055c:	1009883a 	mov	r4,r2
   40560:	00449840 	call	44984 <strstr>
   40564:	10000226 	beq	r2,zero,40570 <esp8266_send_command+0xe4>
   40568:	0005883a 	mov	r2,zero
   4056c:	00001606 	br	405c8 <esp8266_send_command+0x13c>
   40570:	e0ffff17 	ldw	r3,-4(fp)
   40574:	008001b4 	movhi	r2,6
   40578:	1088b304 	addi	r2,r2,8908
   4057c:	1885883a 	add	r2,r3,r2
   40580:	014001b4 	movhi	r5,6
   40584:	29740604 	addi	r5,r5,-12264
   40588:	1009883a 	mov	r4,r2
   4058c:	00449840 	call	44984 <strstr>
   40590:	10000226 	beq	r2,zero,4059c <esp8266_send_command+0x110>
   40594:	0005883a 	mov	r2,zero
   40598:	00000b06 	br	405c8 <esp8266_send_command+0x13c>
   4059c:	e0ffff17 	ldw	r3,-4(fp)
   405a0:	008001b4 	movhi	r2,6
   405a4:	1088b304 	addi	r2,r2,8908
   405a8:	1885883a 	add	r2,r3,r2
   405ac:	1009883a 	mov	r4,r2
   405b0:	00444f40 	call	444f4 <strlen>
   405b4:	1007883a 	mov	r3,r2
   405b8:	e0bfff17 	ldw	r2,-4(fp)
   405bc:	1885883a 	add	r2,r3,r2
   405c0:	e0bfff15 	stw	r2,-4(fp)
   405c4:	003fbd06 	br	404bc <esp8266_send_command+0x30>
   405c8:	e037883a 	mov	sp,fp
   405cc:	dfc00117 	ldw	ra,4(sp)
   405d0:	df000017 	ldw	fp,0(sp)
   405d4:	dec00204 	addi	sp,sp,8
   405d8:	f800283a 	ret

000405dc <esp8266_send_data>:
   405dc:	defffc04 	addi	sp,sp,-16
   405e0:	dfc00315 	stw	ra,12(sp)
   405e4:	df000215 	stw	fp,8(sp)
   405e8:	df000204 	addi	fp,sp,8
   405ec:	e13fff15 	stw	r4,-4(fp)
   405f0:	e17ffe15 	stw	r5,-8(fp)
   405f4:	d0a91117 	ldw	r2,-23484(gp)
   405f8:	1009883a 	mov	r4,r2
   405fc:	0041d5c0 	call	41d5c <fileno>
   40600:	1007883a 	mov	r3,r2
   40604:	e0bffe17 	ldw	r2,-8(fp)
   40608:	100d883a 	mov	r6,r2
   4060c:	e17fff17 	ldw	r5,-4(fp)
   40610:	1809883a 	mov	r4,r3
   40614:	005a73c0 	call	5a73c <write>
   40618:	e03ffe15 	stw	zero,-8(fp)
   4061c:	e0fffe17 	ldw	r3,-8(fp)
   40620:	008001b4 	movhi	r2,6
   40624:	1088b304 	addi	r2,r2,8908
   40628:	1889883a 	add	r4,r3,r2
   4062c:	e0bffe17 	ldw	r2,-8(fp)
   40630:	00c10004 	movi	r3,1024
   40634:	1885c83a 	sub	r2,r3,r2
   40638:	1007883a 	mov	r3,r2
   4063c:	d0a91117 	ldw	r2,-23484(gp)
   40640:	100d883a 	mov	r6,r2
   40644:	180b883a 	mov	r5,r3
   40648:	0041d400 	call	41d40 <fgets>
   4064c:	103ff326 	beq	r2,zero,4061c <esp8266_send_data+0x40>
   40650:	e0fffe17 	ldw	r3,-8(fp)
   40654:	008001b4 	movhi	r2,6
   40658:	1088b304 	addi	r2,r2,8908
   4065c:	1885883a 	add	r2,r3,r2
   40660:	014001b4 	movhi	r5,6
   40664:	29740804 	addi	r5,r5,-12256
   40668:	1009883a 	mov	r4,r2
   4066c:	00449840 	call	44984 <strstr>
   40670:	10000226 	beq	r2,zero,4067c <esp8266_send_data+0xa0>
   40674:	00800044 	movi	r2,1
   40678:	00001b06 	br	406e8 <esp8266_send_data+0x10c>
   4067c:	e0fffe17 	ldw	r3,-8(fp)
   40680:	008001b4 	movhi	r2,6
   40684:	1088b304 	addi	r2,r2,8908
   40688:	1885883a 	add	r2,r3,r2
   4068c:	014001b4 	movhi	r5,6
   40690:	29740a04 	addi	r5,r5,-12248
   40694:	1009883a 	mov	r4,r2
   40698:	00449840 	call	44984 <strstr>
   4069c:	10000726 	beq	r2,zero,406bc <esp8266_send_data+0xe0>
   406a0:	014001b4 	movhi	r5,6
   406a4:	2948b304 	addi	r5,r5,8908
   406a8:	010001b4 	movhi	r4,6
   406ac:	21340304 	addi	r4,r4,-12276
   406b0:	0043a940 	call	43a94 <printf>
   406b4:	0005883a 	mov	r2,zero
   406b8:	00000b06 	br	406e8 <esp8266_send_data+0x10c>
   406bc:	e0fffe17 	ldw	r3,-8(fp)
   406c0:	008001b4 	movhi	r2,6
   406c4:	1088b304 	addi	r2,r2,8908
   406c8:	1885883a 	add	r2,r3,r2
   406cc:	1009883a 	mov	r4,r2
   406d0:	00444f40 	call	444f4 <strlen>
   406d4:	1007883a 	mov	r3,r2
   406d8:	e0bffe17 	ldw	r2,-8(fp)
   406dc:	1885883a 	add	r2,r3,r2
   406e0:	e0bffe15 	stw	r2,-8(fp)
   406e4:	003fcd06 	br	4061c <esp8266_send_data+0x40>
   406e8:	e037883a 	mov	sp,fp
   406ec:	dfc00117 	ldw	ra,4(sp)
   406f0:	df000017 	ldw	fp,0(sp)
   406f4:	dec00204 	addi	sp,sp,8
   406f8:	f800283a 	ret

000406fc <esp8266_dump_rx>:
   406fc:	defffe04 	addi	sp,sp,-8
   40700:	dfc00115 	stw	ra,4(sp)
   40704:	df000015 	stw	fp,0(sp)
   40708:	d839883a 	mov	fp,sp
   4070c:	0009883a 	mov	r4,zero
   40710:	00402840 	call	40284 <set_esp8266_file_blocking>
   40714:	0001883a 	nop
   40718:	d0a91117 	ldw	r2,-23484(gp)
   4071c:	100d883a 	mov	r6,r2
   40720:	01410004 	movi	r5,1024
   40724:	010001b4 	movhi	r4,6
   40728:	2108b304 	addi	r4,r4,8908
   4072c:	0041d400 	call	41d40 <fgets>
   40730:	103ff91e 	bne	r2,zero,40718 <esp8266_dump_rx+0x1c>
   40734:	01000044 	movi	r4,1
   40738:	00402840 	call	40284 <set_esp8266_file_blocking>
   4073c:	d0a00e17 	ldw	r2,-32712(gp)
   40740:	10800217 	ldw	r2,8(r2)
   40744:	1009883a 	mov	r4,r2
   40748:	0041a5c0 	call	41a5c <fflush>
   4074c:	0001883a 	nop
   40750:	e037883a 	mov	sp,fp
   40754:	dfc00117 	ldw	ra,4(sp)
   40758:	df000017 	ldw	fp,0(sp)
   4075c:	dec00204 	addi	sp,sp,8
   40760:	f800283a 	ret

00040764 <http_request_parse>:
   40764:	deffec04 	addi	sp,sp,-80
   40768:	dfc01315 	stw	ra,76(sp)
   4076c:	df001215 	stw	fp,72(sp)
   40770:	df001204 	addi	fp,sp,72
   40774:	e13ff215 	stw	r4,-56(fp)
   40778:	e17ff115 	stw	r5,-60(fp)
   4077c:	e1bff015 	stw	r6,-64(fp)
   40780:	00800044 	movi	r2,1
   40784:	e0bfffc5 	stb	r2,-1(fp)
   40788:	01400804 	movi	r5,32
   4078c:	e13ff217 	ldw	r4,-56(fp)
   40790:	00442540 	call	44254 <strchr>
   40794:	e0bffd15 	stw	r2,-12(fp)
   40798:	e0bffd17 	ldw	r2,-12(fp)
   4079c:	10800044 	addi	r2,r2,1
   407a0:	01400804 	movi	r5,32
   407a4:	1009883a 	mov	r4,r2
   407a8:	00442540 	call	44254 <strchr>
   407ac:	1007883a 	mov	r3,r2
   407b0:	e0bffd17 	ldw	r2,-12(fp)
   407b4:	1885c83a 	sub	r2,r3,r2
   407b8:	e0bffc15 	stw	r2,-16(fp)
   407bc:	e0bffc17 	ldw	r2,-16(fp)
   407c0:	00800116 	blt	zero,r2,407c8 <http_request_parse+0x64>
   407c4:	e03fffc5 	stb	zero,-1(fp)
   407c8:	e0bfffc3 	ldbu	r2,-1(fp)
   407cc:	10001326 	beq	r2,zero,4081c <http_request_parse+0xb8>
   407d0:	e0bffc17 	ldw	r2,-16(fp)
   407d4:	1009883a 	mov	r4,r2
   407d8:	0042f400 	call	42f40 <malloc>
   407dc:	e0bffe15 	stw	r2,-8(fp)
   407e0:	e13ff604 	addi	r4,fp,-40
   407e4:	e0fff704 	addi	r3,fp,-36
   407e8:	e0bffe17 	ldw	r2,-8(fp)
   407ec:	d8800115 	stw	r2,4(sp)
   407f0:	e0bff384 	addi	r2,fp,-50
   407f4:	d8800015 	stw	r2,0(sp)
   407f8:	200f883a 	mov	r7,r4
   407fc:	180d883a 	mov	r6,r3
   40800:	014001b4 	movhi	r5,6
   40804:	29740d04 	addi	r5,r5,-12236
   40808:	e13ff217 	ldw	r4,-56(fp)
   4080c:	0043f900 	call	43f90 <sscanf>
   40810:	10800120 	cmpeqi	r2,r2,4
   40814:	1000011e 	bne	r2,zero,4081c <http_request_parse+0xb8>
   40818:	e03fffc5 	stb	zero,-1(fp)
   4081c:	e0bfffc3 	ldbu	r2,-1(fp)
   40820:	10001326 	beq	r2,zero,40870 <http_request_parse+0x10c>
   40824:	e0bff384 	addi	r2,fp,-50
   40828:	014001b4 	movhi	r5,6
   4082c:	29741204 	addi	r5,r5,-12216
   40830:	1009883a 	mov	r4,r2
   40834:	00443b00 	call	443b0 <strcmp>
   40838:	1000021e 	bne	r2,zero,40844 <http_request_parse+0xe0>
   4083c:	e03ff815 	stw	zero,-32(fp)
   40840:	00000b06 	br	40870 <http_request_parse+0x10c>
   40844:	e0bff384 	addi	r2,fp,-50
   40848:	014001b4 	movhi	r5,6
   4084c:	29741304 	addi	r5,r5,-12212
   40850:	1009883a 	mov	r4,r2
   40854:	00443b00 	call	443b0 <strcmp>
   40858:	1000031e 	bne	r2,zero,40868 <http_request_parse+0x104>
   4085c:	00800044 	movi	r2,1
   40860:	e0bff815 	stw	r2,-32(fp)
   40864:	00000206 	br	40870 <http_request_parse+0x10c>
   40868:	00800044 	movi	r2,1
   4086c:	e0bff815 	stw	r2,-32(fp)
   40870:	e0bfffc3 	ldbu	r2,-1(fp)
   40874:	10001726 	beq	r2,zero,408d4 <http_request_parse+0x170>
   40878:	e0bff717 	ldw	r2,-36(fp)
   4087c:	1004913a 	slli	r2,r2,4
   40880:	e0fff117 	ldw	r3,-60(fp)
   40884:	1885883a 	add	r2,r3,r2
   40888:	10800117 	ldw	r2,4(r2)
   4088c:	1009883a 	mov	r4,r2
   40890:	0042f500 	call	42f50 <free>
   40894:	e0bff717 	ldw	r2,-36(fp)
   40898:	1004913a 	slli	r2,r2,4
   4089c:	e0fff117 	ldw	r3,-60(fp)
   408a0:	1885883a 	add	r2,r3,r2
   408a4:	e0fffe17 	ldw	r3,-8(fp)
   408a8:	10c00115 	stw	r3,4(r2)
   408ac:	e0bff717 	ldw	r2,-36(fp)
   408b0:	1004913a 	slli	r2,r2,4
   408b4:	e0fff117 	ldw	r3,-60(fp)
   408b8:	1885883a 	add	r2,r3,r2
   408bc:	e0fff817 	ldw	r3,-32(fp)
   408c0:	10c00015 	stw	r3,0(r2)
   408c4:	e0fff717 	ldw	r3,-36(fp)
   408c8:	e0bff017 	ldw	r2,-64(fp)
   408cc:	10c00015 	stw	r3,0(r2)
   408d0:	00000206 	br	408dc <http_request_parse+0x178>
   408d4:	e13ffe17 	ldw	r4,-8(fp)
   408d8:	0042f500 	call	42f50 <free>
   408dc:	e0bfffc3 	ldbu	r2,-1(fp)
   408e0:	e037883a 	mov	sp,fp
   408e4:	dfc00117 	ldw	ra,4(sp)
   408e8:	df000017 	ldw	fp,0(sp)
   408ec:	dec00204 	addi	sp,sp,8
   408f0:	f800283a 	ret

000408f4 <http_response_send>:
   408f4:	defedc04 	addi	sp,sp,-1168
   408f8:	dfc12315 	stw	ra,1164(sp)
   408fc:	df012215 	stw	fp,1160(sp)
   40900:	dc012115 	stw	r16,1156(sp)
   40904:	df012204 	addi	fp,sp,1160
   40908:	e13ee115 	stw	r4,-1148(fp)
   4090c:	e17ee015 	stw	r5,-1152(fp)
   40910:	e1bedf15 	stw	r6,-1156(fp)
   40914:	e1fede15 	stw	r7,-1160(fp)
   40918:	00800044 	movi	r2,1
   4091c:	e0bffec5 	stb	r2,-5(fp)
   40920:	e0bede17 	ldw	r2,-1160(fp)
   40924:	1000031e 	bne	r2,zero,40934 <http_response_send+0x40>
   40928:	e13edf17 	ldw	r4,-1156(fp)
   4092c:	00444f40 	call	444f4 <strlen>
   40930:	e0bede15 	stw	r2,-1160(fp)
   40934:	e0bede17 	ldw	r2,-1160(fp)
   40938:	e0bffd15 	stw	r2,-12(fp)
   4093c:	e0bedf17 	ldw	r2,-1156(fp)
   40940:	e0bffb15 	stw	r2,-20(fp)
   40944:	e0bee204 	addi	r2,fp,-1144
   40948:	e1bede17 	ldw	r6,-1160(fp)
   4094c:	e17ee017 	ldw	r5,-1152(fp)
   40950:	1009883a 	mov	r4,r2
   40954:	0043f2c0 	call	43f2c <sprintf>
   40958:	e0bee117 	ldw	r2,-1148(fp)
   4095c:	14000317 	ldw	r16,12(r2)
   40960:	e0bee204 	addi	r2,fp,-1144
   40964:	1009883a 	mov	r4,r2
   40968:	00444f40 	call	444f4 <strlen>
   4096c:	1007883a 	mov	r3,r2
   40970:	e0bfe204 	addi	r2,fp,-120
   40974:	180f883a 	mov	r7,r3
   40978:	800d883a 	mov	r6,r16
   4097c:	014001b4 	movhi	r5,6
   40980:	29741504 	addi	r5,r5,-12204
   40984:	1009883a 	mov	r4,r2
   40988:	0043f2c0 	call	43f2c <sprintf>
   4098c:	e0bffec3 	ldbu	r2,-5(fp)
   40990:	10000426 	beq	r2,zero,409a4 <http_response_send+0xb0>
   40994:	e0bfe204 	addi	r2,fp,-120
   40998:	1009883a 	mov	r4,r2
   4099c:	004048c0 	call	4048c <esp8266_send_command>
   409a0:	e0bffec5 	stb	r2,-5(fp)
   409a4:	e0bffec3 	ldbu	r2,-5(fp)
   409a8:	10002f26 	beq	r2,zero,40a68 <http_response_send+0x174>
   409ac:	e0bee204 	addi	r2,fp,-1144
   409b0:	1009883a 	mov	r4,r2
   409b4:	00444f40 	call	444f4 <strlen>
   409b8:	1007883a 	mov	r3,r2
   409bc:	e0bee204 	addi	r2,fp,-1144
   409c0:	180b883a 	mov	r5,r3
   409c4:	1009883a 	mov	r4,r2
   409c8:	00405dc0 	call	405dc <esp8266_send_data>
   409cc:	e0bffec5 	stb	r2,-5(fp)
   409d0:	00002506 	br	40a68 <http_response_send+0x174>
   409d4:	e0bffd17 	ldw	r2,-12(fp)
   409d8:	1080fa10 	cmplti	r2,r2,1000
   409dc:	1000031e 	bne	r2,zero,409ec <http_response_send+0xf8>
   409e0:	0080fa04 	movi	r2,1000
   409e4:	e0bffc15 	stw	r2,-16(fp)
   409e8:	00000206 	br	409f4 <http_response_send+0x100>
   409ec:	e0bffd17 	ldw	r2,-12(fp)
   409f0:	e0bffc15 	stw	r2,-16(fp)
   409f4:	e0bee117 	ldw	r2,-1148(fp)
   409f8:	10c00317 	ldw	r3,12(r2)
   409fc:	e0bfe204 	addi	r2,fp,-120
   40a00:	e1fffc17 	ldw	r7,-16(fp)
   40a04:	180d883a 	mov	r6,r3
   40a08:	014001b4 	movhi	r5,6
   40a0c:	29741504 	addi	r5,r5,-12204
   40a10:	1009883a 	mov	r4,r2
   40a14:	0043f2c0 	call	43f2c <sprintf>
   40a18:	e0bffec3 	ldbu	r2,-5(fp)
   40a1c:	10000426 	beq	r2,zero,40a30 <http_response_send+0x13c>
   40a20:	e0bfe204 	addi	r2,fp,-120
   40a24:	1009883a 	mov	r4,r2
   40a28:	004048c0 	call	4048c <esp8266_send_command>
   40a2c:	e0bffec5 	stb	r2,-5(fp)
   40a30:	e0bffec3 	ldbu	r2,-5(fp)
   40a34:	10000426 	beq	r2,zero,40a48 <http_response_send+0x154>
   40a38:	e17ffc17 	ldw	r5,-16(fp)
   40a3c:	e13ffb17 	ldw	r4,-20(fp)
   40a40:	00405dc0 	call	405dc <esp8266_send_data>
   40a44:	e0bffec5 	stb	r2,-5(fp)
   40a48:	e0bffc17 	ldw	r2,-16(fp)
   40a4c:	e0fffb17 	ldw	r3,-20(fp)
   40a50:	1885883a 	add	r2,r3,r2
   40a54:	e0bffb15 	stw	r2,-20(fp)
   40a58:	e0fffd17 	ldw	r3,-12(fp)
   40a5c:	e0bffc17 	ldw	r2,-16(fp)
   40a60:	1885c83a 	sub	r2,r3,r2
   40a64:	e0bffd15 	stw	r2,-12(fp)
   40a68:	e0bffd17 	ldw	r2,-12(fp)
   40a6c:	0080020e 	bge	zero,r2,40a78 <http_response_send+0x184>
   40a70:	e0bffec3 	ldbu	r2,-5(fp)
   40a74:	103fd71e 	bne	r2,zero,409d4 <http_response_send+0xe0>
   40a78:	e0bee117 	ldw	r2,-1148(fp)
   40a7c:	10c00317 	ldw	r3,12(r2)
   40a80:	e0bfe204 	addi	r2,fp,-120
   40a84:	180d883a 	mov	r6,r3
   40a88:	014001b4 	movhi	r5,6
   40a8c:	29741a04 	addi	r5,r5,-12184
   40a90:	1009883a 	mov	r4,r2
   40a94:	0043f2c0 	call	43f2c <sprintf>
   40a98:	e0bffec3 	ldbu	r2,-5(fp)
   40a9c:	10000426 	beq	r2,zero,40ab0 <http_response_send+0x1bc>
   40aa0:	e0bfe204 	addi	r2,fp,-120
   40aa4:	1009883a 	mov	r4,r2
   40aa8:	004048c0 	call	4048c <esp8266_send_command>
   40aac:	e0bffec5 	stb	r2,-5(fp)
   40ab0:	e0bee117 	ldw	r2,-1148(fp)
   40ab4:	10000205 	stb	zero,8(r2)
   40ab8:	e0bffec3 	ldbu	r2,-5(fp)
   40abc:	e6ffff04 	addi	sp,fp,-4
   40ac0:	dfc00217 	ldw	ra,8(sp)
   40ac4:	df000117 	ldw	fp,4(sp)
   40ac8:	dc000017 	ldw	r16,0(sp)
   40acc:	dec00304 	addi	sp,sp,12
   40ad0:	f800283a 	ret

00040ad4 <led_response>:
   40ad4:	defffa04 	addi	sp,sp,-24
   40ad8:	dfc00515 	stw	ra,20(sp)
   40adc:	df000415 	stw	fp,16(sp)
   40ae0:	df000404 	addi	fp,sp,16
   40ae4:	e13ffc15 	stw	r4,-16(fp)
   40ae8:	00800044 	movi	r2,1
   40aec:	e0bfffc5 	stb	r2,-1(fp)
   40af0:	e0bffc17 	ldw	r2,-16(fp)
   40af4:	10800117 	ldw	r2,4(r2)
   40af8:	014001b4 	movhi	r5,6
   40afc:	29741e04 	addi	r5,r5,-12168
   40b00:	1009883a 	mov	r4,r2
   40b04:	00449840 	call	44984 <strstr>
   40b08:	1007883a 	mov	r3,r2
   40b0c:	e0bffc17 	ldw	r2,-16(fp)
   40b10:	10800117 	ldw	r2,4(r2)
   40b14:	1880171e 	bne	r3,r2,40b74 <led_response+0xa0>
   40b18:	e0bffc17 	ldw	r2,-16(fp)
   40b1c:	10800117 	ldw	r2,4(r2)
   40b20:	e0fffd04 	addi	r3,fp,-12
   40b24:	180d883a 	mov	r6,r3
   40b28:	014001b4 	movhi	r5,6
   40b2c:	29742004 	addi	r5,r5,-12160
   40b30:	1009883a 	mov	r4,r2
   40b34:	0043f900 	call	43f90 <sscanf>
   40b38:	10800058 	cmpnei	r2,r2,1
   40b3c:	10002e1e 	bne	r2,zero,40bf8 <led_response+0x124>
   40b40:	00800234 	movhi	r2,8
   40b44:	10842037 	ldwio	r2,4224(r2)
   40b48:	e0bffe15 	stw	r2,-8(fp)
   40b4c:	e0bffd17 	ldw	r2,-12(fp)
   40b50:	00c00044 	movi	r3,1
   40b54:	1884983a 	sll	r2,r3,r2
   40b58:	e0fffe17 	ldw	r3,-8(fp)
   40b5c:	1884b03a 	or	r2,r3,r2
   40b60:	e0bffe15 	stw	r2,-8(fp)
   40b64:	e0fffe17 	ldw	r3,-8(fp)
   40b68:	00800234 	movhi	r2,8
   40b6c:	10c42035 	stwio	r3,4224(r2)
   40b70:	00002106 	br	40bf8 <led_response+0x124>
   40b74:	e0bffc17 	ldw	r2,-16(fp)
   40b78:	10800117 	ldw	r2,4(r2)
   40b7c:	014001b4 	movhi	r5,6
   40b80:	29742304 	addi	r5,r5,-12148
   40b84:	1009883a 	mov	r4,r2
   40b88:	00449840 	call	44984 <strstr>
   40b8c:	1007883a 	mov	r3,r2
   40b90:	e0bffc17 	ldw	r2,-16(fp)
   40b94:	10800117 	ldw	r2,4(r2)
   40b98:	1880171e 	bne	r3,r2,40bf8 <led_response+0x124>
   40b9c:	e0bffc17 	ldw	r2,-16(fp)
   40ba0:	10800117 	ldw	r2,4(r2)
   40ba4:	e0fffd04 	addi	r3,fp,-12
   40ba8:	180d883a 	mov	r6,r3
   40bac:	014001b4 	movhi	r5,6
   40bb0:	29742604 	addi	r5,r5,-12136
   40bb4:	1009883a 	mov	r4,r2
   40bb8:	0043f900 	call	43f90 <sscanf>
   40bbc:	10800058 	cmpnei	r2,r2,1
   40bc0:	10000d1e 	bne	r2,zero,40bf8 <led_response+0x124>
   40bc4:	00800234 	movhi	r2,8
   40bc8:	10842037 	ldwio	r2,4224(r2)
   40bcc:	e0bffe15 	stw	r2,-8(fp)
   40bd0:	e0bffd17 	ldw	r2,-12(fp)
   40bd4:	00c00044 	movi	r3,1
   40bd8:	1884983a 	sll	r2,r3,r2
   40bdc:	0084303a 	nor	r2,zero,r2
   40be0:	e0fffe17 	ldw	r3,-8(fp)
   40be4:	1884703a 	and	r2,r3,r2
   40be8:	e0bffe15 	stw	r2,-8(fp)
   40bec:	e0fffe17 	ldw	r3,-8(fp)
   40bf0:	00800234 	movhi	r2,8
   40bf4:	10c42035 	stwio	r3,4224(r2)
   40bf8:	d0a00717 	ldw	r2,-32740(gp)
   40bfc:	d0e00917 	ldw	r3,-32732(gp)
   40c00:	180f883a 	mov	r7,r3
   40c04:	d1a00804 	addi	r6,gp,-32736
   40c08:	100b883a 	mov	r5,r2
   40c0c:	e13ffc17 	ldw	r4,-16(fp)
   40c10:	00408f40 	call	408f4 <http_response_send>
   40c14:	e0bfffc3 	ldbu	r2,-1(fp)
   40c18:	e037883a 	mov	sp,fp
   40c1c:	dfc00117 	ldw	ra,4(sp)
   40c20:	df000017 	ldw	fp,0(sp)
   40c24:	dec00204 	addi	sp,sp,8
   40c28:	f800283a 	ret

00040c2c <fire_response>:
   40c2c:	defff104 	addi	sp,sp,-60
   40c30:	dfc00e15 	stw	ra,56(sp)
   40c34:	df000d15 	stw	fp,52(sp)
   40c38:	df000d04 	addi	fp,sp,52
   40c3c:	e13ff615 	stw	r4,-40(fp)
   40c40:	e17ff515 	stw	r5,-44(fp)
   40c44:	e0bff517 	ldw	r2,-44(fp)
   40c48:	10c00117 	ldw	r3,4(r2)
   40c4c:	e17ff704 	addi	r5,fp,-36
   40c50:	e13ffa04 	addi	r4,fp,-24
   40c54:	e0bff704 	addi	r2,fp,-36
   40c58:	10800204 	addi	r2,r2,8
   40c5c:	d8800115 	stw	r2,4(sp)
   40c60:	e0bff704 	addi	r2,fp,-36
   40c64:	10800104 	addi	r2,r2,4
   40c68:	d8800015 	stw	r2,0(sp)
   40c6c:	280f883a 	mov	r7,r5
   40c70:	200d883a 	mov	r6,r4
   40c74:	014001b4 	movhi	r5,6
   40c78:	29742904 	addi	r5,r5,-12124
   40c7c:	1809883a 	mov	r4,r3
   40c80:	0043f900 	call	43f90 <sscanf>
   40c84:	e0bffa17 	ldw	r2,-24(fp)
   40c88:	e0bffb15 	stw	r2,-20(fp)
   40c8c:	e0bff717 	ldw	r2,-36(fp)
   40c90:	e0bffc15 	stw	r2,-16(fp)
   40c94:	e0bff817 	ldw	r2,-32(fp)
   40c98:	e0bffd15 	stw	r2,-12(fp)
   40c9c:	e0bff917 	ldw	r2,-28(fp)
   40ca0:	e0bffe15 	stw	r2,-8(fp)
   40ca4:	008001b4 	movhi	r2,6
   40ca8:	10b73b04 	addi	r2,r2,-8980
   40cac:	d0a00b15 	stw	r2,-32724(gp)
   40cb0:	d0a00117 	ldw	r2,-32764(gp)
   40cb4:	d0a00c15 	stw	r2,-32720(gp)
   40cb8:	00800234 	movhi	r2,8
   40cbc:	10842037 	ldwio	r2,4224(r2)
   40cc0:	e0bfff15 	stw	r2,-4(fp)
   40cc4:	e0bfff17 	ldw	r2,-4(fp)
   40cc8:	108003d4 	ori	r2,r2,15
   40ccc:	e0bfff15 	stw	r2,-4(fp)
   40cd0:	e0ffff17 	ldw	r3,-4(fp)
   40cd4:	00800234 	movhi	r2,8
   40cd8:	10c42035 	stwio	r3,4224(r2)
   40cdc:	d0a00717 	ldw	r2,-32740(gp)
   40ce0:	d0e00917 	ldw	r3,-32732(gp)
   40ce4:	180f883a 	mov	r7,r3
   40ce8:	d1a00804 	addi	r6,gp,-32736
   40cec:	100b883a 	mov	r5,r2
   40cf0:	e13ff517 	ldw	r4,-44(fp)
   40cf4:	00408f40 	call	408f4 <http_response_send>
   40cf8:	e0bff617 	ldw	r2,-40(fp)
   40cfc:	e0fffb17 	ldw	r3,-20(fp)
   40d00:	10c00015 	stw	r3,0(r2)
   40d04:	e0fffc17 	ldw	r3,-16(fp)
   40d08:	10c00115 	stw	r3,4(r2)
   40d0c:	e0fffd17 	ldw	r3,-12(fp)
   40d10:	10c00215 	stw	r3,8(r2)
   40d14:	e0fffe17 	ldw	r3,-8(fp)
   40d18:	10c00315 	stw	r3,12(r2)
   40d1c:	e0bff617 	ldw	r2,-40(fp)
   40d20:	e037883a 	mov	sp,fp
   40d24:	dfc00117 	ldw	ra,4(sp)
   40d28:	df000017 	ldw	fp,0(sp)
   40d2c:	dec00204 	addi	sp,sp,8
   40d30:	f800283a 	ret

00040d34 <fire_react>:
   40d34:	defff704 	addi	sp,sp,-36
   40d38:	dfc00815 	stw	ra,32(sp)
   40d3c:	df000715 	stw	fp,28(sp)
   40d40:	dc000615 	stw	r16,24(sp)
   40d44:	df000704 	addi	fp,sp,28
   40d48:	e13ffc15 	stw	r4,-16(fp)
   40d4c:	e17ffb15 	stw	r5,-20(fp)
   40d50:	e1bffa15 	stw	r6,-24(fp)
   40d54:	e1fff915 	stw	r7,-28(fp)
   40d58:	00800044 	movi	r2,1
   40d5c:	e0bffec5 	stb	r2,-5(fp)
   40d60:	e0bffc17 	ldw	r2,-16(fp)
   40d64:	10800117 	ldw	r2,4(r2)
   40d68:	014001b4 	movhi	r5,6
   40d6c:	29742f04 	addi	r5,r5,-12100
   40d70:	1009883a 	mov	r4,r2
   40d74:	00449840 	call	44984 <strstr>
   40d78:	1007883a 	mov	r3,r2
   40d7c:	e0bffc17 	ldw	r2,-16(fp)
   40d80:	10800117 	ldw	r2,4(r2)
   40d84:	18804b1e 	bne	r3,r2,40eb4 <fire_react+0x180>
   40d88:	008001b4 	movhi	r2,6
   40d8c:	10b6bb04 	addi	r2,r2,-9492
   40d90:	d0a00b15 	stw	r2,-32724(gp)
   40d94:	d0a00017 	ldw	r2,-32768(gp)
   40d98:	d0a00c15 	stw	r2,-32720(gp)
   40d9c:	00800234 	movhi	r2,8
   40da0:	10842037 	ldwio	r2,4224(r2)
   40da4:	e0bffd15 	stw	r2,-12(fp)
   40da8:	e0fffd17 	ldw	r3,-12(fp)
   40dac:	00bffdc4 	movi	r2,-9
   40db0:	1884703a 	and	r2,r3,r2
   40db4:	e0bffd15 	stw	r2,-12(fp)
   40db8:	e0fffd17 	ldw	r3,-12(fp)
   40dbc:	00bfff44 	movi	r2,-3
   40dc0:	1884703a 	and	r2,r3,r2
   40dc4:	e0bffd15 	stw	r2,-12(fp)
   40dc8:	e0fffd17 	ldw	r3,-12(fp)
   40dcc:	00bffec4 	movi	r2,-5
   40dd0:	1884703a 	and	r2,r3,r2
   40dd4:	e0bffd15 	stw	r2,-12(fp)
   40dd8:	e0fffd17 	ldw	r3,-12(fp)
   40ddc:	00bfff84 	movi	r2,-2
   40de0:	1884703a 	and	r2,r3,r2
   40de4:	e0bffd15 	stw	r2,-12(fp)
   40de8:	e0fffd17 	ldw	r3,-12(fp)
   40dec:	00800234 	movhi	r2,8
   40df0:	10c42035 	stwio	r3,4224(r2)
   40df4:	e0bffa17 	ldw	r2,-24(fp)
   40df8:	10800017 	ldw	r2,0(r2)
   40dfc:	1004913a 	slli	r2,r2,4
   40e00:	e0fff917 	ldw	r3,-28(fp)
   40e04:	1885883a 	add	r2,r3,r2
   40e08:	e0fffb17 	ldw	r3,-20(fp)
   40e0c:	18c00017 	ldw	r3,0(r3)
   40e10:	10c00015 	stw	r3,0(r2)
   40e14:	e0bffa17 	ldw	r2,-24(fp)
   40e18:	10800017 	ldw	r2,0(r2)
   40e1c:	1004913a 	slli	r2,r2,4
   40e20:	e0fff917 	ldw	r3,-28(fp)
   40e24:	1885883a 	add	r2,r3,r2
   40e28:	00c00044 	movi	r3,1
   40e2c:	10c00105 	stb	r3,4(r2)
   40e30:	e0bffb17 	ldw	r2,-20(fp)
   40e34:	11000117 	ldw	r4,4(r2)
   40e38:	e0bffa17 	ldw	r2,-24(fp)
   40e3c:	10800017 	ldw	r2,0(r2)
   40e40:	1004913a 	slli	r2,r2,4
   40e44:	e0fff917 	ldw	r3,-28(fp)
   40e48:	18a1883a 	add	r16,r3,r2
   40e4c:	00417640 	call	41764 <__fixsfsi>
   40e50:	80800215 	stw	r2,8(r16)
   40e54:	e0bffb17 	ldw	r2,-20(fp)
   40e58:	11000217 	ldw	r4,8(r2)
   40e5c:	e0bffa17 	ldw	r2,-24(fp)
   40e60:	10800017 	ldw	r2,0(r2)
   40e64:	1004913a 	slli	r2,r2,4
   40e68:	e0fff917 	ldw	r3,-28(fp)
   40e6c:	18a1883a 	add	r16,r3,r2
   40e70:	00417640 	call	41764 <__fixsfsi>
   40e74:	80800315 	stw	r2,12(r16)
   40e78:	e0bffb17 	ldw	r2,-20(fp)
   40e7c:	11000317 	ldw	r4,12(r2)
   40e80:	e0bffa17 	ldw	r2,-24(fp)
   40e84:	10800017 	ldw	r2,0(r2)
   40e88:	1004913a 	slli	r2,r2,4
   40e8c:	e0fff917 	ldw	r3,-28(fp)
   40e90:	18a1883a 	add	r16,r3,r2
   40e94:	00417640 	call	41764 <__fixsfsi>
   40e98:	80800415 	stw	r2,16(r16)
   40e9c:	e0bffa17 	ldw	r2,-24(fp)
   40ea0:	10800017 	ldw	r2,0(r2)
   40ea4:	10c00044 	addi	r3,r2,1
   40ea8:	e0bffa17 	ldw	r2,-24(fp)
   40eac:	10c00015 	stw	r3,0(r2)
   40eb0:	00005306 	br	41000 <fire_react+0x2cc>
   40eb4:	e0bffc17 	ldw	r2,-16(fp)
   40eb8:	10800117 	ldw	r2,4(r2)
   40ebc:	014001b4 	movhi	r5,6
   40ec0:	29743304 	addi	r5,r5,-12084
   40ec4:	1009883a 	mov	r4,r2
   40ec8:	00449840 	call	44984 <strstr>
   40ecc:	1007883a 	mov	r3,r2
   40ed0:	e0bffc17 	ldw	r2,-16(fp)
   40ed4:	10800117 	ldw	r2,4(r2)
   40ed8:	1880491e 	bne	r3,r2,41000 <fire_react+0x2cc>
   40edc:	008001b4 	movhi	r2,6
   40ee0:	10b6bb04 	addi	r2,r2,-9492
   40ee4:	d0a00b15 	stw	r2,-32724(gp)
   40ee8:	d0a00017 	ldw	r2,-32768(gp)
   40eec:	d0a00c15 	stw	r2,-32720(gp)
   40ef0:	00800234 	movhi	r2,8
   40ef4:	10842037 	ldwio	r2,4224(r2)
   40ef8:	e0bffd15 	stw	r2,-12(fp)
   40efc:	e0fffd17 	ldw	r3,-12(fp)
   40f00:	00bffdc4 	movi	r2,-9
   40f04:	1884703a 	and	r2,r3,r2
   40f08:	e0bffd15 	stw	r2,-12(fp)
   40f0c:	e0fffd17 	ldw	r3,-12(fp)
   40f10:	00bfff44 	movi	r2,-3
   40f14:	1884703a 	and	r2,r3,r2
   40f18:	e0bffd15 	stw	r2,-12(fp)
   40f1c:	e0fffd17 	ldw	r3,-12(fp)
   40f20:	00bffec4 	movi	r2,-5
   40f24:	1884703a 	and	r2,r3,r2
   40f28:	e0bffd15 	stw	r2,-12(fp)
   40f2c:	e0fffd17 	ldw	r3,-12(fp)
   40f30:	00bfff84 	movi	r2,-2
   40f34:	1884703a 	and	r2,r3,r2
   40f38:	e0bffd15 	stw	r2,-12(fp)
   40f3c:	e0fffd17 	ldw	r3,-12(fp)
   40f40:	00800234 	movhi	r2,8
   40f44:	10c42035 	stwio	r3,4224(r2)
   40f48:	e0bffa17 	ldw	r2,-24(fp)
   40f4c:	10800017 	ldw	r2,0(r2)
   40f50:	1004913a 	slli	r2,r2,4
   40f54:	e0fff917 	ldw	r3,-28(fp)
   40f58:	1885883a 	add	r2,r3,r2
   40f5c:	e0fffb17 	ldw	r3,-20(fp)
   40f60:	18c00017 	ldw	r3,0(r3)
   40f64:	10c00015 	stw	r3,0(r2)
   40f68:	e0bffa17 	ldw	r2,-24(fp)
   40f6c:	10800017 	ldw	r2,0(r2)
   40f70:	1004913a 	slli	r2,r2,4
   40f74:	e0fff917 	ldw	r3,-28(fp)
   40f78:	1885883a 	add	r2,r3,r2
   40f7c:	10000105 	stb	zero,4(r2)
   40f80:	e0bffb17 	ldw	r2,-20(fp)
   40f84:	11000117 	ldw	r4,4(r2)
   40f88:	e0bffa17 	ldw	r2,-24(fp)
   40f8c:	10800017 	ldw	r2,0(r2)
   40f90:	1004913a 	slli	r2,r2,4
   40f94:	e0fff917 	ldw	r3,-28(fp)
   40f98:	18a1883a 	add	r16,r3,r2
   40f9c:	00417640 	call	41764 <__fixsfsi>
   40fa0:	80800215 	stw	r2,8(r16)
   40fa4:	e0bffb17 	ldw	r2,-20(fp)
   40fa8:	11000217 	ldw	r4,8(r2)
   40fac:	e0bffa17 	ldw	r2,-24(fp)
   40fb0:	10800017 	ldw	r2,0(r2)
   40fb4:	1004913a 	slli	r2,r2,4
   40fb8:	e0fff917 	ldw	r3,-28(fp)
   40fbc:	18a1883a 	add	r16,r3,r2
   40fc0:	00417640 	call	41764 <__fixsfsi>
   40fc4:	80800315 	stw	r2,12(r16)
   40fc8:	e0bffb17 	ldw	r2,-20(fp)
   40fcc:	11000317 	ldw	r4,12(r2)
   40fd0:	e0bffa17 	ldw	r2,-24(fp)
   40fd4:	10800017 	ldw	r2,0(r2)
   40fd8:	1004913a 	slli	r2,r2,4
   40fdc:	e0fff917 	ldw	r3,-28(fp)
   40fe0:	18a1883a 	add	r16,r3,r2
   40fe4:	00417640 	call	41764 <__fixsfsi>
   40fe8:	80800415 	stw	r2,16(r16)
   40fec:	e0bffa17 	ldw	r2,-24(fp)
   40ff0:	10800017 	ldw	r2,0(r2)
   40ff4:	10c00044 	addi	r3,r2,1
   40ff8:	e0bffa17 	ldw	r2,-24(fp)
   40ffc:	10c00015 	stw	r3,0(r2)
   41000:	e0bffec3 	ldbu	r2,-5(fp)
   41004:	e6ffff04 	addi	sp,fp,-4
   41008:	dfc00217 	ldw	ra,8(sp)
   4100c:	df000117 	ldw	fp,4(sp)
   41010:	dc000017 	ldw	r16,0(sp)
   41014:	dec00304 	addi	sp,sp,12
   41018:	f800283a 	ret

0004101c <esp8266_listen>:
   4101c:	defc5904 	addi	sp,sp,-3740
   41020:	dfc3a615 	stw	ra,3736(sp)
   41024:	df03a515 	stw	fp,3732(sp)
   41028:	dc43a415 	stw	r17,3728(sp)
   4102c:	dc03a315 	stw	r16,3724(sp)
   41030:	df03a504 	addi	fp,sp,3732
   41034:	e03ffd15 	stw	zero,-12(fp)
   41038:	00801404 	movi	r2,80
   4103c:	e0bffb15 	stw	r2,-20(fp)
   41040:	e03e6915 	stw	zero,-1628(fp)
   41044:	e03c7505 	stb	zero,-3628(fp)
   41048:	e0bc7504 	addi	r2,fp,-3628
   4104c:	1009883a 	mov	r4,r2
   41050:	00444f40 	call	444f4 <strlen>
   41054:	1007883a 	mov	r3,r2
   41058:	e0bc7504 	addi	r2,fp,-3628
   4105c:	10c5883a 	add	r2,r2,r3
   41060:	00c00f04 	movi	r3,60
   41064:	10c00005 	stb	r3,0(r2)
   41068:	00c01d04 	movi	r3,116
   4106c:	10c00045 	stb	r3,1(r2)
   41070:	00c01844 	movi	r3,97
   41074:	10c00085 	stb	r3,2(r2)
   41078:	00c01884 	movi	r3,98
   4107c:	10c000c5 	stb	r3,3(r2)
   41080:	00c01b04 	movi	r3,108
   41084:	10c00105 	stb	r3,4(r2)
   41088:	00c01944 	movi	r3,101
   4108c:	10c00145 	stb	r3,5(r2)
   41090:	00c00f84 	movi	r3,62
   41094:	10c00185 	stb	r3,6(r2)
   41098:	00c00284 	movi	r3,10
   4109c:	10c001c5 	stb	r3,7(r2)
   410a0:	10000205 	stb	zero,8(r2)
   410a4:	e0bc7504 	addi	r2,fp,-3628
   410a8:	1009883a 	mov	r4,r2
   410ac:	00444f40 	call	444f4 <strlen>
   410b0:	1007883a 	mov	r3,r2
   410b4:	e0bc7504 	addi	r2,fp,-3628
   410b8:	10c5883a 	add	r2,r2,r3
   410bc:	1009883a 	mov	r4,r2
   410c0:	008001b4 	movhi	r2,6
   410c4:	10b43804 	addi	r2,r2,-12064
   410c8:	00c01a04 	movi	r3,104
   410cc:	180d883a 	mov	r6,r3
   410d0:	100b883a 	mov	r5,r2
   410d4:	00438100 	call	43810 <memcpy>
   410d8:	010001b4 	movhi	r4,6
   410dc:	21345204 	addi	r4,r4,-11960
   410e0:	004048c0 	call	4048c <esp8266_send_command>
   410e4:	010001b4 	movhi	r4,6
   410e8:	21345504 	addi	r4,r4,-11948
   410ec:	004048c0 	call	4048c <esp8266_send_command>
   410f0:	e17ffb17 	ldw	r5,-20(fp)
   410f4:	010001b4 	movhi	r4,6
   410f8:	21345a04 	addi	r4,r4,-11928
   410fc:	0043a940 	call	43a94 <printf>
   41100:	e0bc7504 	addi	r2,fp,-3628
   41104:	100b883a 	mov	r5,r2
   41108:	010001b4 	movhi	r4,6
   4110c:	21346504 	addi	r4,r4,-11884
   41110:	0043a940 	call	43a94 <printf>
   41114:	e03ffc15 	stw	zero,-16(fp)
   41118:	00001306 	br	41168 <esp8266_listen+0x14c>
   4111c:	e0bffc17 	ldw	r2,-16(fp)
   41120:	1004913a 	slli	r2,r2,4
   41124:	10bffe04 	addi	r2,r2,-8
   41128:	1705883a 	add	r2,r2,fp
   4112c:	103c6815 	stw	zero,-3680(r2)
   41130:	e0bffc17 	ldw	r2,-16(fp)
   41134:	1004913a 	slli	r2,r2,4
   41138:	10bffe04 	addi	r2,r2,-8
   4113c:	1705883a 	add	r2,r2,fp
   41140:	103c6905 	stb	zero,-3676(r2)
   41144:	e0bffc17 	ldw	r2,-16(fp)
   41148:	1004913a 	slli	r2,r2,4
   4114c:	10bffe04 	addi	r2,r2,-8
   41150:	1705883a 	add	r2,r2,fp
   41154:	e0fffc17 	ldw	r3,-16(fp)
   41158:	10fc6a15 	stw	r3,-3672(r2)
   4115c:	e0bffc17 	ldw	r2,-16(fp)
   41160:	10800044 	addi	r2,r2,1
   41164:	e0bffc15 	stw	r2,-16(fp)
   41168:	e0bffc17 	ldw	r2,-16(fp)
   4116c:	10800110 	cmplti	r2,r2,4
   41170:	103fea1e 	bne	r2,zero,4111c <esp8266_listen+0x100>
   41174:	d0e91117 	ldw	r3,-23484(gp)
   41178:	e0bd6f04 	addi	r2,fp,-2628
   4117c:	180d883a 	mov	r6,r3
   41180:	0140fa04 	movi	r5,1000
   41184:	1009883a 	mov	r4,r2
   41188:	0041d400 	call	41d40 <fgets>
   4118c:	10004f26 	beq	r2,zero,412cc <esp8266_listen+0x2b0>
   41190:	e0bd6f04 	addi	r2,fp,-2628
   41194:	100b883a 	mov	r5,r2
   41198:	010001b4 	movhi	r4,6
   4119c:	21340304 	addi	r4,r4,-12276
   411a0:	0043a940 	call	43a94 <printf>
   411a4:	e0bd6f04 	addi	r2,fp,-2628
   411a8:	014001b4 	movhi	r5,6
   411ac:	29746704 	addi	r5,r5,-11876
   411b0:	1009883a 	mov	r4,r2
   411b4:	00449840 	call	44984 <strstr>
   411b8:	10002526 	beq	r2,zero,41250 <esp8266_listen+0x234>
   411bc:	e0bd6f04 	addi	r2,fp,-2628
   411c0:	1009883a 	mov	r4,r2
   411c4:	00444f40 	call	444f4 <strlen>
   411c8:	e0bffd15 	stw	r2,-12(fp)
   411cc:	00001106 	br	41214 <esp8266_listen+0x1f8>
   411d0:	e0bffd17 	ldw	r2,-12(fp)
   411d4:	e0fd6f04 	addi	r3,fp,-2628
   411d8:	1885883a 	add	r2,r3,r2
   411dc:	014001b4 	movhi	r5,6
   411e0:	29746904 	addi	r5,r5,-11868
   411e4:	1009883a 	mov	r4,r2
   411e8:	00443b00 	call	443b0 <strcmp>
   411ec:	10001626 	beq	r2,zero,41248 <esp8266_listen+0x22c>
   411f0:	e0bffd17 	ldw	r2,-12(fp)
   411f4:	e0fd6f04 	addi	r3,fp,-2628
   411f8:	1885883a 	add	r2,r3,r2
   411fc:	1009883a 	mov	r4,r2
   41200:	00444f40 	call	444f4 <strlen>
   41204:	1007883a 	mov	r3,r2
   41208:	e0bffd17 	ldw	r2,-12(fp)
   4120c:	1885883a 	add	r2,r3,r2
   41210:	e0bffd15 	stw	r2,-12(fp)
   41214:	e0bffd17 	ldw	r2,-12(fp)
   41218:	e0fd6f04 	addi	r3,fp,-2628
   4121c:	1889883a 	add	r4,r3,r2
   41220:	e0bffd17 	ldw	r2,-12(fp)
   41224:	00c0fa04 	movi	r3,1000
   41228:	1885c83a 	sub	r2,r3,r2
   4122c:	1007883a 	mov	r3,r2
   41230:	d0a91117 	ldw	r2,-23484(gp)
   41234:	100d883a 	mov	r6,r2
   41238:	180b883a 	mov	r5,r3
   4123c:	0041d400 	call	41d40 <fgets>
   41240:	103fe31e 	bne	r2,zero,411d0 <esp8266_listen+0x1b4>
   41244:	00002306 	br	412d4 <esp8266_listen+0x2b8>
   41248:	0001883a 	nop
   4124c:	00002106 	br	412d4 <esp8266_listen+0x2b8>
   41250:	e0fffa04 	addi	r3,fp,-24
   41254:	e0bd6f04 	addi	r2,fp,-2628
   41258:	180d883a 	mov	r6,r3
   4125c:	014001b4 	movhi	r5,6
   41260:	29746a04 	addi	r5,r5,-11864
   41264:	1009883a 	mov	r4,r2
   41268:	0043f900 	call	43f90 <sscanf>
   4126c:	10800058 	cmpnei	r2,r2,1
   41270:	1000071e 	bne	r2,zero,41290 <esp8266_listen+0x274>
   41274:	e0bffa17 	ldw	r2,-24(fp)
   41278:	1004913a 	slli	r2,r2,4
   4127c:	10bffe04 	addi	r2,r2,-8
   41280:	1705883a 	add	r2,r2,fp
   41284:	00c00044 	movi	r3,1
   41288:	10fc6905 	stb	r3,-3676(r2)
   4128c:	003fb906 	br	41174 <esp8266_listen+0x158>
   41290:	e0fffa04 	addi	r3,fp,-24
   41294:	e0bd6f04 	addi	r2,fp,-2628
   41298:	180d883a 	mov	r6,r3
   4129c:	014001b4 	movhi	r5,6
   412a0:	29746d04 	addi	r5,r5,-11852
   412a4:	1009883a 	mov	r4,r2
   412a8:	0043f900 	call	43f90 <sscanf>
   412ac:	10800058 	cmpnei	r2,r2,1
   412b0:	103fb01e 	bne	r2,zero,41174 <esp8266_listen+0x158>
   412b4:	e0bffa17 	ldw	r2,-24(fp)
   412b8:	1004913a 	slli	r2,r2,4
   412bc:	10bffe04 	addi	r2,r2,-8
   412c0:	1705883a 	add	r2,r2,fp
   412c4:	103c6905 	stb	zero,-3676(r2)
   412c8:	003faa06 	br	41174 <esp8266_listen+0x158>
   412cc:	0001883a 	nop
   412d0:	003fa806 	br	41174 <esp8266_listen+0x158>
   412d4:	e13ffa04 	addi	r4,fp,-24
   412d8:	e0fc6504 	addi	r3,fp,-3692
   412dc:	e0bd6f04 	addi	r2,fp,-2628
   412e0:	200d883a 	mov	r6,r4
   412e4:	180b883a 	mov	r5,r3
   412e8:	1009883a 	mov	r4,r2
   412ec:	00407640 	call	40764 <http_request_parse>
   412f0:	10803fcc 	andi	r2,r2,255
   412f4:	103f9f26 	beq	r2,zero,41174 <esp8266_listen+0x158>
   412f8:	e0bffa17 	ldw	r2,-24(fp)
   412fc:	1004913a 	slli	r2,r2,4
   41300:	10bffe04 	addi	r2,r2,-8
   41304:	1705883a 	add	r2,r2,fp
   41308:	10bc6903 	ldbu	r2,-3676(r2)
   4130c:	10803fcc 	andi	r2,r2,255
   41310:	103f9826 	beq	r2,zero,41174 <esp8266_listen+0x158>
   41314:	e0bffa17 	ldw	r2,-24(fp)
   41318:	1004913a 	slli	r2,r2,4
   4131c:	10bffe04 	addi	r2,r2,-8
   41320:	1705883a 	add	r2,r2,fp
   41324:	10bc6817 	ldw	r2,-3680(r2)
   41328:	014001b4 	movhi	r5,6
   4132c:	29747004 	addi	r5,r5,-11840
   41330:	1009883a 	mov	r4,r2
   41334:	00443b00 	call	443b0 <strcmp>
   41338:	10000d1e 	bne	r2,zero,41370 <esp8266_listen+0x354>
   4133c:	e0bffa17 	ldw	r2,-24(fp)
   41340:	e0fc6504 	addi	r3,fp,-3692
   41344:	1004913a 	slli	r2,r2,4
   41348:	1885883a 	add	r2,r3,r2
   4134c:	d0e00417 	ldw	r3,-32752(gp)
   41350:	d1200b17 	ldw	r4,-32724(gp)
   41354:	d1600c17 	ldw	r5,-32720(gp)
   41358:	280f883a 	mov	r7,r5
   4135c:	200d883a 	mov	r6,r4
   41360:	180b883a 	mov	r5,r3
   41364:	1009883a 	mov	r4,r2
   41368:	00408f40 	call	408f4 <http_response_send>
   4136c:	003f8106 	br	41174 <esp8266_listen+0x158>
   41370:	e0bffa17 	ldw	r2,-24(fp)
   41374:	1004913a 	slli	r2,r2,4
   41378:	10bffe04 	addi	r2,r2,-8
   4137c:	1705883a 	add	r2,r2,fp
   41380:	10bc6817 	ldw	r2,-3680(r2)
   41384:	014001b4 	movhi	r5,6
   41388:	29747104 	addi	r5,r5,-11836
   4138c:	1009883a 	mov	r4,r2
   41390:	00449840 	call	44984 <strstr>
   41394:	1007883a 	mov	r3,r2
   41398:	e0bffa17 	ldw	r2,-24(fp)
   4139c:	1004913a 	slli	r2,r2,4
   413a0:	10bffe04 	addi	r2,r2,-8
   413a4:	1705883a 	add	r2,r2,fp
   413a8:	10bc6817 	ldw	r2,-3680(r2)
   413ac:	18801d1e 	bne	r3,r2,41424 <esp8266_listen+0x408>
   413b0:	e0bffa17 	ldw	r2,-24(fp)
   413b4:	e0fc6504 	addi	r3,fp,-3692
   413b8:	1004913a 	slli	r2,r2,4
   413bc:	1887883a 	add	r3,r3,r2
   413c0:	e0bc5d04 	addi	r2,fp,-3724
   413c4:	180b883a 	mov	r5,r3
   413c8:	1009883a 	mov	r4,r2
   413cc:	0040c2c0 	call	40c2c <fire_response>
   413d0:	e0bc5d17 	ldw	r2,-3724(fp)
   413d4:	e0bc6115 	stw	r2,-3708(fp)
   413d8:	e0bc5e17 	ldw	r2,-3720(fp)
   413dc:	e0bc6215 	stw	r2,-3704(fp)
   413e0:	e0bc5f17 	ldw	r2,-3716(fp)
   413e4:	e0bc6315 	stw	r2,-3700(fp)
   413e8:	e0bc6017 	ldw	r2,-3712(fp)
   413ec:	e0bc6415 	stw	r2,-3696(fp)
   413f0:	e0bffa17 	ldw	r2,-24(fp)
   413f4:	e0fc6504 	addi	r3,fp,-3692
   413f8:	1004913a 	slli	r2,r2,4
   413fc:	1885883a 	add	r2,r3,r2
   41400:	d0e00417 	ldw	r3,-32752(gp)
   41404:	d1200117 	ldw	r4,-32764(gp)
   41408:	200f883a 	mov	r7,r4
   4140c:	018001b4 	movhi	r6,6
   41410:	31b73b04 	addi	r6,r6,-8980
   41414:	180b883a 	mov	r5,r3
   41418:	1009883a 	mov	r4,r2
   4141c:	00408f40 	call	408f4 <http_response_send>
   41420:	003f5406 	br	41174 <esp8266_listen+0x158>
   41424:	e0bffa17 	ldw	r2,-24(fp)
   41428:	1004913a 	slli	r2,r2,4
   4142c:	10bffe04 	addi	r2,r2,-8
   41430:	1705883a 	add	r2,r2,fp
   41434:	10bc6817 	ldw	r2,-3680(r2)
   41438:	014001b4 	movhi	r5,6
   4143c:	29747504 	addi	r5,r5,-11820
   41440:	1009883a 	mov	r4,r2
   41444:	00449840 	call	44984 <strstr>
   41448:	1007883a 	mov	r3,r2
   4144c:	e0bffa17 	ldw	r2,-24(fp)
   41450:	1004913a 	slli	r2,r2,4
   41454:	10bffe04 	addi	r2,r2,-8
   41458:	1705883a 	add	r2,r2,fp
   4145c:	10bc6817 	ldw	r2,-3680(r2)
   41460:	18803f1e 	bne	r3,r2,41560 <esp8266_listen+0x544>
   41464:	e0bffa17 	ldw	r2,-24(fp)
   41468:	e0fc6504 	addi	r3,fp,-3692
   4146c:	1004913a 	slli	r2,r2,4
   41470:	1885883a 	add	r2,r3,r2
   41474:	e17e6a04 	addi	r5,fp,-1624
   41478:	e13e6904 	addi	r4,fp,-1628
   4147c:	e0fc6104 	addi	r3,fp,-3708
   41480:	280f883a 	mov	r7,r5
   41484:	200d883a 	mov	r6,r4
   41488:	180b883a 	mov	r5,r3
   4148c:	1009883a 	mov	r4,r2
   41490:	0040d340 	call	40d34 <fire_react>
   41494:	e0be6917 	ldw	r2,-1628(fp)
   41498:	10bfffc4 	addi	r2,r2,-1
   4149c:	1004913a 	slli	r2,r2,4
   414a0:	10bffe04 	addi	r2,r2,-8
   414a4:	1705883a 	add	r2,r2,fp
   414a8:	117e6c17 	ldw	r5,-1616(r2)
   414ac:	e0be6917 	ldw	r2,-1628(fp)
   414b0:	10bfffc4 	addi	r2,r2,-1
   414b4:	1004913a 	slli	r2,r2,4
   414b8:	10bffe04 	addi	r2,r2,-8
   414bc:	1705883a 	add	r2,r2,fp
   414c0:	10be6d03 	ldbu	r2,-1612(r2)
   414c4:	11803fcc 	andi	r6,r2,255
   414c8:	e0be6917 	ldw	r2,-1628(fp)
   414cc:	10bfffc4 	addi	r2,r2,-1
   414d0:	1004913a 	slli	r2,r2,4
   414d4:	10bffe04 	addi	r2,r2,-8
   414d8:	1705883a 	add	r2,r2,fp
   414dc:	10be6e17 	ldw	r2,-1608(r2)
   414e0:	e0fe6917 	ldw	r3,-1628(fp)
   414e4:	18ffffc4 	addi	r3,r3,-1
   414e8:	1806913a 	slli	r3,r3,4
   414ec:	18fffe04 	addi	r3,r3,-8
   414f0:	1f07883a 	add	r3,r3,fp
   414f4:	18fe6f17 	ldw	r3,-1604(r3)
   414f8:	e13d6f04 	addi	r4,fp,-2628
   414fc:	d8c00115 	stw	r3,4(sp)
   41500:	d8800015 	stw	r2,0(sp)
   41504:	300f883a 	mov	r7,r6
   41508:	280d883a 	mov	r6,r5
   4150c:	014001b4 	movhi	r5,6
   41510:	29747804 	addi	r5,r5,-11808
   41514:	0043f2c0 	call	43f2c <sprintf>
   41518:	e0fd6f04 	addi	r3,fp,-2628
   4151c:	e0bc7504 	addi	r2,fp,-3628
   41520:	180b883a 	mov	r5,r3
   41524:	1009883a 	mov	r4,r2
   41528:	00441c80 	call	441c8 <strcat>
   4152c:	e0bffa17 	ldw	r2,-24(fp)
   41530:	e0fc6504 	addi	r3,fp,-3692
   41534:	1004913a 	slli	r2,r2,4
   41538:	1885883a 	add	r2,r3,r2
   4153c:	d0e00417 	ldw	r3,-32752(gp)
   41540:	d1200b17 	ldw	r4,-32724(gp)
   41544:	d1600c17 	ldw	r5,-32720(gp)
   41548:	280f883a 	mov	r7,r5
   4154c:	200d883a 	mov	r6,r4
   41550:	180b883a 	mov	r5,r3
   41554:	1009883a 	mov	r4,r2
   41558:	00408f40 	call	408f4 <http_response_send>
   4155c:	003f0506 	br	41174 <esp8266_listen+0x158>
   41560:	e0bffa17 	ldw	r2,-24(fp)
   41564:	1004913a 	slli	r2,r2,4
   41568:	10bffe04 	addi	r2,r2,-8
   4156c:	1705883a 	add	r2,r2,fp
   41570:	10bc6817 	ldw	r2,-3680(r2)
   41574:	014001b4 	movhi	r5,6
   41578:	29748704 	addi	r5,r5,-11748
   4157c:	1009883a 	mov	r4,r2
   41580:	00443b00 	call	443b0 <strcmp>
   41584:	10000d1e 	bne	r2,zero,415bc <esp8266_listen+0x5a0>
   41588:	e0bffa17 	ldw	r2,-24(fp)
   4158c:	e0fc6504 	addi	r3,fp,-3692
   41590:	1004913a 	slli	r2,r2,4
   41594:	1885883a 	add	r2,r3,r2
   41598:	d0e00517 	ldw	r3,-32748(gp)
   4159c:	d1200317 	ldw	r4,-32756(gp)
   415a0:	200f883a 	mov	r7,r4
   415a4:	018001b4 	movhi	r6,6
   415a8:	31b7a204 	addi	r6,r6,-8568
   415ac:	180b883a 	mov	r5,r3
   415b0:	1009883a 	mov	r4,r2
   415b4:	00408f40 	call	408f4 <http_response_send>
   415b8:	003eee06 	br	41174 <esp8266_listen+0x158>
   415bc:	e0bffa17 	ldw	r2,-24(fp)
   415c0:	1004913a 	slli	r2,r2,4
   415c4:	10bffe04 	addi	r2,r2,-8
   415c8:	1705883a 	add	r2,r2,fp
   415cc:	10bc6817 	ldw	r2,-3680(r2)
   415d0:	014001b4 	movhi	r5,6
   415d4:	29748b04 	addi	r5,r5,-11732
   415d8:	1009883a 	mov	r4,r2
   415dc:	00443b00 	call	443b0 <strcmp>
   415e0:	10002c1e 	bne	r2,zero,41694 <esp8266_listen+0x678>
   415e4:	e0fc7504 	addi	r3,fp,-3628
   415e8:	e0bd6f04 	addi	r2,fp,-2628
   415ec:	180b883a 	mov	r5,r3
   415f0:	1009883a 	mov	r4,r2
   415f4:	00444680 	call	44468 <strcpy>
   415f8:	e0bd6f04 	addi	r2,fp,-2628
   415fc:	1009883a 	mov	r4,r2
   41600:	00444f40 	call	444f4 <strlen>
   41604:	1007883a 	mov	r3,r2
   41608:	e0bd6f04 	addi	r2,fp,-2628
   4160c:	10c5883a 	add	r2,r2,r3
   41610:	00c00f04 	movi	r3,60
   41614:	10c00005 	stb	r3,0(r2)
   41618:	00c00bc4 	movi	r3,47
   4161c:	10c00045 	stb	r3,1(r2)
   41620:	00c01d04 	movi	r3,116
   41624:	10c00085 	stb	r3,2(r2)
   41628:	00c01844 	movi	r3,97
   4162c:	10c000c5 	stb	r3,3(r2)
   41630:	00c01884 	movi	r3,98
   41634:	10c00105 	stb	r3,4(r2)
   41638:	00c01b04 	movi	r3,108
   4163c:	10c00145 	stb	r3,5(r2)
   41640:	00c01944 	movi	r3,101
   41644:	10c00185 	stb	r3,6(r2)
   41648:	00c00f84 	movi	r3,62
   4164c:	10c001c5 	stb	r3,7(r2)
   41650:	10000205 	stb	zero,8(r2)
   41654:	e0bffa17 	ldw	r2,-24(fp)
   41658:	e0fc6504 	addi	r3,fp,-3692
   4165c:	1004913a 	slli	r2,r2,4
   41660:	18a1883a 	add	r16,r3,r2
   41664:	d4600417 	ldw	r17,-32752(gp)
   41668:	e0bd6f04 	addi	r2,fp,-2628
   4166c:	1009883a 	mov	r4,r2
   41670:	00444f40 	call	444f4 <strlen>
   41674:	1007883a 	mov	r3,r2
   41678:	e0bd6f04 	addi	r2,fp,-2628
   4167c:	180f883a 	mov	r7,r3
   41680:	100d883a 	mov	r6,r2
   41684:	880b883a 	mov	r5,r17
   41688:	8009883a 	mov	r4,r16
   4168c:	00408f40 	call	408f4 <http_response_send>
   41690:	003eb806 	br	41174 <esp8266_listen+0x158>
   41694:	e0bffa17 	ldw	r2,-24(fp)
   41698:	1004913a 	slli	r2,r2,4
   4169c:	10bffe04 	addi	r2,r2,-8
   416a0:	1705883a 	add	r2,r2,fp
   416a4:	10bc6817 	ldw	r2,-3680(r2)
   416a8:	014001b4 	movhi	r5,6
   416ac:	29748f04 	addi	r5,r5,-11716
   416b0:	1009883a 	mov	r4,r2
   416b4:	00449840 	call	44984 <strstr>
   416b8:	1007883a 	mov	r3,r2
   416bc:	e0bffa17 	ldw	r2,-24(fp)
   416c0:	1004913a 	slli	r2,r2,4
   416c4:	10bffe04 	addi	r2,r2,-8
   416c8:	1705883a 	add	r2,r2,fp
   416cc:	10bc6817 	ldw	r2,-3680(r2)
   416d0:	1880071e 	bne	r3,r2,416f0 <esp8266_listen+0x6d4>
   416d4:	e0bffa17 	ldw	r2,-24(fp)
   416d8:	e0fc6504 	addi	r3,fp,-3692
   416dc:	1004913a 	slli	r2,r2,4
   416e0:	1885883a 	add	r2,r3,r2
   416e4:	1009883a 	mov	r4,r2
   416e8:	0040ad40 	call	40ad4 <led_response>
   416ec:	003ea106 	br	41174 <esp8266_listen+0x158>
   416f0:	e0bffa17 	ldw	r2,-24(fp)
   416f4:	e0fc6504 	addi	r3,fp,-3692
   416f8:	1004913a 	slli	r2,r2,4
   416fc:	1885883a 	add	r2,r3,r2
   41700:	d0e00a17 	ldw	r3,-32728(gp)
   41704:	d1200217 	ldw	r4,-32760(gp)
   41708:	200f883a 	mov	r7,r4
   4170c:	018001b4 	movhi	r6,6
   41710:	31b77e04 	addi	r6,r6,-8712
   41714:	180b883a 	mov	r5,r3
   41718:	1009883a 	mov	r4,r2
   4171c:	00408f40 	call	408f4 <http_response_send>
   41720:	003e9406 	br	41174 <esp8266_listen+0x158>

00041724 <main>:
   41724:	defffe04 	addi	sp,sp,-8
   41728:	dfc00115 	stw	ra,4(sp)
   4172c:	df000015 	stw	fp,0(sp)
   41730:	d839883a 	mov	fp,sp
   41734:	010001b4 	movhi	r4,6
   41738:	21349104 	addi	r4,r4,-11708
   4173c:	0043b980 	call	43b98 <puts>
   41740:	01000044 	movi	r4,1
   41744:	004032c0 	call	4032c <esp8266_init>
   41748:	004101c0 	call	4101c <esp8266_listen>
   4174c:	0005883a 	mov	r2,zero
   41750:	e037883a 	mov	sp,fp
   41754:	dfc00117 	ldw	ra,4(sp)
   41758:	df000017 	ldw	fp,0(sp)
   4175c:	dec00204 	addi	sp,sp,8
   41760:	f800283a 	ret

00041764 <__fixsfsi>:
   41764:	200ad5fa 	srli	r5,r4,23
   41768:	00c02034 	movhi	r3,128
   4176c:	18ffffc4 	addi	r3,r3,-1
   41770:	29403fcc 	andi	r5,r5,255
   41774:	29801fd0 	cmplti	r6,r5,127
   41778:	200ed7fa 	srli	r7,r4,31
   4177c:	1906703a 	and	r3,r3,r4
   41780:	3000061e 	bne	r6,zero,4179c <__fixsfsi+0x38>
   41784:	28802790 	cmplti	r2,r5,158
   41788:	1000061e 	bne	r2,zero,417a4 <__fixsfsi+0x40>
   4178c:	00a00034 	movhi	r2,32768
   41790:	10bfffc4 	addi	r2,r2,-1
   41794:	3885883a 	add	r2,r7,r2
   41798:	f800283a 	ret
   4179c:	0005883a 	mov	r2,zero
   417a0:	f800283a 	ret
   417a4:	28802590 	cmplti	r2,r5,150
   417a8:	18c02034 	orhi	r3,r3,128
   417ac:	1000051e 	bne	r2,zero,417c4 <__fixsfsi+0x60>
   417b0:	28bfda84 	addi	r2,r5,-150
   417b4:	1884983a 	sll	r2,r3,r2
   417b8:	383ff926 	beq	r7,zero,417a0 <__fixsfsi+0x3c>
   417bc:	0085c83a 	sub	r2,zero,r2
   417c0:	f800283a 	ret
   417c4:	00802584 	movi	r2,150
   417c8:	1145c83a 	sub	r2,r2,r5
   417cc:	1884d83a 	srl	r2,r3,r2
   417d0:	003ff906 	br	417b8 <__fixsfsi+0x54>

000417d4 <__sflush_r>:
   417d4:	2880030b 	ldhu	r2,12(r5)
   417d8:	defffb04 	addi	sp,sp,-20
   417dc:	dcc00315 	stw	r19,12(sp)
   417e0:	dc000015 	stw	r16,0(sp)
   417e4:	dfc00415 	stw	ra,16(sp)
   417e8:	dc800215 	stw	r18,8(sp)
   417ec:	dc400115 	stw	r17,4(sp)
   417f0:	10c0020c 	andi	r3,r2,8
   417f4:	2821883a 	mov	r16,r5
   417f8:	2027883a 	mov	r19,r4
   417fc:	18003f1e 	bne	r3,zero,418fc <__sflush_r+0x128>
   41800:	28c00117 	ldw	r3,4(r5)
   41804:	10820014 	ori	r2,r2,2048
   41808:	2880030d 	sth	r2,12(r5)
   4180c:	00c0550e 	bge	zero,r3,41964 <__sflush_r+0x190>
   41810:	82000a17 	ldw	r8,40(r16)
   41814:	40003126 	beq	r8,zero,418dc <__sflush_r+0x108>
   41818:	9c400017 	ldw	r17,0(r19)
   4181c:	1104000c 	andi	r4,r2,4096
   41820:	98000015 	stw	zero,0(r19)
   41824:	1007883a 	mov	r3,r2
   41828:	2000531e 	bne	r4,zero,41978 <__sflush_r+0x1a4>
   4182c:	81400717 	ldw	r5,28(r16)
   41830:	01c00044 	movi	r7,1
   41834:	000d883a 	mov	r6,zero
   41838:	9809883a 	mov	r4,r19
   4183c:	403ee83a 	callr	r8
   41840:	10ffffd8 	cmpnei	r3,r2,-1
   41844:	18005826 	beq	r3,zero,419a8 <__sflush_r+0x1d4>
   41848:	80c0030b 	ldhu	r3,12(r16)
   4184c:	82000a17 	ldw	r8,40(r16)
   41850:	18c0010c 	andi	r3,r3,4
   41854:	18000626 	beq	r3,zero,41870 <__sflush_r+0x9c>
   41858:	81000117 	ldw	r4,4(r16)
   4185c:	80c00c17 	ldw	r3,48(r16)
   41860:	1105c83a 	sub	r2,r2,r4
   41864:	18000226 	beq	r3,zero,41870 <__sflush_r+0x9c>
   41868:	80c00f17 	ldw	r3,60(r16)
   4186c:	10c5c83a 	sub	r2,r2,r3
   41870:	81400717 	ldw	r5,28(r16)
   41874:	100d883a 	mov	r6,r2
   41878:	000f883a 	mov	r7,zero
   4187c:	9809883a 	mov	r4,r19
   41880:	403ee83a 	callr	r8
   41884:	10ffffd8 	cmpnei	r3,r2,-1
   41888:	18003d1e 	bne	r3,zero,41980 <__sflush_r+0x1ac>
   4188c:	99000017 	ldw	r4,0(r19)
   41890:	80c0030b 	ldhu	r3,12(r16)
   41894:	20004e26 	beq	r4,zero,419d0 <__sflush_r+0x1fc>
   41898:	21400760 	cmpeqi	r5,r4,29
   4189c:	2800021e 	bne	r5,zero,418a8 <__sflush_r+0xd4>
   418a0:	210005a0 	cmpeqi	r4,r4,22
   418a4:	20002c26 	beq	r4,zero,41958 <__sflush_r+0x184>
   418a8:	80800417 	ldw	r2,16(r16)
   418ac:	18fdffcc 	andi	r3,r3,63487
   418b0:	80c0030d 	sth	r3,12(r16)
   418b4:	80000115 	stw	zero,4(r16)
   418b8:	80800015 	stw	r2,0(r16)
   418bc:	81400c17 	ldw	r5,48(r16)
   418c0:	9c400015 	stw	r17,0(r19)
   418c4:	28000526 	beq	r5,zero,418dc <__sflush_r+0x108>
   418c8:	80801004 	addi	r2,r16,64
   418cc:	28800226 	beq	r5,r2,418d8 <__sflush_r+0x104>
   418d0:	9809883a 	mov	r4,r19
   418d4:	00423cc0 	call	423cc <_free_r>
   418d8:	80000c15 	stw	zero,48(r16)
   418dc:	0005883a 	mov	r2,zero
   418e0:	dfc00417 	ldw	ra,16(sp)
   418e4:	dcc00317 	ldw	r19,12(sp)
   418e8:	dc800217 	ldw	r18,8(sp)
   418ec:	dc400117 	ldw	r17,4(sp)
   418f0:	dc000017 	ldw	r16,0(sp)
   418f4:	dec00504 	addi	sp,sp,20
   418f8:	f800283a 	ret
   418fc:	2c800417 	ldw	r18,16(r5)
   41900:	903ff626 	beq	r18,zero,418dc <__sflush_r+0x108>
   41904:	2c400017 	ldw	r17,0(r5)
   41908:	108000cc 	andi	r2,r2,3
   4190c:	2c800015 	stw	r18,0(r5)
   41910:	8ca3c83a 	sub	r17,r17,r18
   41914:	1000161e 	bne	r2,zero,41970 <__sflush_r+0x19c>
   41918:	28800517 	ldw	r2,20(r5)
   4191c:	80800215 	stw	r2,8(r16)
   41920:	04400316 	blt	zero,r17,41930 <__sflush_r+0x15c>
   41924:	003fed06 	br	418dc <__sflush_r+0x108>
   41928:	90a5883a 	add	r18,r18,r2
   4192c:	047feb0e 	bge	zero,r17,418dc <__sflush_r+0x108>
   41930:	80800917 	ldw	r2,36(r16)
   41934:	81400717 	ldw	r5,28(r16)
   41938:	880f883a 	mov	r7,r17
   4193c:	900d883a 	mov	r6,r18
   41940:	9809883a 	mov	r4,r19
   41944:	103ee83a 	callr	r2
   41948:	88a3c83a 	sub	r17,r17,r2
   4194c:	00bff616 	blt	zero,r2,41928 <__sflush_r+0x154>
   41950:	80c0030b 	ldhu	r3,12(r16)
   41954:	00bfffc4 	movi	r2,-1
   41958:	18c01014 	ori	r3,r3,64
   4195c:	80c0030d 	sth	r3,12(r16)
   41960:	003fdf06 	br	418e0 <__sflush_r+0x10c>
   41964:	28c00f17 	ldw	r3,60(r5)
   41968:	00ffa916 	blt	zero,r3,41810 <__sflush_r+0x3c>
   4196c:	003fdb06 	br	418dc <__sflush_r+0x108>
   41970:	0005883a 	mov	r2,zero
   41974:	003fe906 	br	4191c <__sflush_r+0x148>
   41978:	80801417 	ldw	r2,80(r16)
   4197c:	003fb406 	br	41850 <__sflush_r+0x7c>
   41980:	80c0030b 	ldhu	r3,12(r16)
   41984:	81000417 	ldw	r4,16(r16)
   41988:	80000115 	stw	zero,4(r16)
   4198c:	197dffcc 	andi	r5,r3,63487
   41990:	8140030d 	sth	r5,12(r16)
   41994:	81000015 	stw	r4,0(r16)
   41998:	18c4000c 	andi	r3,r3,4096
   4199c:	183fc726 	beq	r3,zero,418bc <__sflush_r+0xe8>
   419a0:	80801415 	stw	r2,80(r16)
   419a4:	003fc506 	br	418bc <__sflush_r+0xe8>
   419a8:	98c00017 	ldw	r3,0(r19)
   419ac:	183fa626 	beq	r3,zero,41848 <__sflush_r+0x74>
   419b0:	19000760 	cmpeqi	r4,r3,29
   419b4:	20000e1e 	bne	r4,zero,419f0 <__sflush_r+0x21c>
   419b8:	18c00598 	cmpnei	r3,r3,22
   419bc:	18000c26 	beq	r3,zero,419f0 <__sflush_r+0x21c>
   419c0:	80c0030b 	ldhu	r3,12(r16)
   419c4:	18c01014 	ori	r3,r3,64
   419c8:	80c0030d 	sth	r3,12(r16)
   419cc:	003fc406 	br	418e0 <__sflush_r+0x10c>
   419d0:	81000417 	ldw	r4,16(r16)
   419d4:	197dffcc 	andi	r5,r3,63487
   419d8:	8140030d 	sth	r5,12(r16)
   419dc:	80000115 	stw	zero,4(r16)
   419e0:	81000015 	stw	r4,0(r16)
   419e4:	18c4000c 	andi	r3,r3,4096
   419e8:	183fb426 	beq	r3,zero,418bc <__sflush_r+0xe8>
   419ec:	003fec06 	br	419a0 <__sflush_r+0x1cc>
   419f0:	9c400015 	stw	r17,0(r19)
   419f4:	0005883a 	mov	r2,zero
   419f8:	003fb906 	br	418e0 <__sflush_r+0x10c>

000419fc <_fflush_r>:
   419fc:	defffd04 	addi	sp,sp,-12
   41a00:	dc000115 	stw	r16,4(sp)
   41a04:	dfc00215 	stw	ra,8(sp)
   41a08:	2021883a 	mov	r16,r4
   41a0c:	20000226 	beq	r4,zero,41a18 <_fflush_r+0x1c>
   41a10:	20800e17 	ldw	r2,56(r4)
   41a14:	10000726 	beq	r2,zero,41a34 <_fflush_r+0x38>
   41a18:	2880030f 	ldh	r2,12(r5)
   41a1c:	10000a1e 	bne	r2,zero,41a48 <_fflush_r+0x4c>
   41a20:	0005883a 	mov	r2,zero
   41a24:	dfc00217 	ldw	ra,8(sp)
   41a28:	dc000117 	ldw	r16,4(sp)
   41a2c:	dec00304 	addi	sp,sp,12
   41a30:	f800283a 	ret
   41a34:	d9400015 	stw	r5,0(sp)
   41a38:	00421140 	call	42114 <__sinit>
   41a3c:	d9400017 	ldw	r5,0(sp)
   41a40:	2880030f 	ldh	r2,12(r5)
   41a44:	103ff626 	beq	r2,zero,41a20 <_fflush_r+0x24>
   41a48:	8009883a 	mov	r4,r16
   41a4c:	dfc00217 	ldw	ra,8(sp)
   41a50:	dc000117 	ldw	r16,4(sp)
   41a54:	dec00304 	addi	sp,sp,12
   41a58:	00417d41 	jmpi	417d4 <__sflush_r>

00041a5c <fflush>:
   41a5c:	20001726 	beq	r4,zero,41abc <fflush+0x60>
   41a60:	008001b4 	movhi	r2,6
   41a64:	200b883a 	mov	r5,r4
   41a68:	113fa217 	ldw	r4,-376(r2)
   41a6c:	20000226 	beq	r4,zero,41a78 <fflush+0x1c>
   41a70:	20800e17 	ldw	r2,56(r4)
   41a74:	10000526 	beq	r2,zero,41a8c <fflush+0x30>
   41a78:	2880030f 	ldh	r2,12(r5)
   41a7c:	1000021e 	bne	r2,zero,41a88 <fflush+0x2c>
   41a80:	0005883a 	mov	r2,zero
   41a84:	f800283a 	ret
   41a88:	00417d41 	jmpi	417d4 <__sflush_r>
   41a8c:	defffd04 	addi	sp,sp,-12
   41a90:	d9400115 	stw	r5,4(sp)
   41a94:	d9000015 	stw	r4,0(sp)
   41a98:	dfc00215 	stw	ra,8(sp)
   41a9c:	00421140 	call	42114 <__sinit>
   41aa0:	d9400117 	ldw	r5,4(sp)
   41aa4:	d9000017 	ldw	r4,0(sp)
   41aa8:	2880030f 	ldh	r2,12(r5)
   41aac:	10000826 	beq	r2,zero,41ad0 <fflush+0x74>
   41ab0:	dfc00217 	ldw	ra,8(sp)
   41ab4:	dec00304 	addi	sp,sp,12
   41ab8:	00417d41 	jmpi	417d4 <__sflush_r>
   41abc:	008001b4 	movhi	r2,6
   41ac0:	113fa117 	ldw	r4,-380(r2)
   41ac4:	01400134 	movhi	r5,4
   41ac8:	29467f04 	addi	r5,r5,6652
   41acc:	0042c501 	jmpi	42c50 <_fwalk_reent>
   41ad0:	0005883a 	mov	r2,zero
   41ad4:	dfc00217 	ldw	ra,8(sp)
   41ad8:	dec00304 	addi	sp,sp,12
   41adc:	f800283a 	ret

00041ae0 <_fgetc_r>:
   41ae0:	defffd04 	addi	sp,sp,-12
   41ae4:	dc000115 	stw	r16,4(sp)
   41ae8:	dfc00215 	stw	ra,8(sp)
   41aec:	2021883a 	mov	r16,r4
   41af0:	20000226 	beq	r4,zero,41afc <_fgetc_r+0x1c>
   41af4:	20800e17 	ldw	r2,56(r4)
   41af8:	10000c26 	beq	r2,zero,41b2c <_fgetc_r+0x4c>
   41afc:	28800117 	ldw	r2,4(r5)
   41b00:	10bfffc4 	addi	r2,r2,-1
   41b04:	28800115 	stw	r2,4(r5)
   41b08:	10000f16 	blt	r2,zero,41b48 <_fgetc_r+0x68>
   41b0c:	28800017 	ldw	r2,0(r5)
   41b10:	10c00044 	addi	r3,r2,1
   41b14:	28c00015 	stw	r3,0(r5)
   41b18:	10800003 	ldbu	r2,0(r2)
   41b1c:	dfc00217 	ldw	ra,8(sp)
   41b20:	dc000117 	ldw	r16,4(sp)
   41b24:	dec00304 	addi	sp,sp,12
   41b28:	f800283a 	ret
   41b2c:	d9400015 	stw	r5,0(sp)
   41b30:	00421140 	call	42114 <__sinit>
   41b34:	d9400017 	ldw	r5,0(sp)
   41b38:	28800117 	ldw	r2,4(r5)
   41b3c:	10bfffc4 	addi	r2,r2,-1
   41b40:	28800115 	stw	r2,4(r5)
   41b44:	103ff10e 	bge	r2,zero,41b0c <_fgetc_r+0x2c>
   41b48:	8009883a 	mov	r4,r16
   41b4c:	dfc00217 	ldw	ra,8(sp)
   41b50:	dc000117 	ldw	r16,4(sp)
   41b54:	dec00304 	addi	sp,sp,12
   41b58:	0043d901 	jmpi	43d90 <__srget_r>

00041b5c <fgetc>:
   41b5c:	defffd04 	addi	sp,sp,-12
   41b60:	008001b4 	movhi	r2,6
   41b64:	dc400115 	stw	r17,4(sp)
   41b68:	147fa217 	ldw	r17,-376(r2)
   41b6c:	dc000015 	stw	r16,0(sp)
   41b70:	dfc00215 	stw	ra,8(sp)
   41b74:	2021883a 	mov	r16,r4
   41b78:	88000226 	beq	r17,zero,41b84 <fgetc+0x28>
   41b7c:	88800e17 	ldw	r2,56(r17)
   41b80:	10000d26 	beq	r2,zero,41bb8 <fgetc+0x5c>
   41b84:	80800117 	ldw	r2,4(r16)
   41b88:	10bfffc4 	addi	r2,r2,-1
   41b8c:	80800115 	stw	r2,4(r16)
   41b90:	10000f16 	blt	r2,zero,41bd0 <fgetc+0x74>
   41b94:	80800017 	ldw	r2,0(r16)
   41b98:	10c00044 	addi	r3,r2,1
   41b9c:	80c00015 	stw	r3,0(r16)
   41ba0:	10800003 	ldbu	r2,0(r2)
   41ba4:	dfc00217 	ldw	ra,8(sp)
   41ba8:	dc400117 	ldw	r17,4(sp)
   41bac:	dc000017 	ldw	r16,0(sp)
   41bb0:	dec00304 	addi	sp,sp,12
   41bb4:	f800283a 	ret
   41bb8:	8809883a 	mov	r4,r17
   41bbc:	00421140 	call	42114 <__sinit>
   41bc0:	80800117 	ldw	r2,4(r16)
   41bc4:	10bfffc4 	addi	r2,r2,-1
   41bc8:	80800115 	stw	r2,4(r16)
   41bcc:	103ff10e 	bge	r2,zero,41b94 <fgetc+0x38>
   41bd0:	800b883a 	mov	r5,r16
   41bd4:	8809883a 	mov	r4,r17
   41bd8:	dfc00217 	ldw	ra,8(sp)
   41bdc:	dc400117 	ldw	r17,4(sp)
   41be0:	dc000017 	ldw	r16,0(sp)
   41be4:	dec00304 	addi	sp,sp,12
   41be8:	0043d901 	jmpi	43d90 <__srget_r>

00041bec <_fgets_r>:
   41bec:	30c00088 	cmpgei	r3,r6,2
   41bf0:	18005126 	beq	r3,zero,41d38 <_fgets_r+0x14c>
   41bf4:	defff504 	addi	sp,sp,-44
   41bf8:	dd800715 	stw	r22,28(sp)
   41bfc:	dd400615 	stw	r21,24(sp)
   41c00:	dcc00415 	stw	r19,16(sp)
   41c04:	dfc00a15 	stw	ra,40(sp)
   41c08:	df000915 	stw	fp,36(sp)
   41c0c:	ddc00815 	stw	r23,32(sp)
   41c10:	dd000515 	stw	r20,20(sp)
   41c14:	dc800315 	stw	r18,12(sp)
   41c18:	dc400215 	stw	r17,8(sp)
   41c1c:	dc000115 	stw	r16,4(sp)
   41c20:	202d883a 	mov	r22,r4
   41c24:	282b883a 	mov	r21,r5
   41c28:	3827883a 	mov	r19,r7
   41c2c:	20000226 	beq	r4,zero,41c38 <_fgets_r+0x4c>
   41c30:	20800e17 	ldw	r2,56(r4)
   41c34:	10002026 	beq	r2,zero,41cb8 <_fgets_r+0xcc>
   41c38:	9f000117 	ldw	fp,4(r19)
   41c3c:	347fffc4 	addi	r17,r6,-1
   41c40:	a829883a 	mov	r20,r21
   41c44:	00001406 	br	41c98 <_fgets_r+0xac>
   41c48:	9dc00017 	ldw	r23,0(r19)
   41c4c:	01400284 	movi	r5,10
   41c50:	8821883a 	mov	r16,r17
   41c54:	9440012e 	bgeu	r18,r17,41c5c <_fgets_r+0x70>
   41c58:	9021883a 	mov	r16,r18
   41c5c:	800d883a 	mov	r6,r16
   41c60:	b809883a 	mov	r4,r23
   41c64:	00437400 	call	43740 <memchr>
   41c68:	9439c83a 	sub	fp,r18,r16
   41c6c:	bc07883a 	add	r3,r23,r16
   41c70:	a009883a 	mov	r4,r20
   41c74:	800d883a 	mov	r6,r16
   41c78:	b80b883a 	mov	r5,r23
   41c7c:	8c23c83a 	sub	r17,r17,r16
   41c80:	1000201e 	bne	r2,zero,41d04 <_fgets_r+0x118>
   41c84:	9f000115 	stw	fp,4(r19)
   41c88:	98c00015 	stw	r3,0(r19)
   41c8c:	00438100 	call	43810 <memcpy>
   41c90:	a429883a 	add	r20,r20,r16
   41c94:	88000d26 	beq	r17,zero,41ccc <_fgets_r+0xe0>
   41c98:	e025883a 	mov	r18,fp
   41c9c:	e03fea1e 	bne	fp,zero,41c48 <_fgets_r+0x5c>
   41ca0:	980b883a 	mov	r5,r19
   41ca4:	b009883a 	mov	r4,r22
   41ca8:	0043bc40 	call	43bc4 <__srefill_r>
   41cac:	1000061e 	bne	r2,zero,41cc8 <_fgets_r+0xdc>
   41cb0:	9c800117 	ldw	r18,4(r19)
   41cb4:	003fe406 	br	41c48 <_fgets_r+0x5c>
   41cb8:	d9800015 	stw	r6,0(sp)
   41cbc:	00421140 	call	42114 <__sinit>
   41cc0:	d9800017 	ldw	r6,0(sp)
   41cc4:	003fdc06 	br	41c38 <_fgets_r+0x4c>
   41cc8:	a5401926 	beq	r20,r21,41d30 <_fgets_r+0x144>
   41ccc:	a0000005 	stb	zero,0(r20)
   41cd0:	a805883a 	mov	r2,r21
   41cd4:	dfc00a17 	ldw	ra,40(sp)
   41cd8:	df000917 	ldw	fp,36(sp)
   41cdc:	ddc00817 	ldw	r23,32(sp)
   41ce0:	dd800717 	ldw	r22,28(sp)
   41ce4:	dd400617 	ldw	r21,24(sp)
   41ce8:	dd000517 	ldw	r20,20(sp)
   41cec:	dcc00417 	ldw	r19,16(sp)
   41cf0:	dc800317 	ldw	r18,12(sp)
   41cf4:	dc400217 	ldw	r17,8(sp)
   41cf8:	dc000117 	ldw	r16,4(sp)
   41cfc:	dec00b04 	addi	sp,sp,44
   41d00:	f800283a 	ret
   41d04:	10800044 	addi	r2,r2,1
   41d08:	15e1c83a 	sub	r16,r2,r23
   41d0c:	9425c83a 	sub	r18,r18,r16
   41d10:	800d883a 	mov	r6,r16
   41d14:	9c800115 	stw	r18,4(r19)
   41d18:	98800015 	stw	r2,0(r19)
   41d1c:	00438100 	call	43810 <memcpy>
   41d20:	a421883a 	add	r16,r20,r16
   41d24:	80000005 	stb	zero,0(r16)
   41d28:	a805883a 	mov	r2,r21
   41d2c:	003fe906 	br	41cd4 <_fgets_r+0xe8>
   41d30:	0005883a 	mov	r2,zero
   41d34:	003fe706 	br	41cd4 <_fgets_r+0xe8>
   41d38:	0005883a 	mov	r2,zero
   41d3c:	f800283a 	ret

00041d40 <fgets>:
   41d40:	00c001b4 	movhi	r3,6
   41d44:	2005883a 	mov	r2,r4
   41d48:	193fa217 	ldw	r4,-376(r3)
   41d4c:	300f883a 	mov	r7,r6
   41d50:	280d883a 	mov	r6,r5
   41d54:	100b883a 	mov	r5,r2
   41d58:	0041bec1 	jmpi	41bec <_fgets_r>

00041d5c <fileno>:
   41d5c:	008001b4 	movhi	r2,6
   41d60:	10bfa217 	ldw	r2,-376(r2)
   41d64:	defffe04 	addi	sp,sp,-8
   41d68:	dc000015 	stw	r16,0(sp)
   41d6c:	dfc00115 	stw	ra,4(sp)
   41d70:	2021883a 	mov	r16,r4
   41d74:	10000226 	beq	r2,zero,41d80 <fileno+0x24>
   41d78:	10c00e17 	ldw	r3,56(r2)
   41d7c:	18000726 	beq	r3,zero,41d9c <fileno+0x40>
   41d80:	8080030f 	ldh	r2,12(r16)
   41d84:	10000826 	beq	r2,zero,41da8 <fileno+0x4c>
   41d88:	8080038f 	ldh	r2,14(r16)
   41d8c:	dfc00117 	ldw	ra,4(sp)
   41d90:	dc000017 	ldw	r16,0(sp)
   41d94:	dec00204 	addi	sp,sp,8
   41d98:	f800283a 	ret
   41d9c:	1009883a 	mov	r4,r2
   41da0:	00421140 	call	42114 <__sinit>
   41da4:	003ff606 	br	41d80 <fileno+0x24>
   41da8:	008001b4 	movhi	r2,6
   41dac:	10ffa217 	ldw	r3,-376(r2)
   41db0:	01000244 	movi	r4,9
   41db4:	00bfffc4 	movi	r2,-1
   41db8:	19000015 	stw	r4,0(r3)
   41dbc:	003ff306 	br	41d8c <fileno+0x30>

00041dc0 <__fp_lock>:
   41dc0:	0005883a 	mov	r2,zero
   41dc4:	f800283a 	ret

00041dc8 <_cleanup_r>:
   41dc8:	01400174 	movhi	r5,5
   41dcc:	29705a04 	addi	r5,r5,-16024
   41dd0:	0042c501 	jmpi	42c50 <_fwalk_reent>

00041dd4 <__fp_unlock>:
   41dd4:	0005883a 	mov	r2,zero
   41dd8:	f800283a 	ret

00041ddc <__sinit.part.0>:
   41ddc:	00c00134 	movhi	r3,4
   41de0:	20800117 	ldw	r2,4(r4)
   41de4:	18c77204 	addi	r3,r3,7624
   41de8:	20c00f15 	stw	r3,60(r4)
   41dec:	2140bb04 	addi	r5,r4,748
   41df0:	00c000c4 	movi	r3,3
   41df4:	20c0b915 	stw	r3,740(r4)
   41df8:	2140ba15 	stw	r5,744(r4)
   41dfc:	2000b815 	stw	zero,736(r4)
   41e00:	10001705 	stb	zero,92(r2)
   41e04:	10001745 	stb	zero,93(r2)
   41e08:	10001785 	stb	zero,94(r2)
   41e0c:	100017c5 	stb	zero,95(r2)
   41e10:	10001805 	stb	zero,96(r2)
   41e14:	10001845 	stb	zero,97(r2)
   41e18:	10001885 	stb	zero,98(r2)
   41e1c:	100018c5 	stb	zero,99(r2)
   41e20:	00c00104 	movi	r3,4
   41e24:	10c00315 	stw	r3,12(r2)
   41e28:	02000134 	movhi	r8,4
   41e2c:	20c00217 	ldw	r3,8(r4)
   41e30:	01c00134 	movhi	r7,4
   41e34:	01800134 	movhi	r6,4
   41e38:	01400134 	movhi	r5,4
   41e3c:	42102204 	addi	r8,r8,16520
   41e40:	39d03904 	addi	r7,r7,16612
   41e44:	31905904 	addi	r6,r6,16740
   41e48:	29507004 	addi	r5,r5,16832
   41e4c:	02400074 	movhi	r9,1
   41e50:	10001915 	stw	zero,100(r2)
   41e54:	10000015 	stw	zero,0(r2)
   41e58:	10000115 	stw	zero,4(r2)
   41e5c:	10000215 	stw	zero,8(r2)
   41e60:	10000415 	stw	zero,16(r2)
   41e64:	10000515 	stw	zero,20(r2)
   41e68:	10000615 	stw	zero,24(r2)
   41e6c:	10800715 	stw	r2,28(r2)
   41e70:	12000815 	stw	r8,32(r2)
   41e74:	11c00915 	stw	r7,36(r2)
   41e78:	11800a15 	stw	r6,40(r2)
   41e7c:	11400b15 	stw	r5,44(r2)
   41e80:	4a400284 	addi	r9,r9,10
   41e84:	1a400315 	stw	r9,12(r3)
   41e88:	18001915 	stw	zero,100(r3)
   41e8c:	18000015 	stw	zero,0(r3)
   41e90:	18000115 	stw	zero,4(r3)
   41e94:	18000215 	stw	zero,8(r3)
   41e98:	18000415 	stw	zero,16(r3)
   41e9c:	18001705 	stb	zero,92(r3)
   41ea0:	18001745 	stb	zero,93(r3)
   41ea4:	18001785 	stb	zero,94(r3)
   41ea8:	180017c5 	stb	zero,95(r3)
   41eac:	18001805 	stb	zero,96(r3)
   41eb0:	18001845 	stb	zero,97(r3)
   41eb4:	18001885 	stb	zero,98(r3)
   41eb8:	180018c5 	stb	zero,99(r3)
   41ebc:	20800317 	ldw	r2,12(r4)
   41ec0:	024000b4 	movhi	r9,2
   41ec4:	18000515 	stw	zero,20(r3)
   41ec8:	18000615 	stw	zero,24(r3)
   41ecc:	18c00715 	stw	r3,28(r3)
   41ed0:	1a000815 	stw	r8,32(r3)
   41ed4:	19c00915 	stw	r7,36(r3)
   41ed8:	19800a15 	stw	r6,40(r3)
   41edc:	19400b15 	stw	r5,44(r3)
   41ee0:	4a400484 	addi	r9,r9,18
   41ee4:	10001915 	stw	zero,100(r2)
   41ee8:	10000015 	stw	zero,0(r2)
   41eec:	10000115 	stw	zero,4(r2)
   41ef0:	10000215 	stw	zero,8(r2)
   41ef4:	12400315 	stw	r9,12(r2)
   41ef8:	10000415 	stw	zero,16(r2)
   41efc:	10000515 	stw	zero,20(r2)
   41f00:	10000615 	stw	zero,24(r2)
   41f04:	10001705 	stb	zero,92(r2)
   41f08:	10001745 	stb	zero,93(r2)
   41f0c:	10001785 	stb	zero,94(r2)
   41f10:	100017c5 	stb	zero,95(r2)
   41f14:	10001805 	stb	zero,96(r2)
   41f18:	10001845 	stb	zero,97(r2)
   41f1c:	10001885 	stb	zero,98(r2)
   41f20:	100018c5 	stb	zero,99(r2)
   41f24:	10800715 	stw	r2,28(r2)
   41f28:	12000815 	stw	r8,32(r2)
   41f2c:	11c00915 	stw	r7,36(r2)
   41f30:	11800a15 	stw	r6,40(r2)
   41f34:	11400b15 	stw	r5,44(r2)
   41f38:	00800044 	movi	r2,1
   41f3c:	20800e15 	stw	r2,56(r4)
   41f40:	f800283a 	ret

00041f44 <__sfmoreglue>:
   41f44:	defffc04 	addi	sp,sp,-16
   41f48:	dc400115 	stw	r17,4(sp)
   41f4c:	2c7fffc4 	addi	r17,r5,-1
   41f50:	8c401a24 	muli	r17,r17,104
   41f54:	dc800215 	stw	r18,8(sp)
   41f58:	2825883a 	mov	r18,r5
   41f5c:	89401d04 	addi	r5,r17,116
   41f60:	dc000015 	stw	r16,0(sp)
   41f64:	dfc00315 	stw	ra,12(sp)
   41f68:	0042f600 	call	42f60 <_malloc_r>
   41f6c:	1021883a 	mov	r16,r2
   41f70:	10000726 	beq	r2,zero,41f90 <__sfmoreglue+0x4c>
   41f74:	11000304 	addi	r4,r2,12
   41f78:	10000015 	stw	zero,0(r2)
   41f7c:	14800115 	stw	r18,4(r2)
   41f80:	11000215 	stw	r4,8(r2)
   41f84:	89801a04 	addi	r6,r17,104
   41f88:	000b883a 	mov	r5,zero
   41f8c:	00439100 	call	43910 <memset>
   41f90:	8005883a 	mov	r2,r16
   41f94:	dfc00317 	ldw	ra,12(sp)
   41f98:	dc800217 	ldw	r18,8(sp)
   41f9c:	dc400117 	ldw	r17,4(sp)
   41fa0:	dc000017 	ldw	r16,0(sp)
   41fa4:	dec00404 	addi	sp,sp,16
   41fa8:	f800283a 	ret

00041fac <__sfp>:
   41fac:	defffb04 	addi	sp,sp,-20
   41fb0:	008001b4 	movhi	r2,6
   41fb4:	dc000015 	stw	r16,0(sp)
   41fb8:	143fa117 	ldw	r16,-380(r2)
   41fbc:	dc400115 	stw	r17,4(sp)
   41fc0:	dfc00415 	stw	ra,16(sp)
   41fc4:	80800e17 	ldw	r2,56(r16)
   41fc8:	dcc00315 	stw	r19,12(sp)
   41fcc:	dc800215 	stw	r18,8(sp)
   41fd0:	2023883a 	mov	r17,r4
   41fd4:	10003126 	beq	r2,zero,4209c <__sfp+0xf0>
   41fd8:	8100ba17 	ldw	r4,744(r16)
   41fdc:	8140b917 	ldw	r5,740(r16)
   41fe0:	04c00104 	movi	r19,4
   41fe4:	8400b804 	addi	r16,r16,736
   41fe8:	297fffc4 	addi	r5,r5,-1
   41fec:	2800050e 	bge	r5,zero,42004 <__sfp+0x58>
   41ff0:	00002406 	br	42084 <__sfp+0xd8>
   41ff4:	297fffc4 	addi	r5,r5,-1
   41ff8:	28bfffd8 	cmpnei	r2,r5,-1
   41ffc:	21001a04 	addi	r4,r4,104
   42000:	10002026 	beq	r2,zero,42084 <__sfp+0xd8>
   42004:	2080030f 	ldh	r2,12(r4)
   42008:	103ffa1e 	bne	r2,zero,41ff4 <__sfp+0x48>
   4200c:	00bffff4 	movhi	r2,65535
   42010:	10800044 	addi	r2,r2,1
   42014:	20001915 	stw	zero,100(r4)
   42018:	20000015 	stw	zero,0(r4)
   4201c:	20000115 	stw	zero,4(r4)
   42020:	20000215 	stw	zero,8(r4)
   42024:	20800315 	stw	r2,12(r4)
   42028:	20000415 	stw	zero,16(r4)
   4202c:	20000515 	stw	zero,20(r4)
   42030:	20000615 	stw	zero,24(r4)
   42034:	20001705 	stb	zero,92(r4)
   42038:	20001745 	stb	zero,93(r4)
   4203c:	20001785 	stb	zero,94(r4)
   42040:	200017c5 	stb	zero,95(r4)
   42044:	20001805 	stb	zero,96(r4)
   42048:	20001845 	stb	zero,97(r4)
   4204c:	20001885 	stb	zero,98(r4)
   42050:	200018c5 	stb	zero,99(r4)
   42054:	20000c15 	stw	zero,48(r4)
   42058:	20000d15 	stw	zero,52(r4)
   4205c:	20001115 	stw	zero,68(r4)
   42060:	20001215 	stw	zero,72(r4)
   42064:	2005883a 	mov	r2,r4
   42068:	dfc00417 	ldw	ra,16(sp)
   4206c:	dcc00317 	ldw	r19,12(sp)
   42070:	dc800217 	ldw	r18,8(sp)
   42074:	dc400117 	ldw	r17,4(sp)
   42078:	dc000017 	ldw	r16,0(sp)
   4207c:	dec00504 	addi	sp,sp,20
   42080:	f800283a 	ret
   42084:	80800017 	ldw	r2,0(r16)
   42088:	10000726 	beq	r2,zero,420a8 <__sfp+0xfc>
   4208c:	11000217 	ldw	r4,8(r2)
   42090:	11400117 	ldw	r5,4(r2)
   42094:	1021883a 	mov	r16,r2
   42098:	003fd306 	br	41fe8 <__sfp+0x3c>
   4209c:	8009883a 	mov	r4,r16
   420a0:	0041ddc0 	call	41ddc <__sinit.part.0>
   420a4:	003fcc06 	br	41fd8 <__sfp+0x2c>
   420a8:	01406b04 	movi	r5,428
   420ac:	8809883a 	mov	r4,r17
   420b0:	0042f600 	call	42f60 <_malloc_r>
   420b4:	1025883a 	mov	r18,r2
   420b8:	10000c26 	beq	r2,zero,420ec <__sfp+0x140>
   420bc:	11000304 	addi	r4,r2,12
   420c0:	11000215 	stw	r4,8(r2)
   420c4:	000b883a 	mov	r5,zero
   420c8:	10000015 	stw	zero,0(r2)
   420cc:	14c00115 	stw	r19,4(r2)
   420d0:	01806804 	movi	r6,416
   420d4:	00439100 	call	43910 <memset>
   420d8:	1009883a 	mov	r4,r2
   420dc:	84800015 	stw	r18,0(r16)
   420e0:	014000c4 	movi	r5,3
   420e4:	9021883a 	mov	r16,r18
   420e8:	003fc606 	br	42004 <__sfp+0x58>
   420ec:	80000015 	stw	zero,0(r16)
   420f0:	00800304 	movi	r2,12
   420f4:	88800015 	stw	r2,0(r17)
   420f8:	0009883a 	mov	r4,zero
   420fc:	003fd906 	br	42064 <__sfp+0xb8>

00042100 <_cleanup>:
   42100:	008001b4 	movhi	r2,6
   42104:	113fa117 	ldw	r4,-380(r2)
   42108:	01400174 	movhi	r5,5
   4210c:	29705a04 	addi	r5,r5,-16024
   42110:	0042c501 	jmpi	42c50 <_fwalk_reent>

00042114 <__sinit>:
   42114:	20800e17 	ldw	r2,56(r4)
   42118:	10000126 	beq	r2,zero,42120 <__sinit+0xc>
   4211c:	f800283a 	ret
   42120:	0041ddc1 	jmpi	41ddc <__sinit.part.0>

00042124 <__sfp_lock_acquire>:
   42124:	f800283a 	ret

00042128 <__sfp_lock_release>:
   42128:	f800283a 	ret

0004212c <__sinit_lock_acquire>:
   4212c:	f800283a 	ret

00042130 <__sinit_lock_release>:
   42130:	f800283a 	ret

00042134 <__fp_lock_all>:
   42134:	008001b4 	movhi	r2,6
   42138:	113fa217 	ldw	r4,-376(r2)
   4213c:	01400134 	movhi	r5,4
   42140:	29477004 	addi	r5,r5,7616
   42144:	0042bb81 	jmpi	42bb8 <_fwalk>

00042148 <__fp_unlock_all>:
   42148:	008001b4 	movhi	r2,6
   4214c:	113fa217 	ldw	r4,-376(r2)
   42150:	01400134 	movhi	r5,4
   42154:	29477504 	addi	r5,r5,7636
   42158:	0042bb81 	jmpi	42bb8 <_fwalk>

0004215c <_fopen_r>:
   4215c:	defffa04 	addi	sp,sp,-24
   42160:	3007883a 	mov	r3,r6
   42164:	dcc00415 	stw	r19,16(sp)
   42168:	d80d883a 	mov	r6,sp
   4216c:	2827883a 	mov	r19,r5
   42170:	180b883a 	mov	r5,r3
   42174:	dc800315 	stw	r18,12(sp)
   42178:	dfc00515 	stw	ra,20(sp)
   4217c:	dc400215 	stw	r17,8(sp)
   42180:	dc000115 	stw	r16,4(sp)
   42184:	2025883a 	mov	r18,r4
   42188:	004c2480 	call	4c248 <__sflags>
   4218c:	10002726 	beq	r2,zero,4222c <_fopen_r+0xd0>
   42190:	9009883a 	mov	r4,r18
   42194:	1023883a 	mov	r17,r2
   42198:	0041fac0 	call	41fac <__sfp>
   4219c:	1021883a 	mov	r16,r2
   421a0:	10002226 	beq	r2,zero,4222c <_fopen_r+0xd0>
   421a4:	d9800017 	ldw	r6,0(sp)
   421a8:	01c06d84 	movi	r7,438
   421ac:	980b883a 	mov	r5,r19
   421b0:	9009883a 	mov	r4,r18
   421b4:	0043a000 	call	43a00 <_open_r>
   421b8:	10001916 	blt	r2,zero,42220 <_fopen_r+0xc4>
   421bc:	01800134 	movhi	r6,4
   421c0:	01400134 	movhi	r5,4
   421c4:	01000134 	movhi	r4,4
   421c8:	00c00134 	movhi	r3,4
   421cc:	31902204 	addi	r6,r6,16520
   421d0:	29503904 	addi	r5,r5,16612
   421d4:	21105904 	addi	r4,r4,16740
   421d8:	18d07004 	addi	r3,r3,16832
   421dc:	8440030d 	sth	r17,12(r16)
   421e0:	8080038d 	sth	r2,14(r16)
   421e4:	84000715 	stw	r16,28(r16)
   421e8:	81800815 	stw	r6,32(r16)
   421ec:	81400915 	stw	r5,36(r16)
   421f0:	81000a15 	stw	r4,40(r16)
   421f4:	80c00b15 	stw	r3,44(r16)
   421f8:	8c40400c 	andi	r17,r17,256
   421fc:	88000d1e 	bne	r17,zero,42234 <_fopen_r+0xd8>
   42200:	8005883a 	mov	r2,r16
   42204:	dfc00517 	ldw	ra,20(sp)
   42208:	dcc00417 	ldw	r19,16(sp)
   4220c:	dc800317 	ldw	r18,12(sp)
   42210:	dc400217 	ldw	r17,8(sp)
   42214:	dc000117 	ldw	r16,4(sp)
   42218:	dec00604 	addi	sp,sp,24
   4221c:	f800283a 	ret
   42220:	00421240 	call	42124 <__sfp_lock_acquire>
   42224:	8000030d 	sth	zero,12(r16)
   42228:	00421280 	call	42128 <__sfp_lock_release>
   4222c:	0021883a 	mov	r16,zero
   42230:	003ff306 	br	42200 <_fopen_r+0xa4>
   42234:	01c00084 	movi	r7,2
   42238:	000d883a 	mov	r6,zero
   4223c:	800b883a 	mov	r5,r16
   42240:	9009883a 	mov	r4,r18
   42244:	00426c80 	call	426c8 <_fseek_r>
   42248:	003fed06 	br	42200 <_fopen_r+0xa4>

0004224c <fopen>:
   4224c:	00c001b4 	movhi	r3,6
   42250:	2005883a 	mov	r2,r4
   42254:	193fa217 	ldw	r4,-376(r3)
   42258:	280d883a 	mov	r6,r5
   4225c:	100b883a 	mov	r5,r2
   42260:	004215c1 	jmpi	4215c <_fopen_r>

00042264 <_fprintf_r>:
   42264:	defffe04 	addi	sp,sp,-8
   42268:	2809883a 	mov	r4,r5
   4226c:	300b883a 	mov	r5,r6
   42270:	dfc00015 	stw	ra,0(sp)
   42274:	d9c00115 	stw	r7,4(sp)
   42278:	d9800104 	addi	r6,sp,4
   4227c:	004a4680 	call	4a468 <__vfprintf_internal>
   42280:	dfc00017 	ldw	ra,0(sp)
   42284:	dec00204 	addi	sp,sp,8
   42288:	f800283a 	ret

0004228c <fprintf>:
   4228c:	defffd04 	addi	sp,sp,-12
   42290:	dfc00015 	stw	ra,0(sp)
   42294:	d9800115 	stw	r6,4(sp)
   42298:	d9c00215 	stw	r7,8(sp)
   4229c:	d9800104 	addi	r6,sp,4
   422a0:	004a4680 	call	4a468 <__vfprintf_internal>
   422a4:	dfc00017 	ldw	ra,0(sp)
   422a8:	dec00304 	addi	sp,sp,12
   422ac:	f800283a 	ret

000422b0 <_malloc_trim_r>:
   422b0:	defffb04 	addi	sp,sp,-20
   422b4:	dcc00315 	stw	r19,12(sp)
   422b8:	04c001b4 	movhi	r19,6
   422bc:	dc800215 	stw	r18,8(sp)
   422c0:	dc400115 	stw	r17,4(sp)
   422c4:	dc000015 	stw	r16,0(sp)
   422c8:	dfc00415 	stw	ra,16(sp)
   422cc:	2821883a 	mov	r16,r5
   422d0:	9cf98404 	addi	r19,r19,-6640
   422d4:	2025883a 	mov	r18,r4
   422d8:	005a1f80 	call	5a1f8 <__malloc_lock>
   422dc:	98800217 	ldw	r2,8(r19)
   422e0:	14400117 	ldw	r17,4(r2)
   422e4:	00bfff04 	movi	r2,-4
   422e8:	88a2703a 	and	r17,r17,r2
   422ec:	8c21c83a 	sub	r16,r17,r16
   422f0:	8403fbc4 	addi	r16,r16,4079
   422f4:	8020d33a 	srli	r16,r16,12
   422f8:	843fffc4 	addi	r16,r16,-1
   422fc:	8020933a 	slli	r16,r16,12
   42300:	80840008 	cmpgei	r2,r16,4096
   42304:	10000626 	beq	r2,zero,42320 <_malloc_trim_r+0x70>
   42308:	000b883a 	mov	r5,zero
   4230c:	9009883a 	mov	r4,r18
   42310:	0043e800 	call	43e80 <_sbrk_r>
   42314:	98c00217 	ldw	r3,8(r19)
   42318:	1c47883a 	add	r3,r3,r17
   4231c:	10c00a26 	beq	r2,r3,42348 <_malloc_trim_r+0x98>
   42320:	9009883a 	mov	r4,r18
   42324:	005a21c0 	call	5a21c <__malloc_unlock>
   42328:	0005883a 	mov	r2,zero
   4232c:	dfc00417 	ldw	ra,16(sp)
   42330:	dcc00317 	ldw	r19,12(sp)
   42334:	dc800217 	ldw	r18,8(sp)
   42338:	dc400117 	ldw	r17,4(sp)
   4233c:	dc000017 	ldw	r16,0(sp)
   42340:	dec00504 	addi	sp,sp,20
   42344:	f800283a 	ret
   42348:	040bc83a 	sub	r5,zero,r16
   4234c:	9009883a 	mov	r4,r18
   42350:	0043e800 	call	43e80 <_sbrk_r>
   42354:	10bfffd8 	cmpnei	r2,r2,-1
   42358:	10000d26 	beq	r2,zero,42390 <_malloc_trim_r+0xe0>
   4235c:	008001b4 	movhi	r2,6
   42360:	1089b317 	ldw	r2,9932(r2)
   42364:	98c00217 	ldw	r3,8(r19)
   42368:	8c23c83a 	sub	r17,r17,r16
   4236c:	8c400054 	ori	r17,r17,1
   42370:	1421c83a 	sub	r16,r2,r16
   42374:	1c400115 	stw	r17,4(r3)
   42378:	008001b4 	movhi	r2,6
   4237c:	9009883a 	mov	r4,r18
   42380:	1409b315 	stw	r16,9932(r2)
   42384:	005a21c0 	call	5a21c <__malloc_unlock>
   42388:	00800044 	movi	r2,1
   4238c:	003fe706 	br	4232c <_malloc_trim_r+0x7c>
   42390:	000b883a 	mov	r5,zero
   42394:	9009883a 	mov	r4,r18
   42398:	0043e800 	call	43e80 <_sbrk_r>
   4239c:	99000217 	ldw	r4,8(r19)
   423a0:	1107c83a 	sub	r3,r2,r4
   423a4:	19400410 	cmplti	r5,r3,16
   423a8:	283fdd1e 	bne	r5,zero,42320 <_malloc_trim_r+0x70>
   423ac:	014001b4 	movhi	r5,6
   423b0:	297fa317 	ldw	r5,-372(r5)
   423b4:	18c00054 	ori	r3,r3,1
   423b8:	20c00115 	stw	r3,4(r4)
   423bc:	1145c83a 	sub	r2,r2,r5
   423c0:	014001b4 	movhi	r5,6
   423c4:	2889b315 	stw	r2,9932(r5)
   423c8:	003fd506 	br	42320 <_malloc_trim_r+0x70>

000423cc <_free_r>:
   423cc:	28004f26 	beq	r5,zero,4250c <_free_r+0x140>
   423d0:	defffd04 	addi	sp,sp,-12
   423d4:	dc400115 	stw	r17,4(sp)
   423d8:	dc000015 	stw	r16,0(sp)
   423dc:	2023883a 	mov	r17,r4
   423e0:	2821883a 	mov	r16,r5
   423e4:	dfc00215 	stw	ra,8(sp)
   423e8:	005a1f80 	call	5a1f8 <__malloc_lock>
   423ec:	81ffff17 	ldw	r7,-4(r16)
   423f0:	00bfff84 	movi	r2,-2
   423f4:	80fffe04 	addi	r3,r16,-8
   423f8:	3884703a 	and	r2,r7,r2
   423fc:	010001b4 	movhi	r4,6
   42400:	188d883a 	add	r6,r3,r2
   42404:	21398404 	addi	r4,r4,-6640
   42408:	31400117 	ldw	r5,4(r6)
   4240c:	22000217 	ldw	r8,8(r4)
   42410:	027fff04 	movi	r9,-4
   42414:	2a4a703a 	and	r5,r5,r9
   42418:	41806426 	beq	r8,r6,425ac <_free_r+0x1e0>
   4241c:	31400115 	stw	r5,4(r6)
   42420:	39c0004c 	andi	r7,r7,1
   42424:	3151883a 	add	r8,r6,r5
   42428:	3800281e 	bne	r7,zero,424cc <_free_r+0x100>
   4242c:	82bffe17 	ldw	r10,-8(r16)
   42430:	42000117 	ldw	r8,4(r8)
   42434:	01c001b4 	movhi	r7,6
   42438:	1a87c83a 	sub	r3,r3,r10
   4243c:	1a400217 	ldw	r9,8(r3)
   42440:	39f98604 	addi	r7,r7,-6632
   42444:	1285883a 	add	r2,r2,r10
   42448:	4200004c 	andi	r8,r8,1
   4244c:	49c04c26 	beq	r9,r7,42580 <_free_r+0x1b4>
   42450:	1a800317 	ldw	r10,12(r3)
   42454:	4a800315 	stw	r10,12(r9)
   42458:	52400215 	stw	r9,8(r10)
   4245c:	40007126 	beq	r8,zero,42624 <_free_r+0x258>
   42460:	11400054 	ori	r5,r2,1
   42464:	19400115 	stw	r5,4(r3)
   42468:	30800015 	stw	r2,0(r6)
   4246c:	11408028 	cmpgeui	r5,r2,512
   42470:	28002c1e 	bne	r5,zero,42524 <_free_r+0x158>
   42474:	100ad0fa 	srli	r5,r2,3
   42478:	100cd17a 	srli	r6,r2,5
   4247c:	00800044 	movi	r2,1
   42480:	29400044 	addi	r5,r5,1
   42484:	280a90fa 	slli	r5,r5,3
   42488:	21c00117 	ldw	r7,4(r4)
   4248c:	1184983a 	sll	r2,r2,r6
   42490:	214b883a 	add	r5,r4,r5
   42494:	29800017 	ldw	r6,0(r5)
   42498:	11c4b03a 	or	r2,r2,r7
   4249c:	29fffe04 	addi	r7,r5,-8
   424a0:	19c00315 	stw	r7,12(r3)
   424a4:	19800215 	stw	r6,8(r3)
   424a8:	20800115 	stw	r2,4(r4)
   424ac:	28c00015 	stw	r3,0(r5)
   424b0:	30c00315 	stw	r3,12(r6)
   424b4:	8809883a 	mov	r4,r17
   424b8:	dfc00217 	ldw	ra,8(sp)
   424bc:	dc400117 	ldw	r17,4(sp)
   424c0:	dc000017 	ldw	r16,0(sp)
   424c4:	dec00304 	addi	sp,sp,12
   424c8:	005a21c1 	jmpi	5a21c <__malloc_unlock>
   424cc:	41c00117 	ldw	r7,4(r8)
   424d0:	39c0004c 	andi	r7,r7,1
   424d4:	38000e1e 	bne	r7,zero,42510 <_free_r+0x144>
   424d8:	01c001b4 	movhi	r7,6
   424dc:	1145883a 	add	r2,r2,r5
   424e0:	39f98604 	addi	r7,r7,-6632
   424e4:	31400217 	ldw	r5,8(r6)
   424e8:	12400054 	ori	r9,r2,1
   424ec:	1891883a 	add	r8,r3,r2
   424f0:	29c05226 	beq	r5,r7,4263c <_free_r+0x270>
   424f4:	31800317 	ldw	r6,12(r6)
   424f8:	29800315 	stw	r6,12(r5)
   424fc:	31400215 	stw	r5,8(r6)
   42500:	1a400115 	stw	r9,4(r3)
   42504:	40800015 	stw	r2,0(r8)
   42508:	003fd806 	br	4246c <_free_r+0xa0>
   4250c:	f800283a 	ret
   42510:	11400054 	ori	r5,r2,1
   42514:	817fff15 	stw	r5,-4(r16)
   42518:	30800015 	stw	r2,0(r6)
   4251c:	11408028 	cmpgeui	r5,r2,512
   42520:	283fd426 	beq	r5,zero,42474 <_free_r+0xa8>
   42524:	100ad27a 	srli	r5,r2,9
   42528:	29800168 	cmpgeui	r6,r5,5
   4252c:	3000341e 	bne	r6,zero,42600 <_free_r+0x234>
   42530:	100ad1ba 	srli	r5,r2,6
   42534:	29800e44 	addi	r6,r5,57
   42538:	300c90fa 	slli	r6,r6,3
   4253c:	29c00e04 	addi	r7,r5,56
   42540:	218d883a 	add	r6,r4,r6
   42544:	31400017 	ldw	r5,0(r6)
   42548:	31bffe04 	addi	r6,r6,-8
   4254c:	31404226 	beq	r6,r5,42658 <_free_r+0x28c>
   42550:	01ffff04 	movi	r7,-4
   42554:	29000117 	ldw	r4,4(r5)
   42558:	21c8703a 	and	r4,r4,r7
   4255c:	1100022e 	bgeu	r2,r4,42568 <_free_r+0x19c>
   42560:	29400217 	ldw	r5,8(r5)
   42564:	317ffb1e 	bne	r6,r5,42554 <_free_r+0x188>
   42568:	29800317 	ldw	r6,12(r5)
   4256c:	19800315 	stw	r6,12(r3)
   42570:	19400215 	stw	r5,8(r3)
   42574:	30c00215 	stw	r3,8(r6)
   42578:	28c00315 	stw	r3,12(r5)
   4257c:	003fcd06 	br	424b4 <_free_r+0xe8>
   42580:	40004d1e 	bne	r8,zero,426b8 <_free_r+0x2ec>
   42584:	31000317 	ldw	r4,12(r6)
   42588:	31800217 	ldw	r6,8(r6)
   4258c:	2885883a 	add	r2,r5,r2
   42590:	11400054 	ori	r5,r2,1
   42594:	31000315 	stw	r4,12(r6)
   42598:	21800215 	stw	r6,8(r4)
   4259c:	19400115 	stw	r5,4(r3)
   425a0:	1887883a 	add	r3,r3,r2
   425a4:	18800015 	stw	r2,0(r3)
   425a8:	003fc206 	br	424b4 <_free_r+0xe8>
   425ac:	39c0004c 	andi	r7,r7,1
   425b0:	1145883a 	add	r2,r2,r5
   425b4:	3800071e 	bne	r7,zero,425d4 <_free_r+0x208>
   425b8:	81fffe17 	ldw	r7,-8(r16)
   425bc:	19c7c83a 	sub	r3,r3,r7
   425c0:	19400317 	ldw	r5,12(r3)
   425c4:	19800217 	ldw	r6,8(r3)
   425c8:	11c5883a 	add	r2,r2,r7
   425cc:	31400315 	stw	r5,12(r6)
   425d0:	29800215 	stw	r6,8(r5)
   425d4:	014001b4 	movhi	r5,6
   425d8:	11800054 	ori	r6,r2,1
   425dc:	297fa417 	ldw	r5,-368(r5)
   425e0:	19800115 	stw	r6,4(r3)
   425e4:	20c00215 	stw	r3,8(r4)
   425e8:	117fb236 	bltu	r2,r5,424b4 <_free_r+0xe8>
   425ec:	008001b4 	movhi	r2,6
   425f0:	1148a917 	ldw	r5,8868(r2)
   425f4:	8809883a 	mov	r4,r17
   425f8:	00422b00 	call	422b0 <_malloc_trim_r>
   425fc:	003fad06 	br	424b4 <_free_r+0xe8>
   42600:	29800568 	cmpgeui	r6,r5,21
   42604:	30000926 	beq	r6,zero,4262c <_free_r+0x260>
   42608:	29801568 	cmpgeui	r6,r5,85
   4260c:	3000191e 	bne	r6,zero,42674 <_free_r+0x2a8>
   42610:	100ad33a 	srli	r5,r2,12
   42614:	29801bc4 	addi	r6,r5,111
   42618:	300c90fa 	slli	r6,r6,3
   4261c:	29c01b84 	addi	r7,r5,110
   42620:	003fc706 	br	42540 <_free_r+0x174>
   42624:	1145883a 	add	r2,r2,r5
   42628:	003fae06 	br	424e4 <_free_r+0x118>
   4262c:	29801704 	addi	r6,r5,92
   42630:	300c90fa 	slli	r6,r6,3
   42634:	29c016c4 	addi	r7,r5,91
   42638:	003fc106 	br	42540 <_free_r+0x174>
   4263c:	20c00515 	stw	r3,20(r4)
   42640:	20c00415 	stw	r3,16(r4)
   42644:	19c00315 	stw	r7,12(r3)
   42648:	19c00215 	stw	r7,8(r3)
   4264c:	1a400115 	stw	r9,4(r3)
   42650:	40800015 	stw	r2,0(r8)
   42654:	003f9706 	br	424b4 <_free_r+0xe8>
   42658:	380fd0ba 	srai	r7,r7,2
   4265c:	00800044 	movi	r2,1
   42660:	22000117 	ldw	r8,4(r4)
   42664:	11ce983a 	sll	r7,r2,r7
   42668:	3a0eb03a 	or	r7,r7,r8
   4266c:	21c00115 	stw	r7,4(r4)
   42670:	003fbe06 	br	4256c <_free_r+0x1a0>
   42674:	29805568 	cmpgeui	r6,r5,341
   42678:	3000051e 	bne	r6,zero,42690 <_free_r+0x2c4>
   4267c:	100ad3fa 	srli	r5,r2,15
   42680:	29801e04 	addi	r6,r5,120
   42684:	300c90fa 	slli	r6,r6,3
   42688:	29c01dc4 	addi	r7,r5,119
   4268c:	003fac06 	br	42540 <_free_r+0x174>
   42690:	29415568 	cmpgeui	r5,r5,1365
   42694:	2800051e 	bne	r5,zero,426ac <_free_r+0x2e0>
   42698:	100ad4ba 	srli	r5,r2,18
   4269c:	29801f44 	addi	r6,r5,125
   426a0:	300c90fa 	slli	r6,r6,3
   426a4:	29c01f04 	addi	r7,r5,124
   426a8:	003fa506 	br	42540 <_free_r+0x174>
   426ac:	0180fe04 	movi	r6,1016
   426b0:	01c01f84 	movi	r7,126
   426b4:	003fa206 	br	42540 <_free_r+0x174>
   426b8:	11000054 	ori	r4,r2,1
   426bc:	19000115 	stw	r4,4(r3)
   426c0:	30800015 	stw	r2,0(r6)
   426c4:	003f7b06 	br	424b4 <_free_r+0xe8>

000426c8 <_fseek_r>:
   426c8:	00426e81 	jmpi	426e8 <_fseeko_r>

000426cc <fseek>:
   426cc:	00c001b4 	movhi	r3,6
   426d0:	2005883a 	mov	r2,r4
   426d4:	193fa217 	ldw	r4,-376(r3)
   426d8:	300f883a 	mov	r7,r6
   426dc:	280d883a 	mov	r6,r5
   426e0:	100b883a 	mov	r5,r2
   426e4:	00426e81 	jmpi	426e8 <_fseeko_r>

000426e8 <_fseeko_r>:
   426e8:	deffe504 	addi	sp,sp,-108
   426ec:	dd401715 	stw	r21,92(sp)
   426f0:	dcc01515 	stw	r19,84(sp)
   426f4:	dc401315 	stw	r17,76(sp)
   426f8:	dc001215 	stw	r16,72(sp)
   426fc:	dfc01a15 	stw	ra,104(sp)
   42700:	ddc01915 	stw	r23,100(sp)
   42704:	dd801815 	stw	r22,96(sp)
   42708:	dd001615 	stw	r20,88(sp)
   4270c:	dc801415 	stw	r18,80(sp)
   42710:	2023883a 	mov	r17,r4
   42714:	2821883a 	mov	r16,r5
   42718:	3027883a 	mov	r19,r6
   4271c:	382b883a 	mov	r21,r7
   42720:	20000226 	beq	r4,zero,4272c <_fseeko_r+0x44>
   42724:	20800e17 	ldw	r2,56(r4)
   42728:	10001a26 	beq	r2,zero,42794 <_fseeko_r+0xac>
   4272c:	8080030b 	ldhu	r2,12(r16)
   42730:	1080420c 	andi	r2,r2,264
   42734:	10804218 	cmpnei	r2,r2,264
   42738:	10001b26 	beq	r2,zero,427a8 <_fseeko_r+0xc0>
   4273c:	85000a17 	ldw	r20,40(r16)
   42740:	a000fa26 	beq	r20,zero,42b2c <_fseeko_r+0x444>
   42744:	a8800060 	cmpeqi	r2,r21,1
   42748:	10004a1e 	bne	r2,zero,42874 <_fseeko_r+0x18c>
   4274c:	04bfff44 	movi	r18,-3
   42750:	aca4703a 	and	r18,r21,r18
   42754:	90001826 	beq	r18,zero,427b8 <_fseeko_r+0xd0>
   42758:	00800584 	movi	r2,22
   4275c:	88800015 	stw	r2,0(r17)
   42760:	04bfffc4 	movi	r18,-1
   42764:	9005883a 	mov	r2,r18
   42768:	dfc01a17 	ldw	ra,104(sp)
   4276c:	ddc01917 	ldw	r23,100(sp)
   42770:	dd801817 	ldw	r22,96(sp)
   42774:	dd401717 	ldw	r21,92(sp)
   42778:	dd001617 	ldw	r20,88(sp)
   4277c:	dcc01517 	ldw	r19,84(sp)
   42780:	dc801417 	ldw	r18,80(sp)
   42784:	dc401317 	ldw	r17,76(sp)
   42788:	dc001217 	ldw	r16,72(sp)
   4278c:	dec01b04 	addi	sp,sp,108
   42790:	f800283a 	ret
   42794:	00421140 	call	42114 <__sinit>
   42798:	8080030b 	ldhu	r2,12(r16)
   4279c:	1080420c 	andi	r2,r2,264
   427a0:	10804218 	cmpnei	r2,r2,264
   427a4:	103fe51e 	bne	r2,zero,4273c <_fseeko_r+0x54>
   427a8:	800b883a 	mov	r5,r16
   427ac:	8809883a 	mov	r4,r17
   427b0:	00419fc0 	call	419fc <_fflush_r>
   427b4:	003fe106 	br	4273c <_fseeko_r+0x54>
   427b8:	81000417 	ldw	r4,16(r16)
   427bc:	002f883a 	mov	r23,zero
   427c0:	20004826 	beq	r4,zero,428e4 <_fseeko_r+0x1fc>
   427c4:	8080030b 	ldhu	r2,12(r16)
   427c8:	10c2068c 	andi	r3,r2,2074
   427cc:	1800071e 	bne	r3,zero,427ec <_fseeko_r+0x104>
   427d0:	10c1000c 	andi	r3,r2,1024
   427d4:	1800561e 	bne	r3,zero,42930 <_fseeko_r+0x248>
   427d8:	00c00134 	movhi	r3,4
   427dc:	18d05904 	addi	r3,r3,16740
   427e0:	a0c04426 	beq	r20,r3,428f4 <_fseeko_r+0x20c>
   427e4:	10820014 	ori	r2,r2,2048
   427e8:	8080030d 	sth	r2,12(r16)
   427ec:	800b883a 	mov	r5,r16
   427f0:	8809883a 	mov	r4,r17
   427f4:	00419fc0 	call	419fc <_fflush_r>
   427f8:	1025883a 	mov	r18,r2
   427fc:	103fd81e 	bne	r2,zero,42760 <_fseeko_r+0x78>
   42800:	81400717 	ldw	r5,28(r16)
   42804:	a80f883a 	mov	r7,r21
   42808:	980d883a 	mov	r6,r19
   4280c:	8809883a 	mov	r4,r17
   42810:	a03ee83a 	callr	r20
   42814:	10bfffe0 	cmpeqi	r2,r2,-1
   42818:	103fd11e 	bne	r2,zero,42760 <_fseeko_r+0x78>
   4281c:	81400c17 	ldw	r5,48(r16)
   42820:	28000526 	beq	r5,zero,42838 <_fseeko_r+0x150>
   42824:	80801004 	addi	r2,r16,64
   42828:	28800226 	beq	r5,r2,42834 <_fseeko_r+0x14c>
   4282c:	8809883a 	mov	r4,r17
   42830:	00423cc0 	call	423cc <_free_r>
   42834:	80000c15 	stw	zero,48(r16)
   42838:	8080030b 	ldhu	r2,12(r16)
   4283c:	80c00417 	ldw	r3,16(r16)
   42840:	80000115 	stw	zero,4(r16)
   42844:	10bdf7cc 	andi	r2,r2,63455
   42848:	80c00015 	stw	r3,0(r16)
   4284c:	8080030d 	sth	r2,12(r16)
   42850:	80001705 	stb	zero,92(r16)
   42854:	80001745 	stb	zero,93(r16)
   42858:	80001785 	stb	zero,94(r16)
   4285c:	800017c5 	stb	zero,95(r16)
   42860:	80001805 	stb	zero,96(r16)
   42864:	80001845 	stb	zero,97(r16)
   42868:	80001885 	stb	zero,98(r16)
   4286c:	800018c5 	stb	zero,99(r16)
   42870:	003fbc06 	br	42764 <_fseeko_r+0x7c>
   42874:	800b883a 	mov	r5,r16
   42878:	8809883a 	mov	r4,r17
   4287c:	00419fc0 	call	419fc <_fflush_r>
   42880:	8080030b 	ldhu	r2,12(r16)
   42884:	10c4000c 	andi	r3,r2,4096
   42888:	18006e1e 	bne	r3,zero,42a44 <_fseeko_r+0x35c>
   4288c:	81400717 	ldw	r5,28(r16)
   42890:	01c00044 	movi	r7,1
   42894:	000d883a 	mov	r6,zero
   42898:	8809883a 	mov	r4,r17
   4289c:	a03ee83a 	callr	r20
   428a0:	1025883a 	mov	r18,r2
   428a4:	10bfffd8 	cmpnei	r2,r2,-1
   428a8:	103fad26 	beq	r2,zero,42760 <_fseeko_r+0x78>
   428ac:	8080030b 	ldhu	r2,12(r16)
   428b0:	81000417 	ldw	r4,16(r16)
   428b4:	10c0010c 	andi	r3,r2,4
   428b8:	18006626 	beq	r3,zero,42a54 <_fseeko_r+0x36c>
   428bc:	80c00117 	ldw	r3,4(r16)
   428c0:	80800c17 	ldw	r2,48(r16)
   428c4:	90e5c83a 	sub	r18,r18,r3
   428c8:	10000226 	beq	r2,zero,428d4 <_fseeko_r+0x1ec>
   428cc:	81800f17 	ldw	r6,60(r16)
   428d0:	91a5c83a 	sub	r18,r18,r6
   428d4:	9ca7883a 	add	r19,r19,r18
   428d8:	05c00044 	movi	r23,1
   428dc:	002b883a 	mov	r21,zero
   428e0:	203fb81e 	bne	r4,zero,427c4 <_fseeko_r+0xdc>
   428e4:	800b883a 	mov	r5,r16
   428e8:	8809883a 	mov	r4,r17
   428ec:	0042cf80 	call	42cf8 <__smakebuf_r>
   428f0:	003fb406 	br	427c4 <_fseeko_r+0xdc>
   428f4:	8140038f 	ldh	r5,14(r16)
   428f8:	283fba16 	blt	r5,zero,427e4 <_fseeko_r+0xfc>
   428fc:	d80d883a 	mov	r6,sp
   42900:	8809883a 	mov	r4,r17
   42904:	0042b580 	call	42b58 <_fstat_r>
   42908:	1000761e 	bne	r2,zero,42ae4 <_fseeko_r+0x3fc>
   4290c:	d8c00117 	ldw	r3,4(sp)
   42910:	01200014 	movui	r4,32768
   42914:	8080030b 	ldhu	r2,12(r16)
   42918:	18fc000c 	andi	r3,r3,61440
   4291c:	193fb11e 	bne	r3,r4,427e4 <_fseeko_r+0xfc>
   42920:	10810014 	ori	r2,r2,1024
   42924:	00c10004 	movi	r3,1024
   42928:	80c01315 	stw	r3,76(r16)
   4292c:	8080030d 	sth	r2,12(r16)
   42930:	a8004f1e 	bne	r21,zero,42a70 <_fseeko_r+0x388>
   42934:	982d883a 	mov	r22,r19
   42938:	b800551e 	bne	r23,zero,42a90 <_fseeko_r+0x3a8>
   4293c:	8080030b 	ldhu	r2,12(r16)
   42940:	1084000c 	andi	r2,r2,4096
   42944:	10005f26 	beq	r2,zero,42ac4 <_fseeko_r+0x3dc>
   42948:	80801417 	ldw	r2,80(r16)
   4294c:	80c00117 	ldw	r3,4(r16)
   42950:	81400c17 	ldw	r5,48(r16)
   42954:	1809883a 	mov	r4,r3
   42958:	10e5c83a 	sub	r18,r2,r3
   4295c:	28005226 	beq	r5,zero,42aa8 <_fseeko_r+0x3c0>
   42960:	81800f17 	ldw	r6,60(r16)
   42964:	91a5c83a 	sub	r18,r18,r6
   42968:	80800e17 	ldw	r2,56(r16)
   4296c:	81c00417 	ldw	r7,16(r16)
   42970:	90e5883a 	add	r18,r18,r3
   42974:	11c5c83a 	sub	r2,r2,r7
   42978:	90a5c83a 	sub	r18,r18,r2
   4297c:	1185883a 	add	r2,r2,r6
   42980:	b4800216 	blt	r22,r18,4298c <_fseeko_r+0x2a4>
   42984:	9087883a 	add	r3,r18,r2
   42988:	b0c05836 	bltu	r22,r3,42aec <_fseeko_r+0x404>
   4298c:	84801317 	ldw	r18,76(r16)
   42990:	81400717 	ldw	r5,28(r16)
   42994:	000f883a 	mov	r7,zero
   42998:	04a5c83a 	sub	r18,zero,r18
   4299c:	95a4703a 	and	r18,r18,r22
   429a0:	900d883a 	mov	r6,r18
   429a4:	8809883a 	mov	r4,r17
   429a8:	a03ee83a 	callr	r20
   429ac:	10bfffe0 	cmpeqi	r2,r2,-1
   429b0:	103f8e1e 	bne	r2,zero,427ec <_fseeko_r+0x104>
   429b4:	80800417 	ldw	r2,16(r16)
   429b8:	81400c17 	ldw	r5,48(r16)
   429bc:	80000115 	stw	zero,4(r16)
   429c0:	80800015 	stw	r2,0(r16)
   429c4:	28000526 	beq	r5,zero,429dc <_fseeko_r+0x2f4>
   429c8:	80801004 	addi	r2,r16,64
   429cc:	28800226 	beq	r5,r2,429d8 <_fseeko_r+0x2f0>
   429d0:	8809883a 	mov	r4,r17
   429d4:	00423cc0 	call	423cc <_free_r>
   429d8:	80000c15 	stw	zero,48(r16)
   429dc:	8080030b 	ldhu	r2,12(r16)
   429e0:	b4afc83a 	sub	r23,r22,r18
   429e4:	10bff7cc 	andi	r2,r2,65503
   429e8:	8080030d 	sth	r2,12(r16)
   429ec:	b4800b26 	beq	r22,r18,42a1c <_fseeko_r+0x334>
   429f0:	800b883a 	mov	r5,r16
   429f4:	8809883a 	mov	r4,r17
   429f8:	0043bc40 	call	43bc4 <__srefill_r>
   429fc:	103f7b1e 	bne	r2,zero,427ec <_fseeko_r+0x104>
   42a00:	80800117 	ldw	r2,4(r16)
   42a04:	15ff7936 	bltu	r2,r23,427ec <_fseeko_r+0x104>
   42a08:	80c00017 	ldw	r3,0(r16)
   42a0c:	15c5c83a 	sub	r2,r2,r23
   42a10:	80800115 	stw	r2,4(r16)
   42a14:	1def883a 	add	r23,r3,r23
   42a18:	85c00015 	stw	r23,0(r16)
   42a1c:	80001705 	stb	zero,92(r16)
   42a20:	80001745 	stb	zero,93(r16)
   42a24:	80001785 	stb	zero,94(r16)
   42a28:	800017c5 	stb	zero,95(r16)
   42a2c:	80001805 	stb	zero,96(r16)
   42a30:	80001845 	stb	zero,97(r16)
   42a34:	80001885 	stb	zero,98(r16)
   42a38:	800018c5 	stb	zero,99(r16)
   42a3c:	0025883a 	mov	r18,zero
   42a40:	003f4806 	br	42764 <_fseeko_r+0x7c>
   42a44:	10c0010c 	andi	r3,r2,4
   42a48:	84801417 	ldw	r18,80(r16)
   42a4c:	81000417 	ldw	r4,16(r16)
   42a50:	183f9a1e 	bne	r3,zero,428bc <_fseeko_r+0x1d4>
   42a54:	1080020c 	andi	r2,r2,8
   42a58:	103f9e26 	beq	r2,zero,428d4 <_fseeko_r+0x1ec>
   42a5c:	80800017 	ldw	r2,0(r16)
   42a60:	103f9c26 	beq	r2,zero,428d4 <_fseeko_r+0x1ec>
   42a64:	1105c83a 	sub	r2,r2,r4
   42a68:	90a5883a 	add	r18,r18,r2
   42a6c:	003f9906 	br	428d4 <_fseeko_r+0x1ec>
   42a70:	8140038f 	ldh	r5,14(r16)
   42a74:	d80d883a 	mov	r6,sp
   42a78:	8809883a 	mov	r4,r17
   42a7c:	0042b580 	call	42b58 <_fstat_r>
   42a80:	103f5a1e 	bne	r2,zero,427ec <_fseeko_r+0x104>
   42a84:	dd800417 	ldw	r22,16(sp)
   42a88:	9dad883a 	add	r22,r19,r22
   42a8c:	b83fab26 	beq	r23,zero,4293c <_fseeko_r+0x254>
   42a90:	81400c17 	ldw	r5,48(r16)
   42a94:	28000326 	beq	r5,zero,42aa4 <_fseeko_r+0x3bc>
   42a98:	80c00117 	ldw	r3,4(r16)
   42a9c:	81800f17 	ldw	r6,60(r16)
   42aa0:	003fb106 	br	42968 <_fseeko_r+0x280>
   42aa4:	81000117 	ldw	r4,4(r16)
   42aa8:	80800017 	ldw	r2,0(r16)
   42aac:	81c00417 	ldw	r7,16(r16)
   42ab0:	000b883a 	mov	r5,zero
   42ab4:	11c5c83a 	sub	r2,r2,r7
   42ab8:	90a5c83a 	sub	r18,r18,r2
   42abc:	2085883a 	add	r2,r4,r2
   42ac0:	003faf06 	br	42980 <_fseeko_r+0x298>
   42ac4:	81400717 	ldw	r5,28(r16)
   42ac8:	01c00044 	movi	r7,1
   42acc:	000d883a 	mov	r6,zero
   42ad0:	8809883a 	mov	r4,r17
   42ad4:	a03ee83a 	callr	r20
   42ad8:	10ffffe0 	cmpeqi	r3,r2,-1
   42adc:	183f9b26 	beq	r3,zero,4294c <_fseeko_r+0x264>
   42ae0:	003f4206 	br	427ec <_fseeko_r+0x104>
   42ae4:	8080030b 	ldhu	r2,12(r16)
   42ae8:	003f3e06 	br	427e4 <_fseeko_r+0xfc>
   42aec:	b4a5c83a 	sub	r18,r22,r18
   42af0:	3c8f883a 	add	r7,r7,r18
   42af4:	14a5c83a 	sub	r18,r2,r18
   42af8:	81c00015 	stw	r7,0(r16)
   42afc:	84800115 	stw	r18,4(r16)
   42b00:	28000526 	beq	r5,zero,42b18 <_fseeko_r+0x430>
   42b04:	80801004 	addi	r2,r16,64
   42b08:	28800226 	beq	r5,r2,42b14 <_fseeko_r+0x42c>
   42b0c:	8809883a 	mov	r4,r17
   42b10:	00423cc0 	call	423cc <_free_r>
   42b14:	80000c15 	stw	zero,48(r16)
   42b18:	80c0030b 	ldhu	r3,12(r16)
   42b1c:	80001705 	stb	zero,92(r16)
   42b20:	18fff7cc 	andi	r3,r3,65503
   42b24:	80c0030d 	sth	r3,12(r16)
   42b28:	003fbd06 	br	42a20 <_fseeko_r+0x338>
   42b2c:	00800744 	movi	r2,29
   42b30:	88800015 	stw	r2,0(r17)
   42b34:	04bfffc4 	movi	r18,-1
   42b38:	003f0a06 	br	42764 <_fseeko_r+0x7c>

00042b3c <fseeko>:
   42b3c:	00c001b4 	movhi	r3,6
   42b40:	2005883a 	mov	r2,r4
   42b44:	193fa217 	ldw	r4,-376(r3)
   42b48:	300f883a 	mov	r7,r6
   42b4c:	280d883a 	mov	r6,r5
   42b50:	100b883a 	mov	r5,r2
   42b54:	00426e81 	jmpi	426e8 <_fseeko_r>

00042b58 <_fstat_r>:
   42b58:	2807883a 	mov	r3,r5
   42b5c:	defffe04 	addi	sp,sp,-8
   42b60:	dc000015 	stw	r16,0(sp)
   42b64:	008001b4 	movhi	r2,6
   42b68:	300b883a 	mov	r5,r6
   42b6c:	2021883a 	mov	r16,r4
   42b70:	1809883a 	mov	r4,r3
   42b74:	dfc00115 	stw	ra,4(sp)
   42b78:	1008a615 	stw	zero,8856(r2)
   42b7c:	0059c680 	call	59c68 <fstat>
   42b80:	10ffffd8 	cmpnei	r3,r2,-1
   42b84:	18000426 	beq	r3,zero,42b98 <_fstat_r+0x40>
   42b88:	dfc00117 	ldw	ra,4(sp)
   42b8c:	dc000017 	ldw	r16,0(sp)
   42b90:	dec00204 	addi	sp,sp,8
   42b94:	f800283a 	ret
   42b98:	00c001b4 	movhi	r3,6
   42b9c:	18c8a617 	ldw	r3,8856(r3)
   42ba0:	183ff926 	beq	r3,zero,42b88 <_fstat_r+0x30>
   42ba4:	80c00015 	stw	r3,0(r16)
   42ba8:	dfc00117 	ldw	ra,4(sp)
   42bac:	dc000017 	ldw	r16,0(sp)
   42bb0:	dec00204 	addi	sp,sp,8
   42bb4:	f800283a 	ret

00042bb8 <_fwalk>:
   42bb8:	defffa04 	addi	sp,sp,-24
   42bbc:	dd000415 	stw	r20,16(sp)
   42bc0:	dcc00315 	stw	r19,12(sp)
   42bc4:	dc800215 	stw	r18,8(sp)
   42bc8:	dfc00515 	stw	ra,20(sp)
   42bcc:	dc400115 	stw	r17,4(sp)
   42bd0:	dc000015 	stw	r16,0(sp)
   42bd4:	2827883a 	mov	r19,r5
   42bd8:	2480b804 	addi	r18,r4,736
   42bdc:	0029883a 	mov	r20,zero
   42be0:	94400117 	ldw	r17,4(r18)
   42be4:	94000217 	ldw	r16,8(r18)
   42be8:	8c7fffc4 	addi	r17,r17,-1
   42bec:	88000d16 	blt	r17,zero,42c24 <_fwalk+0x6c>
   42bf0:	8080030b 	ldhu	r2,12(r16)
   42bf4:	8c7fffc4 	addi	r17,r17,-1
   42bf8:	108000b0 	cmpltui	r2,r2,2
   42bfc:	1000061e 	bne	r2,zero,42c18 <_fwalk+0x60>
   42c00:	8080038f 	ldh	r2,14(r16)
   42c04:	8009883a 	mov	r4,r16
   42c08:	10bfffe0 	cmpeqi	r2,r2,-1
   42c0c:	1000021e 	bne	r2,zero,42c18 <_fwalk+0x60>
   42c10:	983ee83a 	callr	r19
   42c14:	a0a8b03a 	or	r20,r20,r2
   42c18:	88bfffd8 	cmpnei	r2,r17,-1
   42c1c:	84001a04 	addi	r16,r16,104
   42c20:	103ff31e 	bne	r2,zero,42bf0 <_fwalk+0x38>
   42c24:	94800017 	ldw	r18,0(r18)
   42c28:	903fed1e 	bne	r18,zero,42be0 <_fwalk+0x28>
   42c2c:	a005883a 	mov	r2,r20
   42c30:	dfc00517 	ldw	ra,20(sp)
   42c34:	dd000417 	ldw	r20,16(sp)
   42c38:	dcc00317 	ldw	r19,12(sp)
   42c3c:	dc800217 	ldw	r18,8(sp)
   42c40:	dc400117 	ldw	r17,4(sp)
   42c44:	dc000017 	ldw	r16,0(sp)
   42c48:	dec00604 	addi	sp,sp,24
   42c4c:	f800283a 	ret

00042c50 <_fwalk_reent>:
   42c50:	defff904 	addi	sp,sp,-28
   42c54:	dd400515 	stw	r21,20(sp)
   42c58:	dd000415 	stw	r20,16(sp)
   42c5c:	dcc00315 	stw	r19,12(sp)
   42c60:	dc800215 	stw	r18,8(sp)
   42c64:	dfc00615 	stw	ra,24(sp)
   42c68:	dc400115 	stw	r17,4(sp)
   42c6c:	dc000015 	stw	r16,0(sp)
   42c70:	202b883a 	mov	r21,r4
   42c74:	2827883a 	mov	r19,r5
   42c78:	2480b804 	addi	r18,r4,736
   42c7c:	0029883a 	mov	r20,zero
   42c80:	94400117 	ldw	r17,4(r18)
   42c84:	94000217 	ldw	r16,8(r18)
   42c88:	8c7fffc4 	addi	r17,r17,-1
   42c8c:	88000e16 	blt	r17,zero,42cc8 <_fwalk_reent+0x78>
   42c90:	8080030b 	ldhu	r2,12(r16)
   42c94:	8c7fffc4 	addi	r17,r17,-1
   42c98:	108000b0 	cmpltui	r2,r2,2
   42c9c:	1000071e 	bne	r2,zero,42cbc <_fwalk_reent+0x6c>
   42ca0:	8080038f 	ldh	r2,14(r16)
   42ca4:	800b883a 	mov	r5,r16
   42ca8:	a809883a 	mov	r4,r21
   42cac:	10bfffe0 	cmpeqi	r2,r2,-1
   42cb0:	1000021e 	bne	r2,zero,42cbc <_fwalk_reent+0x6c>
   42cb4:	983ee83a 	callr	r19
   42cb8:	a0a8b03a 	or	r20,r20,r2
   42cbc:	88bfffd8 	cmpnei	r2,r17,-1
   42cc0:	84001a04 	addi	r16,r16,104
   42cc4:	103ff21e 	bne	r2,zero,42c90 <_fwalk_reent+0x40>
   42cc8:	94800017 	ldw	r18,0(r18)
   42ccc:	903fec1e 	bne	r18,zero,42c80 <_fwalk_reent+0x30>
   42cd0:	a005883a 	mov	r2,r20
   42cd4:	dfc00617 	ldw	ra,24(sp)
   42cd8:	dd400517 	ldw	r21,20(sp)
   42cdc:	dd000417 	ldw	r20,16(sp)
   42ce0:	dcc00317 	ldw	r19,12(sp)
   42ce4:	dc800217 	ldw	r18,8(sp)
   42ce8:	dc400117 	ldw	r17,4(sp)
   42cec:	dc000017 	ldw	r16,0(sp)
   42cf0:	dec00704 	addi	sp,sp,28
   42cf4:	f800283a 	ret

00042cf8 <__smakebuf_r>:
   42cf8:	2880030b 	ldhu	r2,12(r5)
   42cfc:	deffe804 	addi	sp,sp,-96
   42d00:	dc001215 	stw	r16,72(sp)
   42d04:	dfc01715 	stw	ra,92(sp)
   42d08:	dd001615 	stw	r20,88(sp)
   42d0c:	dcc01515 	stw	r19,84(sp)
   42d10:	dc801415 	stw	r18,80(sp)
   42d14:	dc401315 	stw	r17,76(sp)
   42d18:	10c0008c 	andi	r3,r2,2
   42d1c:	2821883a 	mov	r16,r5
   42d20:	18000d26 	beq	r3,zero,42d58 <__smakebuf_r+0x60>
   42d24:	288010c4 	addi	r2,r5,67
   42d28:	28800015 	stw	r2,0(r5)
   42d2c:	28800415 	stw	r2,16(r5)
   42d30:	00800044 	movi	r2,1
   42d34:	28800515 	stw	r2,20(r5)
   42d38:	dfc01717 	ldw	ra,92(sp)
   42d3c:	dd001617 	ldw	r20,88(sp)
   42d40:	dcc01517 	ldw	r19,84(sp)
   42d44:	dc801417 	ldw	r18,80(sp)
   42d48:	dc401317 	ldw	r17,76(sp)
   42d4c:	dc001217 	ldw	r16,72(sp)
   42d50:	dec01804 	addi	sp,sp,96
   42d54:	f800283a 	ret
   42d58:	2940038f 	ldh	r5,14(r5)
   42d5c:	2023883a 	mov	r17,r4
   42d60:	28002816 	blt	r5,zero,42e04 <__smakebuf_r+0x10c>
   42d64:	d80d883a 	mov	r6,sp
   42d68:	0042b580 	call	42b58 <_fstat_r>
   42d6c:	10002416 	blt	r2,zero,42e00 <__smakebuf_r+0x108>
   42d70:	d8800117 	ldw	r2,4(sp)
   42d74:	10bc000c 	andi	r2,r2,61440
   42d78:	10880018 	cmpnei	r2,r2,8192
   42d7c:	1000461e 	bne	r2,zero,42e98 <__smakebuf_r+0x1a0>
   42d80:	8140038f 	ldh	r5,14(r16)
   42d84:	8809883a 	mov	r4,r17
   42d88:	004c7840 	call	4c784 <_isatty_r>
   42d8c:	10003e26 	beq	r2,zero,42e88 <__smakebuf_r+0x190>
   42d90:	8080030b 	ldhu	r2,12(r16)
   42d94:	80c010c4 	addi	r3,r16,67
   42d98:	80c00015 	stw	r3,0(r16)
   42d9c:	10800054 	ori	r2,r2,1
   42da0:	8080030d 	sth	r2,12(r16)
   42da4:	00800044 	movi	r2,1
   42da8:	80c00415 	stw	r3,16(r16)
   42dac:	80800515 	stw	r2,20(r16)
   42db0:	04c00044 	movi	r19,1
   42db4:	05010004 	movi	r20,1024
   42db8:	04820004 	movi	r18,2048
   42dbc:	a00b883a 	mov	r5,r20
   42dc0:	8809883a 	mov	r4,r17
   42dc4:	0042f600 	call	42f60 <_malloc_r>
   42dc8:	10001726 	beq	r2,zero,42e28 <__smakebuf_r+0x130>
   42dcc:	80c0030b 	ldhu	r3,12(r16)
   42dd0:	01000134 	movhi	r4,4
   42dd4:	21077204 	addi	r4,r4,7624
   42dd8:	89000f15 	stw	r4,60(r17)
   42ddc:	18c02014 	ori	r3,r3,128
   42de0:	80c0030d 	sth	r3,12(r16)
   42de4:	80800015 	stw	r2,0(r16)
   42de8:	80800415 	stw	r2,16(r16)
   42dec:	85000515 	stw	r20,20(r16)
   42df0:	98001d1e 	bne	r19,zero,42e68 <__smakebuf_r+0x170>
   42df4:	90c6b03a 	or	r3,r18,r3
   42df8:	80c0030d 	sth	r3,12(r16)
   42dfc:	003fce06 	br	42d38 <__smakebuf_r+0x40>
   42e00:	8080030b 	ldhu	r2,12(r16)
   42e04:	1080200c 	andi	r2,r2,128
   42e08:	0027883a 	mov	r19,zero
   42e0c:	10001326 	beq	r2,zero,42e5c <__smakebuf_r+0x164>
   42e10:	05001004 	movi	r20,64
   42e14:	a00b883a 	mov	r5,r20
   42e18:	8809883a 	mov	r4,r17
   42e1c:	0025883a 	mov	r18,zero
   42e20:	0042f600 	call	42f60 <_malloc_r>
   42e24:	103fe91e 	bne	r2,zero,42dcc <__smakebuf_r+0xd4>
   42e28:	8080030b 	ldhu	r2,12(r16)
   42e2c:	10c0800c 	andi	r3,r2,512
   42e30:	183fc11e 	bne	r3,zero,42d38 <__smakebuf_r+0x40>
   42e34:	00ffff04 	movi	r3,-4
   42e38:	10c4703a 	and	r2,r2,r3
   42e3c:	10800094 	ori	r2,r2,2
   42e40:	80c010c4 	addi	r3,r16,67
   42e44:	8080030d 	sth	r2,12(r16)
   42e48:	00800044 	movi	r2,1
   42e4c:	80c00015 	stw	r3,0(r16)
   42e50:	80c00415 	stw	r3,16(r16)
   42e54:	80800515 	stw	r2,20(r16)
   42e58:	003fb706 	br	42d38 <__smakebuf_r+0x40>
   42e5c:	05010004 	movi	r20,1024
   42e60:	0025883a 	mov	r18,zero
   42e64:	003fd506 	br	42dbc <__smakebuf_r+0xc4>
   42e68:	8140038f 	ldh	r5,14(r16)
   42e6c:	8809883a 	mov	r4,r17
   42e70:	004c7840 	call	4c784 <_isatty_r>
   42e74:	80c0030b 	ldhu	r3,12(r16)
   42e78:	103fde26 	beq	r2,zero,42df4 <__smakebuf_r+0xfc>
   42e7c:	18ffff0c 	andi	r3,r3,65532
   42e80:	18c00054 	ori	r3,r3,1
   42e84:	003fdb06 	br	42df4 <__smakebuf_r+0xfc>
   42e88:	04c00044 	movi	r19,1
   42e8c:	05010004 	movi	r20,1024
   42e90:	04820004 	movi	r18,2048
   42e94:	003fc906 	br	42dbc <__smakebuf_r+0xc4>
   42e98:	0027883a 	mov	r19,zero
   42e9c:	05010004 	movi	r20,1024
   42ea0:	04820004 	movi	r18,2048
   42ea4:	003fc506 	br	42dbc <__smakebuf_r+0xc4>

00042ea8 <__swhatbuf_r>:
   42ea8:	deffea04 	addi	sp,sp,-88
   42eac:	dc001215 	stw	r16,72(sp)
   42eb0:	2821883a 	mov	r16,r5
   42eb4:	2940038f 	ldh	r5,14(r5)
   42eb8:	dc801415 	stw	r18,80(sp)
   42ebc:	dc401315 	stw	r17,76(sp)
   42ec0:	dfc01515 	stw	ra,84(sp)
   42ec4:	3023883a 	mov	r17,r6
   42ec8:	3825883a 	mov	r18,r7
   42ecc:	28001016 	blt	r5,zero,42f10 <__swhatbuf_r+0x68>
   42ed0:	d80d883a 	mov	r6,sp
   42ed4:	0042b580 	call	42b58 <_fstat_r>
   42ed8:	10000d16 	blt	r2,zero,42f10 <__swhatbuf_r+0x68>
   42edc:	d8c00117 	ldw	r3,4(sp)
   42ee0:	00820004 	movi	r2,2048
   42ee4:	18fc000c 	andi	r3,r3,61440
   42ee8:	18c80020 	cmpeqi	r3,r3,8192
   42eec:	90c00015 	stw	r3,0(r18)
   42ef0:	00c10004 	movi	r3,1024
   42ef4:	88c00015 	stw	r3,0(r17)
   42ef8:	dfc01517 	ldw	ra,84(sp)
   42efc:	dc801417 	ldw	r18,80(sp)
   42f00:	dc401317 	ldw	r17,76(sp)
   42f04:	dc001217 	ldw	r16,72(sp)
   42f08:	dec01604 	addi	sp,sp,88
   42f0c:	f800283a 	ret
   42f10:	8080030b 	ldhu	r2,12(r16)
   42f14:	90000015 	stw	zero,0(r18)
   42f18:	1080200c 	andi	r2,r2,128
   42f1c:	10000426 	beq	r2,zero,42f30 <__swhatbuf_r+0x88>
   42f20:	00801004 	movi	r2,64
   42f24:	88800015 	stw	r2,0(r17)
   42f28:	0005883a 	mov	r2,zero
   42f2c:	003ff206 	br	42ef8 <__swhatbuf_r+0x50>
   42f30:	00810004 	movi	r2,1024
   42f34:	88800015 	stw	r2,0(r17)
   42f38:	0005883a 	mov	r2,zero
   42f3c:	003fee06 	br	42ef8 <__swhatbuf_r+0x50>

00042f40 <malloc>:
   42f40:	008001b4 	movhi	r2,6
   42f44:	200b883a 	mov	r5,r4
   42f48:	113fa217 	ldw	r4,-376(r2)
   42f4c:	0042f601 	jmpi	42f60 <_malloc_r>

00042f50 <free>:
   42f50:	008001b4 	movhi	r2,6
   42f54:	200b883a 	mov	r5,r4
   42f58:	113fa217 	ldw	r4,-376(r2)
   42f5c:	00423cc1 	jmpi	423cc <_free_r>

00042f60 <_malloc_r>:
   42f60:	defff604 	addi	sp,sp,-40
   42f64:	dc400115 	stw	r17,4(sp)
   42f68:	2c4002c4 	addi	r17,r5,11
   42f6c:	dc800215 	stw	r18,8(sp)
   42f70:	dfc00915 	stw	ra,36(sp)
   42f74:	df000815 	stw	fp,32(sp)
   42f78:	ddc00715 	stw	r23,28(sp)
   42f7c:	dd800615 	stw	r22,24(sp)
   42f80:	dd400515 	stw	r21,20(sp)
   42f84:	dd000415 	stw	r20,16(sp)
   42f88:	dcc00315 	stw	r19,12(sp)
   42f8c:	dc000015 	stw	r16,0(sp)
   42f90:	888005e8 	cmpgeui	r2,r17,23
   42f94:	2025883a 	mov	r18,r4
   42f98:	10001b1e 	bne	r2,zero,43008 <_malloc_r+0xa8>
   42f9c:	29400468 	cmpgeui	r5,r5,17
   42fa0:	2800821e 	bne	r5,zero,431ac <_malloc_r+0x24c>
   42fa4:	005a1f80 	call	5a1f8 <__malloc_lock>
   42fa8:	04400404 	movi	r17,16
   42fac:	00800604 	movi	r2,24
   42fb0:	01c00084 	movi	r7,2
   42fb4:	04c001b4 	movhi	r19,6
   42fb8:	9cf98404 	addi	r19,r19,-6640
   42fbc:	9885883a 	add	r2,r19,r2
   42fc0:	14000117 	ldw	r16,4(r2)
   42fc4:	10fffe04 	addi	r3,r2,-8
   42fc8:	80c08b26 	beq	r16,r3,431f8 <_malloc_r+0x298>
   42fcc:	80800117 	ldw	r2,4(r16)
   42fd0:	81000317 	ldw	r4,12(r16)
   42fd4:	00ffff04 	movi	r3,-4
   42fd8:	10c4703a 	and	r2,r2,r3
   42fdc:	81400217 	ldw	r5,8(r16)
   42fe0:	8085883a 	add	r2,r16,r2
   42fe4:	10c00117 	ldw	r3,4(r2)
   42fe8:	29000315 	stw	r4,12(r5)
   42fec:	21400215 	stw	r5,8(r4)
   42ff0:	18c00054 	ori	r3,r3,1
   42ff4:	10c00115 	stw	r3,4(r2)
   42ff8:	9009883a 	mov	r4,r18
   42ffc:	005a21c0 	call	5a21c <__malloc_unlock>
   43000:	80800204 	addi	r2,r16,8
   43004:	00006c06 	br	431b8 <_malloc_r+0x258>
   43008:	00bffe04 	movi	r2,-8
   4300c:	88a2703a 	and	r17,r17,r2
   43010:	88006616 	blt	r17,zero,431ac <_malloc_r+0x24c>
   43014:	89406536 	bltu	r17,r5,431ac <_malloc_r+0x24c>
   43018:	005a1f80 	call	5a1f8 <__malloc_lock>
   4301c:	88807e28 	cmpgeui	r2,r17,504
   43020:	10012226 	beq	r2,zero,434ac <_malloc_r+0x54c>
   43024:	8804d27a 	srli	r2,r17,9
   43028:	10006f26 	beq	r2,zero,431e8 <_malloc_r+0x288>
   4302c:	10c00168 	cmpgeui	r3,r2,5
   43030:	1800fe1e 	bne	r3,zero,4342c <_malloc_r+0x4cc>
   43034:	8804d1ba 	srli	r2,r17,6
   43038:	11c00e44 	addi	r7,r2,57
   4303c:	380890fa 	slli	r4,r7,3
   43040:	12000e04 	addi	r8,r2,56
   43044:	04c001b4 	movhi	r19,6
   43048:	9cf98404 	addi	r19,r19,-6640
   4304c:	9909883a 	add	r4,r19,r4
   43050:	24000117 	ldw	r16,4(r4)
   43054:	213ffe04 	addi	r4,r4,-8
   43058:	24000b26 	beq	r4,r16,43088 <_malloc_r+0x128>
   4305c:	01bfff04 	movi	r6,-4
   43060:	00000306 	br	43070 <_malloc_r+0x110>
   43064:	1800d60e 	bge	r3,zero,433c0 <_malloc_r+0x460>
   43068:	84000317 	ldw	r16,12(r16)
   4306c:	24000626 	beq	r4,r16,43088 <_malloc_r+0x128>
   43070:	80800117 	ldw	r2,4(r16)
   43074:	1184703a 	and	r2,r2,r6
   43078:	1447c83a 	sub	r3,r2,r17
   4307c:	19400408 	cmpgei	r5,r3,16
   43080:	283ff826 	beq	r5,zero,43064 <_malloc_r+0x104>
   43084:	400f883a 	mov	r7,r8
   43088:	9c000417 	ldw	r16,16(r19)
   4308c:	024001b4 	movhi	r9,6
   43090:	4a798604 	addi	r9,r9,-6632
   43094:	82405f26 	beq	r16,r9,43214 <_malloc_r+0x2b4>
   43098:	80c00117 	ldw	r3,4(r16)
   4309c:	00bfff04 	movi	r2,-4
   430a0:	1884703a 	and	r2,r3,r2
   430a4:	1447c83a 	sub	r3,r2,r17
   430a8:	19000410 	cmplti	r4,r3,16
   430ac:	20010a26 	beq	r4,zero,434d8 <_malloc_r+0x578>
   430b0:	9a400515 	stw	r9,20(r19)
   430b4:	9a400415 	stw	r9,16(r19)
   430b8:	1800ff0e 	bge	r3,zero,434b8 <_malloc_r+0x558>
   430bc:	10c08028 	cmpgeui	r3,r2,512
   430c0:	1800c11e 	bne	r3,zero,433c8 <_malloc_r+0x468>
   430c4:	1006d0fa 	srli	r3,r2,3
   430c8:	1008d17a 	srli	r4,r2,5
   430cc:	00800044 	movi	r2,1
   430d0:	18c00044 	addi	r3,r3,1
   430d4:	180690fa 	slli	r3,r3,3
   430d8:	99400117 	ldw	r5,4(r19)
   430dc:	1104983a 	sll	r2,r2,r4
   430e0:	98c7883a 	add	r3,r19,r3
   430e4:	19000017 	ldw	r4,0(r3)
   430e8:	1144b03a 	or	r2,r2,r5
   430ec:	197ffe04 	addi	r5,r3,-8
   430f0:	81400315 	stw	r5,12(r16)
   430f4:	81000215 	stw	r4,8(r16)
   430f8:	98800115 	stw	r2,4(r19)
   430fc:	1c000015 	stw	r16,0(r3)
   43100:	24000315 	stw	r16,12(r4)
   43104:	3807d0ba 	srai	r3,r7,2
   43108:	01000044 	movi	r4,1
   4310c:	20c8983a 	sll	r4,r4,r3
   43110:	11004536 	bltu	r2,r4,43228 <_malloc_r+0x2c8>
   43114:	2086703a 	and	r3,r4,r2
   43118:	18000a1e 	bne	r3,zero,43144 <_malloc_r+0x1e4>
   4311c:	00ffff04 	movi	r3,-4
   43120:	2109883a 	add	r4,r4,r4
   43124:	38ce703a 	and	r7,r7,r3
   43128:	2086703a 	and	r3,r4,r2
   4312c:	39c00104 	addi	r7,r7,4
   43130:	1800041e 	bne	r3,zero,43144 <_malloc_r+0x1e4>
   43134:	2109883a 	add	r4,r4,r4
   43138:	2086703a 	and	r3,r4,r2
   4313c:	39c00104 	addi	r7,r7,4
   43140:	183ffc26 	beq	r3,zero,43134 <_malloc_r+0x1d4>
   43144:	02bfff04 	movi	r10,-4
   43148:	381690fa 	slli	r11,r7,3
   4314c:	3819883a 	mov	r12,r7
   43150:	9ad7883a 	add	r11,r19,r11
   43154:	5811883a 	mov	r8,r11
   43158:	40800317 	ldw	r2,12(r8)
   4315c:	4080bc26 	beq	r8,r2,43450 <_malloc_r+0x4f0>
   43160:	10c00117 	ldw	r3,4(r2)
   43164:	1021883a 	mov	r16,r2
   43168:	10800317 	ldw	r2,12(r2)
   4316c:	1a86703a 	and	r3,r3,r10
   43170:	1c4bc83a 	sub	r5,r3,r17
   43174:	29800410 	cmplti	r6,r5,16
   43178:	3000ba26 	beq	r6,zero,43464 <_malloc_r+0x504>
   4317c:	283ff716 	blt	r5,zero,4315c <_malloc_r+0x1fc>
   43180:	80c7883a 	add	r3,r16,r3
   43184:	19400117 	ldw	r5,4(r3)
   43188:	81800217 	ldw	r6,8(r16)
   4318c:	9009883a 	mov	r4,r18
   43190:	29400054 	ori	r5,r5,1
   43194:	19400115 	stw	r5,4(r3)
   43198:	30800315 	stw	r2,12(r6)
   4319c:	11800215 	stw	r6,8(r2)
   431a0:	005a21c0 	call	5a21c <__malloc_unlock>
   431a4:	80800204 	addi	r2,r16,8
   431a8:	00000306 	br	431b8 <_malloc_r+0x258>
   431ac:	00800304 	movi	r2,12
   431b0:	90800015 	stw	r2,0(r18)
   431b4:	0005883a 	mov	r2,zero
   431b8:	dfc00917 	ldw	ra,36(sp)
   431bc:	df000817 	ldw	fp,32(sp)
   431c0:	ddc00717 	ldw	r23,28(sp)
   431c4:	dd800617 	ldw	r22,24(sp)
   431c8:	dd400517 	ldw	r21,20(sp)
   431cc:	dd000417 	ldw	r20,16(sp)
   431d0:	dcc00317 	ldw	r19,12(sp)
   431d4:	dc800217 	ldw	r18,8(sp)
   431d8:	dc400117 	ldw	r17,4(sp)
   431dc:	dc000017 	ldw	r16,0(sp)
   431e0:	dec00a04 	addi	sp,sp,40
   431e4:	f800283a 	ret
   431e8:	01008004 	movi	r4,512
   431ec:	01c01004 	movi	r7,64
   431f0:	02000fc4 	movi	r8,63
   431f4:	003f9306 	br	43044 <_malloc_r+0xe4>
   431f8:	14000317 	ldw	r16,12(r2)
   431fc:	39c00084 	addi	r7,r7,2
   43200:	143f721e 	bne	r2,r16,42fcc <_malloc_r+0x6c>
   43204:	9c000417 	ldw	r16,16(r19)
   43208:	024001b4 	movhi	r9,6
   4320c:	4a798604 	addi	r9,r9,-6632
   43210:	827fa11e 	bne	r16,r9,43098 <_malloc_r+0x138>
   43214:	3807d0ba 	srai	r3,r7,2
   43218:	01000044 	movi	r4,1
   4321c:	98800117 	ldw	r2,4(r19)
   43220:	20c8983a 	sll	r4,r4,r3
   43224:	113fbb2e 	bgeu	r2,r4,43114 <_malloc_r+0x1b4>
   43228:	9c000217 	ldw	r16,8(r19)
   4322c:	00bfff04 	movi	r2,-4
   43230:	85400117 	ldw	r21,4(r16)
   43234:	a8ac703a 	and	r22,r21,r2
   43238:	b4400336 	bltu	r22,r17,43248 <_malloc_r+0x2e8>
   4323c:	b445c83a 	sub	r2,r22,r17
   43240:	10c00408 	cmpgei	r3,r2,16
   43244:	1800541e 	bne	r3,zero,43398 <_malloc_r+0x438>
   43248:	008001b4 	movhi	r2,6
   4324c:	10bfa317 	ldw	r2,-372(r2)
   43250:	00c001b4 	movhi	r3,6
   43254:	1d48a917 	ldw	r21,8868(r3)
   43258:	10bfffd8 	cmpnei	r2,r2,-1
   4325c:	85b9883a 	add	fp,r16,r22
   43260:	8d6b883a 	add	r21,r17,r21
   43264:	1000d626 	beq	r2,zero,435c0 <_malloc_r+0x660>
   43268:	ad4403c4 	addi	r21,r21,4111
   4326c:	00bc0004 	movi	r2,-4096
   43270:	a8aa703a 	and	r21,r21,r2
   43274:	a80b883a 	mov	r5,r21
   43278:	9009883a 	mov	r4,r18
   4327c:	0043e800 	call	43e80 <_sbrk_r>
   43280:	102f883a 	mov	r23,r2
   43284:	10bfffd8 	cmpnei	r2,r2,-1
   43288:	1000a826 	beq	r2,zero,4352c <_malloc_r+0x5cc>
   4328c:	bf00a636 	bltu	r23,fp,43528 <_malloc_r+0x5c8>
   43290:	008001b4 	movhi	r2,6
   43294:	1509b317 	ldw	r20,9932(r2)
   43298:	ad29883a 	add	r20,r21,r20
   4329c:	1509b315 	stw	r20,9932(r2)
   432a0:	a007883a 	mov	r3,r20
   432a4:	e5c0ec26 	beq	fp,r23,43658 <_malloc_r+0x6f8>
   432a8:	008001b4 	movhi	r2,6
   432ac:	10bfa317 	ldw	r2,-372(r2)
   432b0:	10bfffd8 	cmpnei	r2,r2,-1
   432b4:	1000ef26 	beq	r2,zero,43674 <_malloc_r+0x714>
   432b8:	bf39c83a 	sub	fp,r23,fp
   432bc:	e0c7883a 	add	r3,fp,r3
   432c0:	008001b4 	movhi	r2,6
   432c4:	10c9b315 	stw	r3,9932(r2)
   432c8:	bf0001cc 	andi	fp,r23,7
   432cc:	e000c526 	beq	fp,zero,435e4 <_malloc_r+0x684>
   432d0:	bf2fc83a 	sub	r23,r23,fp
   432d4:	bdc00204 	addi	r23,r23,8
   432d8:	05040204 	movi	r20,4104
   432dc:	a729c83a 	sub	r20,r20,fp
   432e0:	bd6b883a 	add	r21,r23,r21
   432e4:	a569c83a 	sub	r20,r20,r21
   432e8:	a503ffcc 	andi	r20,r20,4095
   432ec:	a00b883a 	mov	r5,r20
   432f0:	9009883a 	mov	r4,r18
   432f4:	0043e800 	call	43e80 <_sbrk_r>
   432f8:	10ffffe0 	cmpeqi	r3,r2,-1
   432fc:	1800f31e 	bne	r3,zero,436cc <_malloc_r+0x76c>
   43300:	15c5c83a 	sub	r2,r2,r23
   43304:	152b883a 	add	r21,r2,r20
   43308:	008001b4 	movhi	r2,6
   4330c:	1149b317 	ldw	r5,9932(r2)
   43310:	9dc00215 	stw	r23,8(r19)
   43314:	ad400054 	ori	r21,r21,1
   43318:	a169883a 	add	r20,r20,r5
   4331c:	1509b315 	stw	r20,9932(r2)
   43320:	bd400115 	stw	r21,4(r23)
   43324:	84c0d626 	beq	r16,r19,43680 <_malloc_r+0x720>
   43328:	b0800428 	cmpgeui	r2,r22,16
   4332c:	1000d626 	beq	r2,zero,43688 <_malloc_r+0x728>
   43330:	80c00117 	ldw	r3,4(r16)
   43334:	013ffe04 	movi	r4,-8
   43338:	b0bffd04 	addi	r2,r22,-12
   4333c:	1104703a 	and	r2,r2,r4
   43340:	18c0004c 	andi	r3,r3,1
   43344:	1886b03a 	or	r3,r3,r2
   43348:	80c00115 	stw	r3,4(r16)
   4334c:	01000144 	movi	r4,5
   43350:	8087883a 	add	r3,r16,r2
   43354:	19000115 	stw	r4,4(r3)
   43358:	19000215 	stw	r4,8(r3)
   4335c:	10800428 	cmpgeui	r2,r2,16
   43360:	1000df1e 	bne	r2,zero,436e0 <_malloc_r+0x780>
   43364:	bd400117 	ldw	r21,4(r23)
   43368:	b821883a 	mov	r16,r23
   4336c:	008001b4 	movhi	r2,6
   43370:	1088a817 	ldw	r2,8864(r2)
   43374:	1500022e 	bgeu	r2,r20,43380 <_malloc_r+0x420>
   43378:	008001b4 	movhi	r2,6
   4337c:	1508a815 	stw	r20,8864(r2)
   43380:	008001b4 	movhi	r2,6
   43384:	1088a717 	ldw	r2,8860(r2)
   43388:	15006a2e 	bgeu	r2,r20,43534 <_malloc_r+0x5d4>
   4338c:	008001b4 	movhi	r2,6
   43390:	1508a715 	stw	r20,8860(r2)
   43394:	00006706 	br	43534 <_malloc_r+0x5d4>
   43398:	88c00054 	ori	r3,r17,1
   4339c:	80c00115 	stw	r3,4(r16)
   433a0:	8463883a 	add	r17,r16,r17
   433a4:	10800054 	ori	r2,r2,1
   433a8:	9c400215 	stw	r17,8(r19)
   433ac:	88800115 	stw	r2,4(r17)
   433b0:	9009883a 	mov	r4,r18
   433b4:	005a21c0 	call	5a21c <__malloc_unlock>
   433b8:	80800204 	addi	r2,r16,8
   433bc:	003f7e06 	br	431b8 <_malloc_r+0x258>
   433c0:	81000317 	ldw	r4,12(r16)
   433c4:	003f0506 	br	42fdc <_malloc_r+0x7c>
   433c8:	1006d27a 	srli	r3,r2,9
   433cc:	19000168 	cmpgeui	r4,r3,5
   433d0:	20005026 	beq	r4,zero,43514 <_malloc_r+0x5b4>
   433d4:	19000568 	cmpgeui	r4,r3,21
   433d8:	20008c1e 	bne	r4,zero,4360c <_malloc_r+0x6ac>
   433dc:	19401704 	addi	r5,r3,92
   433e0:	280a90fa 	slli	r5,r5,3
   433e4:	190016c4 	addi	r4,r3,91
   433e8:	994b883a 	add	r5,r19,r5
   433ec:	28c00017 	ldw	r3,0(r5)
   433f0:	297ffe04 	addi	r5,r5,-8
   433f4:	28c07426 	beq	r5,r3,435c8 <_malloc_r+0x668>
   433f8:	01bfff04 	movi	r6,-4
   433fc:	19000117 	ldw	r4,4(r3)
   43400:	2188703a 	and	r4,r4,r6
   43404:	1100022e 	bgeu	r2,r4,43410 <_malloc_r+0x4b0>
   43408:	18c00217 	ldw	r3,8(r3)
   4340c:	28fffb1e 	bne	r5,r3,433fc <_malloc_r+0x49c>
   43410:	19400317 	ldw	r5,12(r3)
   43414:	98800117 	ldw	r2,4(r19)
   43418:	81400315 	stw	r5,12(r16)
   4341c:	80c00215 	stw	r3,8(r16)
   43420:	2c000215 	stw	r16,8(r5)
   43424:	1c000315 	stw	r16,12(r3)
   43428:	003f3606 	br	43104 <_malloc_r+0x1a4>
   4342c:	10c00568 	cmpgeui	r3,r2,21
   43430:	18004a26 	beq	r3,zero,4355c <_malloc_r+0x5fc>
   43434:	10c01568 	cmpgeui	r3,r2,85
   43438:	18007b1e 	bne	r3,zero,43628 <_malloc_r+0x6c8>
   4343c:	8804d33a 	srli	r2,r17,12
   43440:	11c01bc4 	addi	r7,r2,111
   43444:	380890fa 	slli	r4,r7,3
   43448:	12001b84 	addi	r8,r2,110
   4344c:	003efd06 	br	43044 <_malloc_r+0xe4>
   43450:	63000044 	addi	r12,r12,1
   43454:	608000cc 	andi	r2,r12,3
   43458:	42000204 	addi	r8,r8,8
   4345c:	103f3e1e 	bne	r2,zero,43158 <_malloc_r+0x1f8>
   43460:	00004506 	br	43578 <_malloc_r+0x618>
   43464:	81000217 	ldw	r4,8(r16)
   43468:	89800054 	ori	r6,r17,1
   4346c:	81800115 	stw	r6,4(r16)
   43470:	20800315 	stw	r2,12(r4)
   43474:	11000215 	stw	r4,8(r2)
   43478:	8463883a 	add	r17,r16,r17
   4347c:	9c400515 	stw	r17,20(r19)
   43480:	9c400415 	stw	r17,16(r19)
   43484:	28800054 	ori	r2,r5,1
   43488:	88800115 	stw	r2,4(r17)
   4348c:	8a400315 	stw	r9,12(r17)
   43490:	8a400215 	stw	r9,8(r17)
   43494:	80c7883a 	add	r3,r16,r3
   43498:	19400015 	stw	r5,0(r3)
   4349c:	9009883a 	mov	r4,r18
   434a0:	005a21c0 	call	5a21c <__malloc_unlock>
   434a4:	80800204 	addi	r2,r16,8
   434a8:	003f4306 	br	431b8 <_malloc_r+0x258>
   434ac:	880ed0fa 	srli	r7,r17,3
   434b0:	88800204 	addi	r2,r17,8
   434b4:	003ebf06 	br	42fb4 <_malloc_r+0x54>
   434b8:	8085883a 	add	r2,r16,r2
   434bc:	10c00117 	ldw	r3,4(r2)
   434c0:	9009883a 	mov	r4,r18
   434c4:	18c00054 	ori	r3,r3,1
   434c8:	10c00115 	stw	r3,4(r2)
   434cc:	005a21c0 	call	5a21c <__malloc_unlock>
   434d0:	80800204 	addi	r2,r16,8
   434d4:	003f3806 	br	431b8 <_malloc_r+0x258>
   434d8:	89000054 	ori	r4,r17,1
   434dc:	81000115 	stw	r4,4(r16)
   434e0:	8463883a 	add	r17,r16,r17
   434e4:	9c400515 	stw	r17,20(r19)
   434e8:	9c400415 	stw	r17,16(r19)
   434ec:	19000054 	ori	r4,r3,1
   434f0:	89000115 	stw	r4,4(r17)
   434f4:	8085883a 	add	r2,r16,r2
   434f8:	8a400315 	stw	r9,12(r17)
   434fc:	8a400215 	stw	r9,8(r17)
   43500:	10c00015 	stw	r3,0(r2)
   43504:	9009883a 	mov	r4,r18
   43508:	005a21c0 	call	5a21c <__malloc_unlock>
   4350c:	80800204 	addi	r2,r16,8
   43510:	003f2906 	br	431b8 <_malloc_r+0x258>
   43514:	1006d1ba 	srli	r3,r2,6
   43518:	19400e44 	addi	r5,r3,57
   4351c:	280a90fa 	slli	r5,r5,3
   43520:	19000e04 	addi	r4,r3,56
   43524:	003fb006 	br	433e8 <_malloc_r+0x488>
   43528:	84c04626 	beq	r16,r19,43644 <_malloc_r+0x6e4>
   4352c:	9c000217 	ldw	r16,8(r19)
   43530:	85400117 	ldw	r21,4(r16)
   43534:	00bfff04 	movi	r2,-4
   43538:	a8aa703a 	and	r21,r21,r2
   4353c:	ac45c83a 	sub	r2,r21,r17
   43540:	ac400236 	bltu	r21,r17,4354c <_malloc_r+0x5ec>
   43544:	10c00408 	cmpgei	r3,r2,16
   43548:	183f931e 	bne	r3,zero,43398 <_malloc_r+0x438>
   4354c:	9009883a 	mov	r4,r18
   43550:	005a21c0 	call	5a21c <__malloc_unlock>
   43554:	0005883a 	mov	r2,zero
   43558:	003f1706 	br	431b8 <_malloc_r+0x258>
   4355c:	11c01704 	addi	r7,r2,92
   43560:	380890fa 	slli	r4,r7,3
   43564:	120016c4 	addi	r8,r2,91
   43568:	003eb606 	br	43044 <_malloc_r+0xe4>
   4356c:	58800217 	ldw	r2,8(r11)
   43570:	39ffffc4 	addi	r7,r7,-1
   43574:	12c0701e 	bne	r2,r11,43738 <_malloc_r+0x7d8>
   43578:	388000cc 	andi	r2,r7,3
   4357c:	5afffe04 	addi	r11,r11,-8
   43580:	103ffa1e 	bne	r2,zero,4356c <_malloc_r+0x60c>
   43584:	98c00117 	ldw	r3,4(r19)
   43588:	0104303a 	nor	r2,zero,r4
   4358c:	10c4703a 	and	r2,r2,r3
   43590:	98800115 	stw	r2,4(r19)
   43594:	2109883a 	add	r4,r4,r4
   43598:	113f2336 	bltu	r2,r4,43228 <_malloc_r+0x2c8>
   4359c:	203f2226 	beq	r4,zero,43228 <_malloc_r+0x2c8>
   435a0:	2086703a 	and	r3,r4,r2
   435a4:	1800041e 	bne	r3,zero,435b8 <_malloc_r+0x658>
   435a8:	2109883a 	add	r4,r4,r4
   435ac:	2086703a 	and	r3,r4,r2
   435b0:	63000104 	addi	r12,r12,4
   435b4:	183ffc26 	beq	r3,zero,435a8 <_malloc_r+0x648>
   435b8:	600f883a 	mov	r7,r12
   435bc:	003ee206 	br	43148 <_malloc_r+0x1e8>
   435c0:	ad400404 	addi	r21,r21,16
   435c4:	003f2b06 	br	43274 <_malloc_r+0x314>
   435c8:	2009d0ba 	srai	r4,r4,2
   435cc:	00800044 	movi	r2,1
   435d0:	99800117 	ldw	r6,4(r19)
   435d4:	1104983a 	sll	r2,r2,r4
   435d8:	1184b03a 	or	r2,r2,r6
   435dc:	98800115 	stw	r2,4(r19)
   435e0:	003f8d06 	br	43418 <_malloc_r+0x4b8>
   435e4:	bd69883a 	add	r20,r23,r21
   435e8:	0529c83a 	sub	r20,zero,r20
   435ec:	a503ffcc 	andi	r20,r20,4095
   435f0:	a00b883a 	mov	r5,r20
   435f4:	9009883a 	mov	r4,r18
   435f8:	0043e800 	call	43e80 <_sbrk_r>
   435fc:	10ffffe0 	cmpeqi	r3,r2,-1
   43600:	183f3f26 	beq	r3,zero,43300 <_malloc_r+0x3a0>
   43604:	0029883a 	mov	r20,zero
   43608:	003f3f06 	br	43308 <_malloc_r+0x3a8>
   4360c:	19001568 	cmpgeui	r4,r3,85
   43610:	2000201e 	bne	r4,zero,43694 <_malloc_r+0x734>
   43614:	1006d33a 	srli	r3,r2,12
   43618:	19401bc4 	addi	r5,r3,111
   4361c:	280a90fa 	slli	r5,r5,3
   43620:	19001b84 	addi	r4,r3,110
   43624:	003f7006 	br	433e8 <_malloc_r+0x488>
   43628:	10c05568 	cmpgeui	r3,r2,341
   4362c:	1800201e 	bne	r3,zero,436b0 <_malloc_r+0x750>
   43630:	8804d3fa 	srli	r2,r17,15
   43634:	11c01e04 	addi	r7,r2,120
   43638:	380890fa 	slli	r4,r7,3
   4363c:	12001dc4 	addi	r8,r2,119
   43640:	003e8006 	br	43044 <_malloc_r+0xe4>
   43644:	008001b4 	movhi	r2,6
   43648:	10c9b317 	ldw	r3,9932(r2)
   4364c:	a8c7883a 	add	r3,r21,r3
   43650:	10c9b315 	stw	r3,9932(r2)
   43654:	003f1406 	br	432a8 <_malloc_r+0x348>
   43658:	e083ffcc 	andi	r2,fp,4095
   4365c:	103f121e 	bne	r2,zero,432a8 <_malloc_r+0x348>
   43660:	9c000217 	ldw	r16,8(r19)
   43664:	b56b883a 	add	r21,r22,r21
   43668:	ad400054 	ori	r21,r21,1
   4366c:	85400115 	stw	r21,4(r16)
   43670:	003f3e06 	br	4336c <_malloc_r+0x40c>
   43674:	008001b4 	movhi	r2,6
   43678:	15ffa315 	stw	r23,-372(r2)
   4367c:	003f1206 	br	432c8 <_malloc_r+0x368>
   43680:	b821883a 	mov	r16,r23
   43684:	003f3906 	br	4336c <_malloc_r+0x40c>
   43688:	00800044 	movi	r2,1
   4368c:	b8800115 	stw	r2,4(r23)
   43690:	003fae06 	br	4354c <_malloc_r+0x5ec>
   43694:	19005568 	cmpgeui	r4,r3,341
   43698:	2000191e 	bne	r4,zero,43700 <_malloc_r+0x7a0>
   4369c:	1006d3fa 	srli	r3,r2,15
   436a0:	19401e04 	addi	r5,r3,120
   436a4:	280a90fa 	slli	r5,r5,3
   436a8:	19001dc4 	addi	r4,r3,119
   436ac:	003f4e06 	br	433e8 <_malloc_r+0x488>
   436b0:	10815568 	cmpgeui	r2,r2,1365
   436b4:	1000191e 	bne	r2,zero,4371c <_malloc_r+0x7bc>
   436b8:	8804d4ba 	srli	r2,r17,18
   436bc:	11c01f44 	addi	r7,r2,125
   436c0:	380890fa 	slli	r4,r7,3
   436c4:	12001f04 	addi	r8,r2,124
   436c8:	003e5e06 	br	43044 <_malloc_r+0xe4>
   436cc:	e73ffe04 	addi	fp,fp,-8
   436d0:	af2b883a 	add	r21,r21,fp
   436d4:	adebc83a 	sub	r21,r21,r23
   436d8:	0029883a 	mov	r20,zero
   436dc:	003f0a06 	br	43308 <_malloc_r+0x3a8>
   436e0:	81400204 	addi	r5,r16,8
   436e4:	9009883a 	mov	r4,r18
   436e8:	00423cc0 	call	423cc <_free_r>
   436ec:	9c000217 	ldw	r16,8(r19)
   436f0:	008001b4 	movhi	r2,6
   436f4:	1509b317 	ldw	r20,9932(r2)
   436f8:	85400117 	ldw	r21,4(r16)
   436fc:	003f1b06 	br	4336c <_malloc_r+0x40c>
   43700:	18c15568 	cmpgeui	r3,r3,1365
   43704:	1800091e 	bne	r3,zero,4372c <_malloc_r+0x7cc>
   43708:	1006d4ba 	srli	r3,r2,18
   4370c:	19401f44 	addi	r5,r3,125
   43710:	280a90fa 	slli	r5,r5,3
   43714:	19001f04 	addi	r4,r3,124
   43718:	003f3306 	br	433e8 <_malloc_r+0x488>
   4371c:	0100fe04 	movi	r4,1016
   43720:	01c01fc4 	movi	r7,127
   43724:	02001f84 	movi	r8,126
   43728:	003e4606 	br	43044 <_malloc_r+0xe4>
   4372c:	0140fe04 	movi	r5,1016
   43730:	01001f84 	movi	r4,126
   43734:	003f2c06 	br	433e8 <_malloc_r+0x488>
   43738:	98800117 	ldw	r2,4(r19)
   4373c:	003f9506 	br	43594 <_malloc_r+0x634>

00043740 <memchr>:
   43740:	208000cc 	andi	r2,r4,3
   43744:	280f883a 	mov	r7,r5
   43748:	10000e26 	beq	r2,zero,43784 <memchr+0x44>
   4374c:	30bfffc4 	addi	r2,r6,-1
   43750:	30001726 	beq	r6,zero,437b0 <memchr+0x70>
   43754:	29803fcc 	andi	r6,r5,255
   43758:	00000606 	br	43774 <memchr+0x34>
   4375c:	21000044 	addi	r4,r4,1
   43760:	20c000cc 	andi	r3,r4,3
   43764:	18000826 	beq	r3,zero,43788 <memchr+0x48>
   43768:	10bfffc4 	addi	r2,r2,-1
   4376c:	10ffffe0 	cmpeqi	r3,r2,-1
   43770:	18000f1e 	bne	r3,zero,437b0 <memchr+0x70>
   43774:	20c00003 	ldbu	r3,0(r4)
   43778:	19bff81e 	bne	r3,r6,4375c <memchr+0x1c>
   4377c:	2005883a 	mov	r2,r4
   43780:	f800283a 	ret
   43784:	3005883a 	mov	r2,r6
   43788:	10c00128 	cmpgeui	r3,r2,4
   4378c:	18000a1e 	bne	r3,zero,437b8 <memchr+0x78>
   43790:	10001e26 	beq	r2,zero,4380c <memchr+0xcc>
   43794:	2087883a 	add	r3,r4,r2
   43798:	39803fcc 	andi	r6,r7,255
   4379c:	2005883a 	mov	r2,r4
   437a0:	11000003 	ldbu	r4,0(r2)
   437a4:	21bff626 	beq	r4,r6,43780 <memchr+0x40>
   437a8:	10800044 	addi	r2,r2,1
   437ac:	18bffc1e 	bne	r3,r2,437a0 <memchr+0x60>
   437b0:	0005883a 	mov	r2,zero
   437b4:	f800283a 	ret
   437b8:	29403fcc 	andi	r5,r5,255
   437bc:	280c923a 	slli	r6,r5,8
   437c0:	027fbff4 	movhi	r9,65279
   437c4:	02202074 	movhi	r8,32897
   437c8:	314ab03a 	or	r5,r6,r5
   437cc:	280c943a 	slli	r6,r5,16
   437d0:	4a7fbfc4 	addi	r9,r9,-257
   437d4:	42202004 	addi	r8,r8,-32640
   437d8:	314cb03a 	or	r6,r6,r5
   437dc:	20c00017 	ldw	r3,0(r4)
   437e0:	30c6f03a 	xor	r3,r6,r3
   437e4:	1a4b883a 	add	r5,r3,r9
   437e8:	00c6303a 	nor	r3,zero,r3
   437ec:	28c6703a 	and	r3,r5,r3
   437f0:	1a06703a 	and	r3,r3,r8
   437f4:	183fe71e 	bne	r3,zero,43794 <memchr+0x54>
   437f8:	10bfff04 	addi	r2,r2,-4
   437fc:	10c00128 	cmpgeui	r3,r2,4
   43800:	21000104 	addi	r4,r4,4
   43804:	183ff51e 	bne	r3,zero,437dc <memchr+0x9c>
   43808:	003fe106 	br	43790 <memchr+0x50>
   4380c:	f800283a 	ret

00043810 <memcpy>:
   43810:	30c00430 	cmpltui	r3,r6,16
   43814:	2005883a 	mov	r2,r4
   43818:	18002d1e 	bne	r3,zero,438d0 <memcpy+0xc0>
   4381c:	2906b03a 	or	r3,r5,r4
   43820:	18c000cc 	andi	r3,r3,3
   43824:	1800351e 	bne	r3,zero,438fc <memcpy+0xec>
   43828:	32fffc04 	addi	r11,r6,-16
   4382c:	5816d13a 	srli	r11,r11,4
   43830:	280f883a 	mov	r7,r5
   43834:	2007883a 	mov	r3,r4
   43838:	5ac00044 	addi	r11,r11,1
   4383c:	5816913a 	slli	r11,r11,4
   43840:	22d5883a 	add	r10,r4,r11
   43844:	39000117 	ldw	r4,4(r7)
   43848:	3a400017 	ldw	r9,0(r7)
   4384c:	3a000217 	ldw	r8,8(r7)
   43850:	19000115 	stw	r4,4(r3)
   43854:	39000317 	ldw	r4,12(r7)
   43858:	1a400015 	stw	r9,0(r3)
   4385c:	1a000215 	stw	r8,8(r3)
   43860:	19000315 	stw	r4,12(r3)
   43864:	18c00404 	addi	r3,r3,16
   43868:	39c00404 	addi	r7,r7,16
   4386c:	50fff51e 	bne	r10,r3,43844 <memcpy+0x34>
   43870:	3100030c 	andi	r4,r6,12
   43874:	2acb883a 	add	r5,r5,r11
   43878:	320003cc 	andi	r8,r6,15
   4387c:	20002226 	beq	r4,zero,43908 <memcpy+0xf8>
   43880:	280f883a 	mov	r7,r5
   43884:	1813883a 	mov	r9,r3
   43888:	39c00104 	addi	r7,r7,4
   4388c:	3abfff17 	ldw	r10,-4(r7)
   43890:	41c9c83a 	sub	r4,r8,r7
   43894:	2909883a 	add	r4,r5,r4
   43898:	4a800015 	stw	r10,0(r9)
   4389c:	21000128 	cmpgeui	r4,r4,4
   438a0:	4a400104 	addi	r9,r9,4
   438a4:	203ff81e 	bne	r4,zero,43888 <memcpy+0x78>
   438a8:	413fff04 	addi	r4,r8,-4
   438ac:	2008d0ba 	srli	r4,r4,2
   438b0:	318000cc 	andi	r6,r6,3
   438b4:	31ffffc4 	addi	r7,r6,-1
   438b8:	21000044 	addi	r4,r4,1
   438bc:	200890ba 	slli	r4,r4,2
   438c0:	1907883a 	add	r3,r3,r4
   438c4:	290b883a 	add	r5,r5,r4
   438c8:	3000041e 	bne	r6,zero,438dc <memcpy+0xcc>
   438cc:	f800283a 	ret
   438d0:	2007883a 	mov	r3,r4
   438d4:	31ffffc4 	addi	r7,r6,-1
   438d8:	303ffc26 	beq	r6,zero,438cc <memcpy+0xbc>
   438dc:	39c00044 	addi	r7,r7,1
   438e0:	19cf883a 	add	r7,r3,r7
   438e4:	29800003 	ldbu	r6,0(r5)
   438e8:	18c00044 	addi	r3,r3,1
   438ec:	29400044 	addi	r5,r5,1
   438f0:	19bfffc5 	stb	r6,-1(r3)
   438f4:	38fffb1e 	bne	r7,r3,438e4 <memcpy+0xd4>
   438f8:	f800283a 	ret
   438fc:	31ffffc4 	addi	r7,r6,-1
   43900:	2007883a 	mov	r3,r4
   43904:	003ff506 	br	438dc <memcpy+0xcc>
   43908:	400d883a 	mov	r6,r8
   4390c:	003ff106 	br	438d4 <memcpy+0xc4>

00043910 <memset>:
   43910:	20c000cc 	andi	r3,r4,3
   43914:	2005883a 	mov	r2,r4
   43918:	18003626 	beq	r3,zero,439f4 <memset+0xe4>
   4391c:	31ffffc4 	addi	r7,r6,-1
   43920:	30003326 	beq	r6,zero,439f0 <memset+0xe0>
   43924:	2811883a 	mov	r8,r5
   43928:	2007883a 	mov	r3,r4
   4392c:	00000306 	br	4393c <memset+0x2c>
   43930:	39ffffc4 	addi	r7,r7,-1
   43934:	39bfffe0 	cmpeqi	r6,r7,-1
   43938:	30002d1e 	bne	r6,zero,439f0 <memset+0xe0>
   4393c:	18c00044 	addi	r3,r3,1
   43940:	198000cc 	andi	r6,r3,3
   43944:	1a3fffc5 	stb	r8,-1(r3)
   43948:	303ff91e 	bne	r6,zero,43930 <memset+0x20>
   4394c:	39000130 	cmpltui	r4,r7,4
   43950:	2000221e 	bne	r4,zero,439dc <memset+0xcc>
   43954:	29003fcc 	andi	r4,r5,255
   43958:	200c923a 	slli	r6,r4,8
   4395c:	3a000430 	cmpltui	r8,r7,16
   43960:	3108b03a 	or	r4,r6,r4
   43964:	200c943a 	slli	r6,r4,16
   43968:	310cb03a 	or	r6,r6,r4
   4396c:	40000e1e 	bne	r8,zero,439a8 <memset+0x98>
   43970:	393ffc04 	addi	r4,r7,-16
   43974:	2008d13a 	srli	r4,r4,4
   43978:	21000044 	addi	r4,r4,1
   4397c:	2008913a 	slli	r4,r4,4
   43980:	1909883a 	add	r4,r3,r4
   43984:	19800015 	stw	r6,0(r3)
   43988:	19800115 	stw	r6,4(r3)
   4398c:	19800215 	stw	r6,8(r3)
   43990:	19800315 	stw	r6,12(r3)
   43994:	18c00404 	addi	r3,r3,16
   43998:	20fffa1e 	bne	r4,r3,43984 <memset+0x74>
   4399c:	3900030c 	andi	r4,r7,12
   439a0:	39c003cc 	andi	r7,r7,15
   439a4:	20000d26 	beq	r4,zero,439dc <memset+0xcc>
   439a8:	1811883a 	mov	r8,r3
   439ac:	42000104 	addi	r8,r8,4
   439b0:	3a09c83a 	sub	r4,r7,r8
   439b4:	1909883a 	add	r4,r3,r4
   439b8:	21000128 	cmpgeui	r4,r4,4
   439bc:	41bfff15 	stw	r6,-4(r8)
   439c0:	203ffa1e 	bne	r4,zero,439ac <memset+0x9c>
   439c4:	393fff04 	addi	r4,r7,-4
   439c8:	2008d0ba 	srli	r4,r4,2
   439cc:	39c000cc 	andi	r7,r7,3
   439d0:	21000044 	addi	r4,r4,1
   439d4:	200890ba 	slli	r4,r4,2
   439d8:	1907883a 	add	r3,r3,r4
   439dc:	38000426 	beq	r7,zero,439f0 <memset+0xe0>
   439e0:	19cf883a 	add	r7,r3,r7
   439e4:	18c00044 	addi	r3,r3,1
   439e8:	197fffc5 	stb	r5,-1(r3)
   439ec:	38fffd1e 	bne	r7,r3,439e4 <memset+0xd4>
   439f0:	f800283a 	ret
   439f4:	2007883a 	mov	r3,r4
   439f8:	300f883a 	mov	r7,r6
   439fc:	003fd306 	br	4394c <memset+0x3c>

00043a00 <_open_r>:
   43a00:	2807883a 	mov	r3,r5
   43a04:	defffe04 	addi	sp,sp,-8
   43a08:	dc000015 	stw	r16,0(sp)
   43a0c:	300b883a 	mov	r5,r6
   43a10:	008001b4 	movhi	r2,6
   43a14:	380d883a 	mov	r6,r7
   43a18:	2021883a 	mov	r16,r4
   43a1c:	1809883a 	mov	r4,r3
   43a20:	dfc00115 	stw	ra,4(sp)
   43a24:	1008a615 	stw	zero,8856(r2)
   43a28:	005a3340 	call	5a334 <open>
   43a2c:	10ffffd8 	cmpnei	r3,r2,-1
   43a30:	18000426 	beq	r3,zero,43a44 <_open_r+0x44>
   43a34:	dfc00117 	ldw	ra,4(sp)
   43a38:	dc000017 	ldw	r16,0(sp)
   43a3c:	dec00204 	addi	sp,sp,8
   43a40:	f800283a 	ret
   43a44:	00c001b4 	movhi	r3,6
   43a48:	18c8a617 	ldw	r3,8856(r3)
   43a4c:	183ff926 	beq	r3,zero,43a34 <_open_r+0x34>
   43a50:	80c00015 	stw	r3,0(r16)
   43a54:	dfc00117 	ldw	ra,4(sp)
   43a58:	dc000017 	ldw	r16,0(sp)
   43a5c:	dec00204 	addi	sp,sp,8
   43a60:	f800283a 	ret

00043a64 <_printf_r>:
   43a64:	defffd04 	addi	sp,sp,-12
   43a68:	2805883a 	mov	r2,r5
   43a6c:	dfc00015 	stw	ra,0(sp)
   43a70:	d9800115 	stw	r6,4(sp)
   43a74:	d9c00215 	stw	r7,8(sp)
   43a78:	21400217 	ldw	r5,8(r4)
   43a7c:	d9c00104 	addi	r7,sp,4
   43a80:	100d883a 	mov	r6,r2
   43a84:	00484600 	call	48460 <___vfprintf_internal_r>
   43a88:	dfc00017 	ldw	ra,0(sp)
   43a8c:	dec00304 	addi	sp,sp,12
   43a90:	f800283a 	ret

00043a94 <printf>:
   43a94:	defffc04 	addi	sp,sp,-16
   43a98:	dfc00015 	stw	ra,0(sp)
   43a9c:	d9400115 	stw	r5,4(sp)
   43aa0:	d9800215 	stw	r6,8(sp)
   43aa4:	d9c00315 	stw	r7,12(sp)
   43aa8:	008001b4 	movhi	r2,6
   43aac:	10bfa217 	ldw	r2,-376(r2)
   43ab0:	200b883a 	mov	r5,r4
   43ab4:	d9800104 	addi	r6,sp,4
   43ab8:	11000217 	ldw	r4,8(r2)
   43abc:	004a4680 	call	4a468 <__vfprintf_internal>
   43ac0:	dfc00017 	ldw	ra,0(sp)
   43ac4:	dec00404 	addi	sp,sp,16
   43ac8:	f800283a 	ret

00043acc <_puts_r>:
   43acc:	defff504 	addi	sp,sp,-44
   43ad0:	dc000815 	stw	r16,32(sp)
   43ad4:	2021883a 	mov	r16,r4
   43ad8:	2809883a 	mov	r4,r5
   43adc:	dc400915 	stw	r17,36(sp)
   43ae0:	dfc00a15 	stw	ra,40(sp)
   43ae4:	2823883a 	mov	r17,r5
   43ae8:	00444f40 	call	444f4 <strlen>
   43aec:	11000044 	addi	r4,r2,1
   43af0:	d8800515 	stw	r2,20(sp)
   43af4:	00800044 	movi	r2,1
   43af8:	00c001b4 	movhi	r3,6
   43afc:	d8800715 	stw	r2,28(sp)
   43b00:	d8800404 	addi	r2,sp,16
   43b04:	18f49604 	addi	r3,r3,-11688
   43b08:	d8800115 	stw	r2,4(sp)
   43b0c:	00800084 	movi	r2,2
   43b10:	dc400415 	stw	r17,16(sp)
   43b14:	d8c00615 	stw	r3,24(sp)
   43b18:	d9000315 	stw	r4,12(sp)
   43b1c:	d8800215 	stw	r2,8(sp)
   43b20:	81400217 	ldw	r5,8(r16)
   43b24:	80000226 	beq	r16,zero,43b30 <_puts_r+0x64>
   43b28:	80800e17 	ldw	r2,56(r16)
   43b2c:	10001326 	beq	r2,zero,43b7c <_puts_r+0xb0>
   43b30:	2880030b 	ldhu	r2,12(r5)
   43b34:	10c8000c 	andi	r3,r2,8192
   43b38:	1800061e 	bne	r3,zero,43b54 <_puts_r+0x88>
   43b3c:	28c01917 	ldw	r3,100(r5)
   43b40:	0137ffc4 	movi	r4,-8193
   43b44:	10880014 	ori	r2,r2,8192
   43b48:	1906703a 	and	r3,r3,r4
   43b4c:	2880030d 	sth	r2,12(r5)
   43b50:	28c01915 	stw	r3,100(r5)
   43b54:	d9800104 	addi	r6,sp,4
   43b58:	8009883a 	mov	r4,r16
   43b5c:	004c3000 	call	4c300 <__sfvwrite_r>
   43b60:	10000b1e 	bne	r2,zero,43b90 <_puts_r+0xc4>
   43b64:	00800284 	movi	r2,10
   43b68:	dfc00a17 	ldw	ra,40(sp)
   43b6c:	dc400917 	ldw	r17,36(sp)
   43b70:	dc000817 	ldw	r16,32(sp)
   43b74:	dec00b04 	addi	sp,sp,44
   43b78:	f800283a 	ret
   43b7c:	8009883a 	mov	r4,r16
   43b80:	d9400015 	stw	r5,0(sp)
   43b84:	00421140 	call	42114 <__sinit>
   43b88:	d9400017 	ldw	r5,0(sp)
   43b8c:	003fe806 	br	43b30 <_puts_r+0x64>
   43b90:	00bfffc4 	movi	r2,-1
   43b94:	003ff406 	br	43b68 <_puts_r+0x9c>

00043b98 <puts>:
   43b98:	008001b4 	movhi	r2,6
   43b9c:	200b883a 	mov	r5,r4
   43ba0:	113fa217 	ldw	r4,-376(r2)
   43ba4:	0043acc1 	jmpi	43acc <_puts_r>

00043ba8 <lflush>:
   43ba8:	2080030b 	ldhu	r2,12(r4)
   43bac:	1080024c 	andi	r2,r2,9
   43bb0:	10800258 	cmpnei	r2,r2,9
   43bb4:	10000226 	beq	r2,zero,43bc0 <lflush+0x18>
   43bb8:	0005883a 	mov	r2,zero
   43bbc:	f800283a 	ret
   43bc0:	0041a5c1 	jmpi	41a5c <fflush>

00043bc4 <__srefill_r>:
   43bc4:	defffc04 	addi	sp,sp,-16
   43bc8:	dc400115 	stw	r17,4(sp)
   43bcc:	dc000015 	stw	r16,0(sp)
   43bd0:	dfc00315 	stw	ra,12(sp)
   43bd4:	dc800215 	stw	r18,8(sp)
   43bd8:	2023883a 	mov	r17,r4
   43bdc:	2821883a 	mov	r16,r5
   43be0:	20000226 	beq	r4,zero,43bec <__srefill_r+0x28>
   43be4:	20800e17 	ldw	r2,56(r4)
   43be8:	10003a26 	beq	r2,zero,43cd4 <__srefill_r+0x110>
   43bec:	80c0030b 	ldhu	r3,12(r16)
   43bf0:	1908000c 	andi	r4,r3,8192
   43bf4:	1805883a 	mov	r2,r3
   43bf8:	2000071e 	bne	r4,zero,43c18 <__srefill_r+0x54>
   43bfc:	81001917 	ldw	r4,100(r16)
   43c00:	18880014 	ori	r2,r3,8192
   43c04:	00f7ffc4 	movi	r3,-8193
   43c08:	20c8703a 	and	r4,r4,r3
   43c0c:	8080030d 	sth	r2,12(r16)
   43c10:	1007883a 	mov	r3,r2
   43c14:	81001915 	stw	r4,100(r16)
   43c18:	80000115 	stw	zero,4(r16)
   43c1c:	1100080c 	andi	r4,r2,32
   43c20:	20004d1e 	bne	r4,zero,43d58 <__srefill_r+0x194>
   43c24:	1100010c 	andi	r4,r2,4
   43c28:	20001c1e 	bne	r4,zero,43c9c <__srefill_r+0xd8>
   43c2c:	1100040c 	andi	r4,r2,16
   43c30:	20005126 	beq	r4,zero,43d78 <__srefill_r+0x1b4>
   43c34:	1080020c 	andi	r2,r2,8
   43c38:	1000371e 	bne	r2,zero,43d18 <__srefill_r+0x154>
   43c3c:	18c00114 	ori	r3,r3,4
   43c40:	80c0030d 	sth	r3,12(r16)
   43c44:	80800417 	ldw	r2,16(r16)
   43c48:	10003c26 	beq	r2,zero,43d3c <__srefill_r+0x178>
   43c4c:	8480030b 	ldhu	r18,12(r16)
   43c50:	908000cc 	andi	r2,r18,3
   43c54:	1000211e 	bne	r2,zero,43cdc <__srefill_r+0x118>
   43c58:	81800417 	ldw	r6,16(r16)
   43c5c:	80800817 	ldw	r2,32(r16)
   43c60:	81c00517 	ldw	r7,20(r16)
   43c64:	81400717 	ldw	r5,28(r16)
   43c68:	81800015 	stw	r6,0(r16)
   43c6c:	8809883a 	mov	r4,r17
   43c70:	103ee83a 	callr	r2
   43c74:	1007883a 	mov	r3,r2
   43c78:	80800115 	stw	r2,4(r16)
   43c7c:	0005883a 	mov	r2,zero
   43c80:	00c0370e 	bge	zero,r3,43d60 <__srefill_r+0x19c>
   43c84:	dfc00317 	ldw	ra,12(sp)
   43c88:	dc800217 	ldw	r18,8(sp)
   43c8c:	dc400117 	ldw	r17,4(sp)
   43c90:	dc000017 	ldw	r16,0(sp)
   43c94:	dec00404 	addi	sp,sp,16
   43c98:	f800283a 	ret
   43c9c:	81400c17 	ldw	r5,48(r16)
   43ca0:	283fe826 	beq	r5,zero,43c44 <__srefill_r+0x80>
   43ca4:	80801004 	addi	r2,r16,64
   43ca8:	28800226 	beq	r5,r2,43cb4 <__srefill_r+0xf0>
   43cac:	8809883a 	mov	r4,r17
   43cb0:	00423cc0 	call	423cc <_free_r>
   43cb4:	80800f17 	ldw	r2,60(r16)
   43cb8:	80000c15 	stw	zero,48(r16)
   43cbc:	80800115 	stw	r2,4(r16)
   43cc0:	103fe026 	beq	r2,zero,43c44 <__srefill_r+0x80>
   43cc4:	80c00e17 	ldw	r3,56(r16)
   43cc8:	0005883a 	mov	r2,zero
   43ccc:	80c00015 	stw	r3,0(r16)
   43cd0:	003fec06 	br	43c84 <__srefill_r+0xc0>
   43cd4:	00421140 	call	42114 <__sinit>
   43cd8:	003fc406 	br	43bec <__srefill_r+0x28>
   43cdc:	008001b4 	movhi	r2,6
   43ce0:	113fa117 	ldw	r4,-380(r2)
   43ce4:	01400134 	movhi	r5,4
   43ce8:	00800044 	movi	r2,1
   43cec:	8080030d 	sth	r2,12(r16)
   43cf0:	294eea04 	addi	r5,r5,15272
   43cf4:	0042bb80 	call	42bb8 <_fwalk>
   43cf8:	9080024c 	andi	r2,r18,9
   43cfc:	8480030d 	sth	r18,12(r16)
   43d00:	10800258 	cmpnei	r2,r2,9
   43d04:	103fd41e 	bne	r2,zero,43c58 <__srefill_r+0x94>
   43d08:	800b883a 	mov	r5,r16
   43d0c:	8809883a 	mov	r4,r17
   43d10:	00417d40 	call	417d4 <__sflush_r>
   43d14:	003fd006 	br	43c58 <__srefill_r+0x94>
   43d18:	800b883a 	mov	r5,r16
   43d1c:	8809883a 	mov	r4,r17
   43d20:	00419fc0 	call	419fc <_fflush_r>
   43d24:	10000c1e 	bne	r2,zero,43d58 <__srefill_r+0x194>
   43d28:	80c0030b 	ldhu	r3,12(r16)
   43d2c:	80000215 	stw	zero,8(r16)
   43d30:	80000615 	stw	zero,24(r16)
   43d34:	18fffdcc 	andi	r3,r3,65527
   43d38:	003fc006 	br	43c3c <__srefill_r+0x78>
   43d3c:	800b883a 	mov	r5,r16
   43d40:	8809883a 	mov	r4,r17
   43d44:	0042cf80 	call	42cf8 <__smakebuf_r>
   43d48:	003fc006 	br	43c4c <__srefill_r+0x88>
   43d4c:	10801014 	ori	r2,r2,64
   43d50:	80000115 	stw	zero,4(r16)
   43d54:	8080030d 	sth	r2,12(r16)
   43d58:	00bfffc4 	movi	r2,-1
   43d5c:	003fc906 	br	43c84 <__srefill_r+0xc0>
   43d60:	8080030b 	ldhu	r2,12(r16)
   43d64:	183ff91e 	bne	r3,zero,43d4c <__srefill_r+0x188>
   43d68:	10800814 	ori	r2,r2,32
   43d6c:	8080030d 	sth	r2,12(r16)
   43d70:	00bfffc4 	movi	r2,-1
   43d74:	003fc306 	br	43c84 <__srefill_r+0xc0>
   43d78:	00800244 	movi	r2,9
   43d7c:	88800015 	stw	r2,0(r17)
   43d80:	18c01014 	ori	r3,r3,64
   43d84:	80c0030d 	sth	r3,12(r16)
   43d88:	00bfffc4 	movi	r2,-1
   43d8c:	003fbd06 	br	43c84 <__srefill_r+0xc0>

00043d90 <__srget_r>:
   43d90:	defffd04 	addi	sp,sp,-12
   43d94:	dc400115 	stw	r17,4(sp)
   43d98:	dc000015 	stw	r16,0(sp)
   43d9c:	dfc00215 	stw	ra,8(sp)
   43da0:	2023883a 	mov	r17,r4
   43da4:	2821883a 	mov	r16,r5
   43da8:	20000226 	beq	r4,zero,43db4 <__srget_r+0x24>
   43dac:	20800e17 	ldw	r2,56(r4)
   43db0:	10001026 	beq	r2,zero,43df4 <__srget_r+0x64>
   43db4:	800b883a 	mov	r5,r16
   43db8:	8809883a 	mov	r4,r17
   43dbc:	0043bc40 	call	43bc4 <__srefill_r>
   43dc0:	10000e1e 	bne	r2,zero,43dfc <__srget_r+0x6c>
   43dc4:	80c00017 	ldw	r3,0(r16)
   43dc8:	80800117 	ldw	r2,4(r16)
   43dcc:	19000044 	addi	r4,r3,1
   43dd0:	10bfffc4 	addi	r2,r2,-1
   43dd4:	80800115 	stw	r2,4(r16)
   43dd8:	81000015 	stw	r4,0(r16)
   43ddc:	18800003 	ldbu	r2,0(r3)
   43de0:	dfc00217 	ldw	ra,8(sp)
   43de4:	dc400117 	ldw	r17,4(sp)
   43de8:	dc000017 	ldw	r16,0(sp)
   43dec:	dec00304 	addi	sp,sp,12
   43df0:	f800283a 	ret
   43df4:	00421140 	call	42114 <__sinit>
   43df8:	003fee06 	br	43db4 <__srget_r+0x24>
   43dfc:	00bfffc4 	movi	r2,-1
   43e00:	003ff706 	br	43de0 <__srget_r+0x50>

00043e04 <__srget>:
   43e04:	defffd04 	addi	sp,sp,-12
   43e08:	008001b4 	movhi	r2,6
   43e0c:	dc400115 	stw	r17,4(sp)
   43e10:	147fa217 	ldw	r17,-376(r2)
   43e14:	dc000015 	stw	r16,0(sp)
   43e18:	dfc00215 	stw	ra,8(sp)
   43e1c:	2021883a 	mov	r16,r4
   43e20:	88000226 	beq	r17,zero,43e2c <__srget+0x28>
   43e24:	88800e17 	ldw	r2,56(r17)
   43e28:	10001026 	beq	r2,zero,43e6c <__srget+0x68>
   43e2c:	800b883a 	mov	r5,r16
   43e30:	8809883a 	mov	r4,r17
   43e34:	0043bc40 	call	43bc4 <__srefill_r>
   43e38:	10000f1e 	bne	r2,zero,43e78 <__srget+0x74>
   43e3c:	80c00017 	ldw	r3,0(r16)
   43e40:	80800117 	ldw	r2,4(r16)
   43e44:	19000044 	addi	r4,r3,1
   43e48:	10bfffc4 	addi	r2,r2,-1
   43e4c:	80800115 	stw	r2,4(r16)
   43e50:	81000015 	stw	r4,0(r16)
   43e54:	18800003 	ldbu	r2,0(r3)
   43e58:	dfc00217 	ldw	ra,8(sp)
   43e5c:	dc400117 	ldw	r17,4(sp)
   43e60:	dc000017 	ldw	r16,0(sp)
   43e64:	dec00304 	addi	sp,sp,12
   43e68:	f800283a 	ret
   43e6c:	8809883a 	mov	r4,r17
   43e70:	00421140 	call	42114 <__sinit>
   43e74:	003fed06 	br	43e2c <__srget+0x28>
   43e78:	00bfffc4 	movi	r2,-1
   43e7c:	003ff606 	br	43e58 <__srget+0x54>

00043e80 <_sbrk_r>:
   43e80:	defffe04 	addi	sp,sp,-8
   43e84:	dc000015 	stw	r16,0(sp)
   43e88:	008001b4 	movhi	r2,6
   43e8c:	2021883a 	mov	r16,r4
   43e90:	2809883a 	mov	r4,r5
   43e94:	dfc00115 	stw	ra,4(sp)
   43e98:	1008a615 	stw	zero,8856(r2)
   43e9c:	005a6180 	call	5a618 <sbrk>
   43ea0:	10ffffd8 	cmpnei	r3,r2,-1
   43ea4:	18000426 	beq	r3,zero,43eb8 <_sbrk_r+0x38>
   43ea8:	dfc00117 	ldw	ra,4(sp)
   43eac:	dc000017 	ldw	r16,0(sp)
   43eb0:	dec00204 	addi	sp,sp,8
   43eb4:	f800283a 	ret
   43eb8:	00c001b4 	movhi	r3,6
   43ebc:	18c8a617 	ldw	r3,8856(r3)
   43ec0:	183ff926 	beq	r3,zero,43ea8 <_sbrk_r+0x28>
   43ec4:	80c00015 	stw	r3,0(r16)
   43ec8:	dfc00117 	ldw	ra,4(sp)
   43ecc:	dc000017 	ldw	r16,0(sp)
   43ed0:	dec00204 	addi	sp,sp,8
   43ed4:	f800283a 	ret

00043ed8 <_sprintf_r>:
   43ed8:	deffe404 	addi	sp,sp,-112
   43edc:	2807883a 	mov	r3,r5
   43ee0:	dfc01a15 	stw	ra,104(sp)
   43ee4:	d9c01b15 	stw	r7,108(sp)
   43ee8:	00a00034 	movhi	r2,32768
   43eec:	023ffff4 	movhi	r8,65535
   43ef0:	10bfffc4 	addi	r2,r2,-1
   43ef4:	42008204 	addi	r8,r8,520
   43ef8:	d9c01b04 	addi	r7,sp,108
   43efc:	d80b883a 	mov	r5,sp
   43f00:	d8c00015 	stw	r3,0(sp)
   43f04:	d8c00415 	stw	r3,16(sp)
   43f08:	d8800515 	stw	r2,20(sp)
   43f0c:	d8800215 	stw	r2,8(sp)
   43f10:	da000315 	stw	r8,12(sp)
   43f14:	0044c000 	call	44c00 <___svfprintf_internal_r>
   43f18:	d8c00017 	ldw	r3,0(sp)
   43f1c:	18000005 	stb	zero,0(r3)
   43f20:	dfc01a17 	ldw	ra,104(sp)
   43f24:	dec01c04 	addi	sp,sp,112
   43f28:	f800283a 	ret

00043f2c <sprintf>:
   43f2c:	deffe304 	addi	sp,sp,-116
   43f30:	2007883a 	mov	r3,r4
   43f34:	dfc01a15 	stw	ra,104(sp)
   43f38:	d9801b15 	stw	r6,108(sp)
   43f3c:	d9c01c15 	stw	r7,112(sp)
   43f40:	008001b4 	movhi	r2,6
   43f44:	113fa217 	ldw	r4,-376(r2)
   43f48:	023ffff4 	movhi	r8,65535
   43f4c:	00a00034 	movhi	r2,32768
   43f50:	10bfffc4 	addi	r2,r2,-1
   43f54:	42008204 	addi	r8,r8,520
   43f58:	280d883a 	mov	r6,r5
   43f5c:	d9c01b04 	addi	r7,sp,108
   43f60:	d80b883a 	mov	r5,sp
   43f64:	d8c00015 	stw	r3,0(sp)
   43f68:	d8c00415 	stw	r3,16(sp)
   43f6c:	d8800515 	stw	r2,20(sp)
   43f70:	d8800215 	stw	r2,8(sp)
   43f74:	da000315 	stw	r8,12(sp)
   43f78:	0044c000 	call	44c00 <___svfprintf_internal_r>
   43f7c:	d8c00017 	ldw	r3,0(sp)
   43f80:	18000005 	stb	zero,0(r3)
   43f84:	dfc01a17 	ldw	ra,104(sp)
   43f88:	dec01d04 	addi	sp,sp,116
   43f8c:	f800283a 	ret

00043f90 <sscanf>:
   43f90:	deffe204 	addi	sp,sp,-120
   43f94:	dc001a15 	stw	r16,104(sp)
   43f98:	2821883a 	mov	r16,r5
   43f9c:	dfc01b15 	stw	ra,108(sp)
   43fa0:	d9801c15 	stw	r6,112(sp)
   43fa4:	d9c01d15 	stw	r7,116(sp)
   43fa8:	00c08104 	movi	r3,516
   43fac:	d8c0030d 	sth	r3,12(sp)
   43fb0:	d9000015 	stw	r4,0(sp)
   43fb4:	d9000415 	stw	r4,16(sp)
   43fb8:	00444f40 	call	444f4 <strlen>
   43fbc:	00c001b4 	movhi	r3,6
   43fc0:	193fa217 	ldw	r4,-376(r3)
   43fc4:	00c00134 	movhi	r3,4
   43fc8:	18d03704 	addi	r3,r3,16604
   43fcc:	d8800115 	stw	r2,4(sp)
   43fd0:	d8800515 	stw	r2,20(sp)
   43fd4:	d9c01c04 	addi	r7,sp,112
   43fd8:	800d883a 	mov	r6,r16
   43fdc:	d80b883a 	mov	r5,sp
   43fe0:	00bfffc4 	movi	r2,-1
   43fe4:	d8c00815 	stw	r3,32(sp)
   43fe8:	d8000c15 	stw	zero,48(sp)
   43fec:	d8001115 	stw	zero,68(sp)
   43ff0:	d880038d 	sth	r2,14(sp)
   43ff4:	0046b900 	call	46b90 <__ssvfscanf_r>
   43ff8:	dfc01b17 	ldw	ra,108(sp)
   43ffc:	dc001a17 	ldw	r16,104(sp)
   44000:	dec01e04 	addi	sp,sp,120
   44004:	f800283a 	ret

00044008 <_sscanf_r>:
   44008:	deffe204 	addi	sp,sp,-120
   4400c:	dc401b15 	stw	r17,108(sp)
   44010:	dc001a15 	stw	r16,104(sp)
   44014:	3023883a 	mov	r17,r6
   44018:	2021883a 	mov	r16,r4
   4401c:	2809883a 	mov	r4,r5
   44020:	dfc01c15 	stw	ra,112(sp)
   44024:	d9c01d15 	stw	r7,116(sp)
   44028:	00808104 	movi	r2,516
   4402c:	d9400015 	stw	r5,0(sp)
   44030:	d9400415 	stw	r5,16(sp)
   44034:	d880030d 	sth	r2,12(sp)
   44038:	00444f40 	call	444f4 <strlen>
   4403c:	00c00134 	movhi	r3,4
   44040:	18d03704 	addi	r3,r3,16604
   44044:	d8800115 	stw	r2,4(sp)
   44048:	d8800515 	stw	r2,20(sp)
   4404c:	d9c01d04 	addi	r7,sp,116
   44050:	880d883a 	mov	r6,r17
   44054:	d80b883a 	mov	r5,sp
   44058:	8009883a 	mov	r4,r16
   4405c:	00bfffc4 	movi	r2,-1
   44060:	d8c00815 	stw	r3,32(sp)
   44064:	d8000c15 	stw	zero,48(sp)
   44068:	d8001115 	stw	zero,68(sp)
   4406c:	d880038d 	sth	r2,14(sp)
   44070:	0046b900 	call	46b90 <__ssvfscanf_r>
   44074:	dfc01c17 	ldw	ra,112(sp)
   44078:	dc401b17 	ldw	r17,108(sp)
   4407c:	dc001a17 	ldw	r16,104(sp)
   44080:	dec01e04 	addi	sp,sp,120
   44084:	f800283a 	ret

00044088 <__sread>:
   44088:	defffe04 	addi	sp,sp,-8
   4408c:	dc000015 	stw	r16,0(sp)
   44090:	2821883a 	mov	r16,r5
   44094:	2940038f 	ldh	r5,14(r5)
   44098:	dfc00115 	stw	ra,4(sp)
   4409c:	004dde00 	call	4dde0 <_read_r>
   440a0:	10000716 	blt	r2,zero,440c0 <__sread+0x38>
   440a4:	80c01417 	ldw	r3,80(r16)
   440a8:	1887883a 	add	r3,r3,r2
   440ac:	80c01415 	stw	r3,80(r16)
   440b0:	dfc00117 	ldw	ra,4(sp)
   440b4:	dc000017 	ldw	r16,0(sp)
   440b8:	dec00204 	addi	sp,sp,8
   440bc:	f800283a 	ret
   440c0:	80c0030b 	ldhu	r3,12(r16)
   440c4:	18fbffcc 	andi	r3,r3,61439
   440c8:	80c0030d 	sth	r3,12(r16)
   440cc:	dfc00117 	ldw	ra,4(sp)
   440d0:	dc000017 	ldw	r16,0(sp)
   440d4:	dec00204 	addi	sp,sp,8
   440d8:	f800283a 	ret

000440dc <__seofread>:
   440dc:	0005883a 	mov	r2,zero
   440e0:	f800283a 	ret

000440e4 <__swrite>:
   440e4:	2880030b 	ldhu	r2,12(r5)
   440e8:	defffb04 	addi	sp,sp,-20
   440ec:	dcc00315 	stw	r19,12(sp)
   440f0:	dc800215 	stw	r18,8(sp)
   440f4:	dc400115 	stw	r17,4(sp)
   440f8:	dc000015 	stw	r16,0(sp)
   440fc:	dfc00415 	stw	ra,16(sp)
   44100:	10c0400c 	andi	r3,r2,256
   44104:	2821883a 	mov	r16,r5
   44108:	2023883a 	mov	r17,r4
   4410c:	3025883a 	mov	r18,r6
   44110:	3827883a 	mov	r19,r7
   44114:	18000d1e 	bne	r3,zero,4414c <__swrite+0x68>
   44118:	8140038f 	ldh	r5,14(r16)
   4411c:	10bbffcc 	andi	r2,r2,61439
   44120:	980f883a 	mov	r7,r19
   44124:	900d883a 	mov	r6,r18
   44128:	8809883a 	mov	r4,r17
   4412c:	8080030d 	sth	r2,12(r16)
   44130:	dfc00417 	ldw	ra,16(sp)
   44134:	dcc00317 	ldw	r19,12(sp)
   44138:	dc800217 	ldw	r18,8(sp)
   4413c:	dc400117 	ldw	r17,4(sp)
   44140:	dc000017 	ldw	r16,0(sp)
   44144:	dec00504 	addi	sp,sp,20
   44148:	004a5441 	jmpi	4a544 <_write_r>
   4414c:	2940038f 	ldh	r5,14(r5)
   44150:	01c00084 	movi	r7,2
   44154:	000d883a 	mov	r6,zero
   44158:	004c91c0 	call	4c91c <_lseek_r>
   4415c:	8080030b 	ldhu	r2,12(r16)
   44160:	003fed06 	br	44118 <__swrite+0x34>

00044164 <__sseek>:
   44164:	defffe04 	addi	sp,sp,-8
   44168:	dc000015 	stw	r16,0(sp)
   4416c:	2821883a 	mov	r16,r5
   44170:	2940038f 	ldh	r5,14(r5)
   44174:	dfc00115 	stw	ra,4(sp)
   44178:	004c91c0 	call	4c91c <_lseek_r>
   4417c:	10ffffd8 	cmpnei	r3,r2,-1
   44180:	18000826 	beq	r3,zero,441a4 <__sseek+0x40>
   44184:	80c0030b 	ldhu	r3,12(r16)
   44188:	80801415 	stw	r2,80(r16)
   4418c:	18c40014 	ori	r3,r3,4096
   44190:	80c0030d 	sth	r3,12(r16)
   44194:	dfc00117 	ldw	ra,4(sp)
   44198:	dc000017 	ldw	r16,0(sp)
   4419c:	dec00204 	addi	sp,sp,8
   441a0:	f800283a 	ret
   441a4:	80c0030b 	ldhu	r3,12(r16)
   441a8:	18fbffcc 	andi	r3,r3,61439
   441ac:	80c0030d 	sth	r3,12(r16)
   441b0:	dfc00117 	ldw	ra,4(sp)
   441b4:	dc000017 	ldw	r16,0(sp)
   441b8:	dec00204 	addi	sp,sp,8
   441bc:	f800283a 	ret

000441c0 <__sclose>:
   441c0:	2940038f 	ldh	r5,14(r5)
   441c4:	004a70c1 	jmpi	4a70c <_close_r>

000441c8 <strcat>:
   441c8:	defffe04 	addi	sp,sp,-8
   441cc:	dc000015 	stw	r16,0(sp)
   441d0:	dfc00115 	stw	ra,4(sp)
   441d4:	208000cc 	andi	r2,r4,3
   441d8:	2021883a 	mov	r16,r4
   441dc:	1000121e 	bne	r2,zero,44228 <strcat+0x60>
   441e0:	20800017 	ldw	r2,0(r4)
   441e4:	01ffbff4 	movhi	r7,65279
   441e8:	39ffbfc4 	addi	r7,r7,-257
   441ec:	0088303a 	nor	r4,zero,r2
   441f0:	11c7883a 	add	r3,r2,r7
   441f4:	00a02074 	movhi	r2,32897
   441f8:	1906703a 	and	r3,r3,r4
   441fc:	10a02004 	addi	r2,r2,-32640
   44200:	1886703a 	and	r3,r3,r2
   44204:	8009883a 	mov	r4,r16
   44208:	1800071e 	bne	r3,zero,44228 <strcat+0x60>
   4420c:	21800117 	ldw	r6,4(r4)
   44210:	21000104 	addi	r4,r4,4
   44214:	31c7883a 	add	r3,r6,r7
   44218:	018c303a 	nor	r6,zero,r6
   4421c:	1986703a 	and	r3,r3,r6
   44220:	1886703a 	and	r3,r3,r2
   44224:	183ff926 	beq	r3,zero,4420c <strcat+0x44>
   44228:	20800007 	ldb	r2,0(r4)
   4422c:	10000326 	beq	r2,zero,4423c <strcat+0x74>
   44230:	20c00047 	ldb	r3,1(r4)
   44234:	21000044 	addi	r4,r4,1
   44238:	183ffd1e 	bne	r3,zero,44230 <strcat+0x68>
   4423c:	00444680 	call	44468 <strcpy>
   44240:	8005883a 	mov	r2,r16
   44244:	dfc00117 	ldw	ra,4(sp)
   44248:	dc000017 	ldw	r16,0(sp)
   4424c:	dec00204 	addi	sp,sp,8
   44250:	f800283a 	ret

00044254 <strchr>:
   44254:	28803fcc 	andi	r2,r5,255
   44258:	2811883a 	mov	r8,r5
   4425c:	218000cc 	andi	r6,r4,3
   44260:	10003926 	beq	r2,zero,44348 <strchr+0xf4>
   44264:	1007883a 	mov	r3,r2
   44268:	30002d1e 	bne	r6,zero,44320 <strchr+0xcc>
   4426c:	29403fcc 	andi	r5,r5,255
   44270:	2804923a 	slli	r2,r5,8
   44274:	20c00017 	ldw	r3,0(r4)
   44278:	01ffbff4 	movhi	r7,65279
   4427c:	288ab03a 	or	r5,r5,r2
   44280:	2814943a 	slli	r10,r5,16
   44284:	39ffbfc4 	addi	r7,r7,-257
   44288:	00c4303a 	nor	r2,zero,r3
   4428c:	5154b03a 	or	r10,r10,r5
   44290:	50caf03a 	xor	r5,r10,r3
   44294:	29cd883a 	add	r6,r5,r7
   44298:	19c7883a 	add	r3,r3,r7
   4429c:	014a303a 	nor	r5,zero,r5
   442a0:	10c4703a 	and	r2,r2,r3
   442a4:	314a703a 	and	r5,r6,r5
   442a8:	02602074 	movhi	r9,32897
   442ac:	1144b03a 	or	r2,r2,r5
   442b0:	4a602004 	addi	r9,r9,-32640
   442b4:	1244703a 	and	r2,r2,r9
   442b8:	10000c1e 	bne	r2,zero,442ec <strchr+0x98>
   442bc:	20c00117 	ldw	r3,4(r4)
   442c0:	21000104 	addi	r4,r4,4
   442c4:	1a8af03a 	xor	r5,r3,r10
   442c8:	19c5883a 	add	r2,r3,r7
   442cc:	29cd883a 	add	r6,r5,r7
   442d0:	00c6303a 	nor	r3,zero,r3
   442d4:	014a303a 	nor	r5,zero,r5
   442d8:	10c4703a 	and	r2,r2,r3
   442dc:	314a703a 	and	r5,r6,r5
   442e0:	1144b03a 	or	r2,r2,r5
   442e4:	1244703a 	and	r2,r2,r9
   442e8:	103ff426 	beq	r2,zero,442bc <strchr+0x68>
   442ec:	20800003 	ldbu	r2,0(r4)
   442f0:	40c03fcc 	andi	r3,r8,255
   442f4:	10002d26 	beq	r2,zero,443ac <strchr+0x158>
   442f8:	18801126 	beq	r3,r2,44340 <strchr+0xec>
   442fc:	20800043 	ldbu	r2,1(r4)
   44300:	21000044 	addi	r4,r4,1
   44304:	103ffc1e 	bne	r2,zero,442f8 <strchr+0xa4>
   44308:	0005883a 	mov	r2,zero
   4430c:	f800283a 	ret
   44310:	10c00b26 	beq	r2,r3,44340 <strchr+0xec>
   44314:	21000044 	addi	r4,r4,1
   44318:	208000cc 	andi	r2,r4,3
   4431c:	103fd326 	beq	r2,zero,4426c <strchr+0x18>
   44320:	20800003 	ldbu	r2,0(r4)
   44324:	103ffa1e 	bne	r2,zero,44310 <strchr+0xbc>
   44328:	003ff706 	br	44308 <strchr+0xb4>
   4432c:	21000044 	addi	r4,r4,1
   44330:	208000cc 	andi	r2,r4,3
   44334:	10000526 	beq	r2,zero,4434c <strchr+0xf8>
   44338:	20800003 	ldbu	r2,0(r4)
   4433c:	103ffb1e 	bne	r2,zero,4432c <strchr+0xd8>
   44340:	2005883a 	mov	r2,r4
   44344:	f800283a 	ret
   44348:	303ffb1e 	bne	r6,zero,44338 <strchr+0xe4>
   4434c:	20c00017 	ldw	r3,0(r4)
   44350:	01bfbff4 	movhi	r6,65279
   44354:	31bfbfc4 	addi	r6,r6,-257
   44358:	1985883a 	add	r2,r3,r6
   4435c:	01602074 	movhi	r5,32897
   44360:	00c6303a 	nor	r3,zero,r3
   44364:	10c4703a 	and	r2,r2,r3
   44368:	29602004 	addi	r5,r5,-32640
   4436c:	1144703a 	and	r2,r2,r5
   44370:	1000071e 	bne	r2,zero,44390 <strchr+0x13c>
   44374:	20c00117 	ldw	r3,4(r4)
   44378:	21000104 	addi	r4,r4,4
   4437c:	1985883a 	add	r2,r3,r6
   44380:	00c6303a 	nor	r3,zero,r3
   44384:	10c4703a 	and	r2,r2,r3
   44388:	1144703a 	and	r2,r2,r5
   4438c:	103ff926 	beq	r2,zero,44374 <strchr+0x120>
   44390:	20800003 	ldbu	r2,0(r4)
   44394:	103fea26 	beq	r2,zero,44340 <strchr+0xec>
   44398:	20800043 	ldbu	r2,1(r4)
   4439c:	21000044 	addi	r4,r4,1
   443a0:	103ffd1e 	bne	r2,zero,44398 <strchr+0x144>
   443a4:	2005883a 	mov	r2,r4
   443a8:	f800283a 	ret
   443ac:	f800283a 	ret

000443b0 <strcmp>:
   443b0:	2144b03a 	or	r2,r4,r5
   443b4:	108000cc 	andi	r2,r2,3
   443b8:	1000141e 	bne	r2,zero,4440c <strcmp+0x5c>
   443bc:	20800017 	ldw	r2,0(r4)
   443c0:	28c00017 	ldw	r3,0(r5)
   443c4:	10c0111e 	bne	r2,r3,4440c <strcmp+0x5c>
   443c8:	01ffbff4 	movhi	r7,65279
   443cc:	01a02074 	movhi	r6,32897
   443d0:	39ffbfc4 	addi	r7,r7,-257
   443d4:	31a02004 	addi	r6,r6,-32640
   443d8:	00000306 	br	443e8 <strcmp+0x38>
   443dc:	20800017 	ldw	r2,0(r4)
   443e0:	28c00017 	ldw	r3,0(r5)
   443e4:	10c0091e 	bne	r2,r3,4440c <strcmp+0x5c>
   443e8:	11c7883a 	add	r3,r2,r7
   443ec:	0084303a 	nor	r2,zero,r2
   443f0:	1884703a 	and	r2,r3,r2
   443f4:	1184703a 	and	r2,r2,r6
   443f8:	21000104 	addi	r4,r4,4
   443fc:	29400104 	addi	r5,r5,4
   44400:	103ff626 	beq	r2,zero,443dc <strcmp+0x2c>
   44404:	0005883a 	mov	r2,zero
   44408:	f800283a 	ret
   4440c:	20c00003 	ldbu	r3,0(r4)
   44410:	18803fcc 	andi	r2,r3,255
   44414:	1080201c 	xori	r2,r2,128
   44418:	10bfe004 	addi	r2,r2,-128
   4441c:	1000071e 	bne	r2,zero,4443c <strcmp+0x8c>
   44420:	00000a06 	br	4444c <strcmp+0x9c>
   44424:	20c00003 	ldbu	r3,0(r4)
   44428:	29400044 	addi	r5,r5,1
   4442c:	18803fcc 	andi	r2,r3,255
   44430:	1080201c 	xori	r2,r2,128
   44434:	10bfe004 	addi	r2,r2,-128
   44438:	10000726 	beq	r2,zero,44458 <strcmp+0xa8>
   4443c:	29800007 	ldb	r6,0(r5)
   44440:	21000044 	addi	r4,r4,1
   44444:	30bff726 	beq	r6,r2,44424 <strcmp+0x74>
   44448:	18803fcc 	andi	r2,r3,255
   4444c:	28c00003 	ldbu	r3,0(r5)
   44450:	10c5c83a 	sub	r2,r2,r3
   44454:	f800283a 	ret
   44458:	28c00003 	ldbu	r3,0(r5)
   4445c:	0005883a 	mov	r2,zero
   44460:	10c5c83a 	sub	r2,r2,r3
   44464:	f800283a 	ret

00044468 <strcpy>:
   44468:	2906b03a 	or	r3,r5,r4
   4446c:	18c000cc 	andi	r3,r3,3
   44470:	2005883a 	mov	r2,r4
   44474:	1800151e 	bne	r3,zero,444cc <strcpy+0x64>
   44478:	29c00017 	ldw	r7,0(r5)
   4447c:	027fbff4 	movhi	r9,65279
   44480:	4a7fbfc4 	addi	r9,r9,-257
   44484:	3a47883a 	add	r3,r7,r9
   44488:	01c8303a 	nor	r4,zero,r7
   4448c:	02a02074 	movhi	r10,32897
   44490:	1906703a 	and	r3,r3,r4
   44494:	52a02004 	addi	r10,r10,-32640
   44498:	1a86703a 	and	r3,r3,r10
   4449c:	18000b1e 	bne	r3,zero,444cc <strcpy+0x64>
   444a0:	1007883a 	mov	r3,r2
   444a4:	19c00015 	stw	r7,0(r3)
   444a8:	29c00117 	ldw	r7,4(r5)
   444ac:	29400104 	addi	r5,r5,4
   444b0:	18c00104 	addi	r3,r3,4
   444b4:	3a4d883a 	add	r6,r7,r9
   444b8:	01d0303a 	nor	r8,zero,r7
   444bc:	320c703a 	and	r6,r6,r8
   444c0:	328c703a 	and	r6,r6,r10
   444c4:	303ff726 	beq	r6,zero,444a4 <strcpy+0x3c>
   444c8:	00000106 	br	444d0 <strcpy+0x68>
   444cc:	1007883a 	mov	r3,r2
   444d0:	29800003 	ldbu	r6,0(r5)
   444d4:	18c00044 	addi	r3,r3,1
   444d8:	29400044 	addi	r5,r5,1
   444dc:	31c03fcc 	andi	r7,r6,255
   444e0:	39c0201c 	xori	r7,r7,128
   444e4:	39ffe004 	addi	r7,r7,-128
   444e8:	19bfffc5 	stb	r6,-1(r3)
   444ec:	383ff81e 	bne	r7,zero,444d0 <strcpy+0x68>
   444f0:	f800283a 	ret

000444f4 <strlen>:
   444f4:	208000cc 	andi	r2,r4,3
   444f8:	10000926 	beq	r2,zero,44520 <strlen+0x2c>
   444fc:	2005883a 	mov	r2,r4
   44500:	00000306 	br	44510 <strlen+0x1c>
   44504:	10800044 	addi	r2,r2,1
   44508:	10c000cc 	andi	r3,r2,3
   4450c:	18000526 	beq	r3,zero,44524 <strlen+0x30>
   44510:	10c00007 	ldb	r3,0(r2)
   44514:	183ffb1e 	bne	r3,zero,44504 <strlen+0x10>
   44518:	1105c83a 	sub	r2,r2,r4
   4451c:	f800283a 	ret
   44520:	2005883a 	mov	r2,r4
   44524:	11400017 	ldw	r5,0(r2)
   44528:	01ffbff4 	movhi	r7,65279
   4452c:	39ffbfc4 	addi	r7,r7,-257
   44530:	29c7883a 	add	r3,r5,r7
   44534:	01a02074 	movhi	r6,32897
   44538:	014a303a 	nor	r5,zero,r5
   4453c:	1946703a 	and	r3,r3,r5
   44540:	31a02004 	addi	r6,r6,-32640
   44544:	1986703a 	and	r3,r3,r6
   44548:	1800071e 	bne	r3,zero,44568 <strlen+0x74>
   4454c:	11400117 	ldw	r5,4(r2)
   44550:	10800104 	addi	r2,r2,4
   44554:	29c7883a 	add	r3,r5,r7
   44558:	014a303a 	nor	r5,zero,r5
   4455c:	1946703a 	and	r3,r3,r5
   44560:	1986703a 	and	r3,r3,r6
   44564:	183ff926 	beq	r3,zero,4454c <strlen+0x58>
   44568:	10c00007 	ldb	r3,0(r2)
   4456c:	183fea26 	beq	r3,zero,44518 <strlen+0x24>
   44570:	10c00047 	ldb	r3,1(r2)
   44574:	10800044 	addi	r2,r2,1
   44578:	183fe726 	beq	r3,zero,44518 <strlen+0x24>
   4457c:	10c00047 	ldb	r3,1(r2)
   44580:	10800044 	addi	r2,r2,1
   44584:	183ffa1e 	bne	r3,zero,44570 <strlen+0x7c>
   44588:	003fe306 	br	44518 <strlen+0x24>

0004458c <two_way_long_needle>:
   4458c:	defef204 	addi	sp,sp,-1080
   44590:	ddc10b15 	stw	r23,1068(sp)
   44594:	dc810615 	stw	r18,1048(sp)
   44598:	dc410515 	stw	r17,1044(sp)
   4459c:	dc010415 	stw	r16,1040(sp)
   445a0:	dfc10d15 	stw	ra,1076(sp)
   445a4:	df010c15 	stw	fp,1072(sp)
   445a8:	dd810a15 	stw	r22,1064(sp)
   445ac:	dd410915 	stw	r21,1060(sp)
   445b0:	dd010815 	stw	r20,1056(sp)
   445b4:	dcc10715 	stw	r19,1052(sp)
   445b8:	388000b0 	cmpltui	r2,r7,2
   445bc:	3825883a 	mov	r18,r7
   445c0:	2021883a 	mov	r16,r4
   445c4:	282f883a 	mov	r23,r5
   445c8:	3023883a 	mov	r17,r6
   445cc:	1000e61e 	bne	r2,zero,44968 <two_way_long_needle+0x3dc>
   445d0:	0011883a 	mov	r8,zero
   445d4:	04c00044 	movi	r19,1
   445d8:	01c00044 	movi	r7,1
   445dc:	01bfffc4 	movi	r6,-1
   445e0:	01000044 	movi	r4,1
   445e4:	00000506 	br	445fc <two_way_long_needle+0x70>
   445e8:	21a7c83a 	sub	r19,r4,r6
   445ec:	2011883a 	mov	r8,r4
   445f0:	01c00044 	movi	r7,1
   445f4:	3a09883a 	add	r4,r7,r8
   445f8:	24800d2e 	bgeu	r4,r18,44630 <two_way_long_needle+0xa4>
   445fc:	89c5883a 	add	r2,r17,r7
   44600:	890b883a 	add	r5,r17,r4
   44604:	1185883a 	add	r2,r2,r6
   44608:	29400003 	ldbu	r5,0(r5)
   4460c:	10800003 	ldbu	r2,0(r2)
   44610:	28bff536 	bltu	r5,r2,445e8 <two_way_long_needle+0x5c>
   44614:	28806926 	beq	r5,r2,447bc <two_way_long_needle+0x230>
   44618:	400d883a 	mov	r6,r8
   4461c:	01c00044 	movi	r7,1
   44620:	42000044 	addi	r8,r8,1
   44624:	3a09883a 	add	r4,r7,r8
   44628:	04c00044 	movi	r19,1
   4462c:	24bff336 	bltu	r4,r18,445fc <two_way_long_needle+0x70>
   44630:	000f883a 	mov	r7,zero
   44634:	02800044 	movi	r10,1
   44638:	01400044 	movi	r5,1
   4463c:	027fffc4 	movi	r9,-1
   44640:	00800044 	movi	r2,1
   44644:	00000506 	br	4465c <two_way_long_needle+0xd0>
   44648:	1255c83a 	sub	r10,r2,r9
   4464c:	100f883a 	mov	r7,r2
   44650:	01400044 	movi	r5,1
   44654:	3945883a 	add	r2,r7,r5
   44658:	14800d2e 	bgeu	r2,r18,44690 <two_way_long_needle+0x104>
   4465c:	8a49883a 	add	r4,r17,r9
   44660:	2149883a 	add	r4,r4,r5
   44664:	8891883a 	add	r8,r17,r2
   44668:	42000003 	ldbu	r8,0(r8)
   4466c:	21000003 	ldbu	r4,0(r4)
   44670:	223ff536 	bltu	r4,r8,44648 <two_way_long_needle+0xbc>
   44674:	41005426 	beq	r8,r4,447c8 <two_way_long_needle+0x23c>
   44678:	3813883a 	mov	r9,r7
   4467c:	01400044 	movi	r5,1
   44680:	39c00044 	addi	r7,r7,1
   44684:	3945883a 	add	r2,r7,r5
   44688:	02800044 	movi	r10,1
   4468c:	14bff336 	bltu	r2,r18,4465c <two_way_long_needle+0xd0>
   44690:	4a400044 	addi	r9,r9,1
   44694:	35000044 	addi	r20,r6,1
   44698:	4d000236 	bltu	r9,r20,446a4 <two_way_long_needle+0x118>
   4469c:	5027883a 	mov	r19,r10
   446a0:	4829883a 	mov	r20,r9
   446a4:	d8800404 	addi	r2,sp,16
   446a8:	d9010404 	addi	r4,sp,1040
   446ac:	14800015 	stw	r18,0(r2)
   446b0:	10800104 	addi	r2,r2,4
   446b4:	20bffd1e 	bne	r4,r2,446ac <two_way_long_needle+0x120>
   446b8:	973fffc4 	addi	fp,r18,-1
   446bc:	90000c26 	beq	r18,zero,446f0 <two_way_long_needle+0x164>
   446c0:	9451883a 	add	r8,r18,r17
   446c4:	8809883a 	mov	r4,r17
   446c8:	8f0f883a 	add	r7,r17,fp
   446cc:	20800003 	ldbu	r2,0(r4)
   446d0:	d8c00404 	addi	r3,sp,16
   446d4:	390bc83a 	sub	r5,r7,r4
   446d8:	100490ba 	slli	r2,r2,2
   446dc:	21000044 	addi	r4,r4,1
   446e0:	10810004 	addi	r2,r2,1024
   446e4:	10c5883a 	add	r2,r2,r3
   446e8:	117f0015 	stw	r5,-1024(r2)
   446ec:	413ff71e 	bne	r8,r4,446cc <two_way_long_needle+0x140>
   446f0:	a00d883a 	mov	r6,r20
   446f4:	8ccb883a 	add	r5,r17,r19
   446f8:	8809883a 	mov	r4,r17
   446fc:	004cadc0 	call	4cadc <memcmp>
   44700:	10005a1e 	bne	r2,zero,4486c <two_way_long_needle+0x2e0>
   44704:	00800044 	movi	r2,1
   44708:	1505c83a 	sub	r2,r2,r20
   4470c:	d8800115 	stw	r2,4(sp)
   44710:	a0bfffc4 	addi	r2,r20,-1
   44714:	d8800315 	stw	r2,12(sp)
   44718:	94c5c83a 	sub	r2,r18,r19
   4471c:	d8800215 	stw	r2,8(sp)
   44720:	90820014 	ori	r2,r18,2048
   44724:	002d883a 	mov	r22,zero
   44728:	002b883a 	mov	r21,zero
   4472c:	d8800015 	stw	r2,0(sp)
   44730:	8553883a 	add	r9,r16,r21
   44734:	4f05883a 	add	r2,r9,fp
   44738:	10800003 	ldbu	r2,0(r2)
   4473c:	d8c00404 	addi	r3,sp,16
   44740:	100490ba 	slli	r2,r2,2
   44744:	10810004 	addi	r2,r2,1024
   44748:	10c5883a 	add	r2,r2,r3
   4474c:	10bf0017 	ldw	r2,-1024(r2)
   44750:	10002026 	beq	r2,zero,447d4 <two_way_long_needle+0x248>
   44754:	b0000226 	beq	r22,zero,44760 <two_way_long_needle+0x1d4>
   44758:	14c0012e 	bgeu	r2,r19,44760 <two_way_long_needle+0x1d4>
   4475c:	d8800217 	ldw	r2,8(sp)
   44760:	a8ab883a 	add	r21,r21,r2
   44764:	002d883a 	mov	r22,zero
   44768:	bc85c83a 	sub	r2,r23,r18
   4476c:	157ff02e 	bgeu	r2,r21,44730 <two_way_long_needle+0x1a4>
   44770:	d9400017 	ldw	r5,0(sp)
   44774:	85c9883a 	add	r4,r16,r23
   44778:	004e4c40 	call	4e4c4 <strnlen>
   4477c:	b8af883a 	add	r23,r23,r2
   44780:	bc85c83a 	sub	r2,r23,r18
   44784:	157fea2e 	bgeu	r2,r21,44730 <two_way_long_needle+0x1a4>
   44788:	0005883a 	mov	r2,zero
   4478c:	dfc10d17 	ldw	ra,1076(sp)
   44790:	df010c17 	ldw	fp,1072(sp)
   44794:	ddc10b17 	ldw	r23,1068(sp)
   44798:	dd810a17 	ldw	r22,1064(sp)
   4479c:	dd410917 	ldw	r21,1060(sp)
   447a0:	dd010817 	ldw	r20,1056(sp)
   447a4:	dcc10717 	ldw	r19,1052(sp)
   447a8:	dc810617 	ldw	r18,1048(sp)
   447ac:	dc410517 	ldw	r17,1044(sp)
   447b0:	dc010417 	ldw	r16,1040(sp)
   447b4:	dec10e04 	addi	sp,sp,1080
   447b8:	f800283a 	ret
   447bc:	3cc06726 	beq	r7,r19,4495c <two_way_long_needle+0x3d0>
   447c0:	39c00044 	addi	r7,r7,1
   447c4:	003f8b06 	br	445f4 <two_way_long_needle+0x68>
   447c8:	51406126 	beq	r10,r5,44950 <two_way_long_needle+0x3c4>
   447cc:	29400044 	addi	r5,r5,1
   447d0:	003fa006 	br	44654 <two_way_long_needle+0xc8>
   447d4:	a009883a 	mov	r4,r20
   447d8:	a580012e 	bgeu	r20,r22,447e0 <two_way_long_needle+0x254>
   447dc:	b009883a 	mov	r4,r22
   447e0:	2700082e 	bgeu	r4,fp,44804 <two_way_long_needle+0x278>
   447e4:	a905883a 	add	r2,r21,r4
   447e8:	890b883a 	add	r5,r17,r4
   447ec:	8085883a 	add	r2,r16,r2
   447f0:	29400003 	ldbu	r5,0(r5)
   447f4:	10800003 	ldbu	r2,0(r2)
   447f8:	2880151e 	bne	r5,r2,44850 <two_way_long_needle+0x2c4>
   447fc:	21000044 	addi	r4,r4,1
   44800:	273ff836 	bltu	r4,fp,447e4 <two_way_long_needle+0x258>
   44804:	d9000317 	ldw	r4,12(sp)
   44808:	a017883a 	mov	r11,r20
   4480c:	b5000336 	bltu	r22,r20,4481c <two_way_long_needle+0x290>
   44810:	00000a06 	br	4483c <two_way_long_needle+0x2b0>
   44814:	25801326 	beq	r4,r22,44864 <two_way_long_needle+0x2d8>
   44818:	5009883a 	mov	r4,r10
   4481c:	2545883a 	add	r2,r4,r21
   44820:	890b883a 	add	r5,r17,r4
   44824:	8085883a 	add	r2,r16,r2
   44828:	29400003 	ldbu	r5,0(r5)
   4482c:	10800003 	ldbu	r2,0(r2)
   44830:	22c00044 	addi	r11,r4,1
   44834:	22bfffc4 	addi	r10,r4,-1
   44838:	28bff626 	beq	r5,r2,44814 <two_way_long_needle+0x288>
   4483c:	b2000044 	addi	r8,r22,1
   44840:	5a004e36 	bltu	r11,r8,4497c <two_way_long_needle+0x3f0>
   44844:	dd800217 	ldw	r22,8(sp)
   44848:	aceb883a 	add	r21,r21,r19
   4484c:	003fc606 	br	44768 <two_way_long_needle+0x1dc>
   44850:	d8800117 	ldw	r2,4(sp)
   44854:	002d883a 	mov	r22,zero
   44858:	154f883a 	add	r7,r2,r21
   4485c:	392b883a 	add	r21,r7,r4
   44860:	003fc106 	br	44768 <two_way_long_needle+0x1dc>
   44864:	b017883a 	mov	r11,r22
   44868:	003ff406 	br	4483c <two_way_long_needle+0x2b0>
   4486c:	9505c83a 	sub	r2,r18,r20
   44870:	15003536 	bltu	r2,r20,44948 <two_way_long_needle+0x3bc>
   44874:	10800044 	addi	r2,r2,1
   44878:	04c00044 	movi	r19,1
   4487c:	d8800015 	stw	r2,0(sp)
   44880:	002d883a 	mov	r22,zero
   44884:	9d27c83a 	sub	r19,r19,r20
   44888:	95420014 	ori	r21,r18,2048
   4488c:	858f883a 	add	r7,r16,r22
   44890:	3f05883a 	add	r2,r7,fp
   44894:	10800003 	ldbu	r2,0(r2)
   44898:	d8c00404 	addi	r3,sp,16
   4489c:	100490ba 	slli	r2,r2,2
   448a0:	10810004 	addi	r2,r2,1024
   448a4:	10c5883a 	add	r2,r2,r3
   448a8:	10bf0017 	ldw	r2,-1024(r2)
   448ac:	10000a26 	beq	r2,zero,448d8 <two_way_long_needle+0x34c>
   448b0:	b0ad883a 	add	r22,r22,r2
   448b4:	bc85c83a 	sub	r2,r23,r18
   448b8:	15bff42e 	bgeu	r2,r22,4488c <two_way_long_needle+0x300>
   448bc:	85c9883a 	add	r4,r16,r23
   448c0:	a80b883a 	mov	r5,r21
   448c4:	004e4c40 	call	4e4c4 <strnlen>
   448c8:	b8af883a 	add	r23,r23,r2
   448cc:	bc85c83a 	sub	r2,r23,r18
   448d0:	15bfee2e 	bgeu	r2,r22,4488c <two_way_long_needle+0x300>
   448d4:	003fac06 	br	44788 <two_way_long_needle+0x1fc>
   448d8:	a009883a 	mov	r4,r20
   448dc:	a7000336 	bltu	r20,fp,448ec <two_way_long_needle+0x360>
   448e0:	00000b06 	br	44910 <two_way_long_needle+0x384>
   448e4:	21000044 	addi	r4,r4,1
   448e8:	2700092e 	bgeu	r4,fp,44910 <two_way_long_needle+0x384>
   448ec:	2585883a 	add	r2,r4,r22
   448f0:	890b883a 	add	r5,r17,r4
   448f4:	8085883a 	add	r2,r16,r2
   448f8:	29400003 	ldbu	r5,0(r5)
   448fc:	10800003 	ldbu	r2,0(r2)
   44900:	28bff826 	beq	r5,r2,448e4 <two_way_long_needle+0x358>
   44904:	9dad883a 	add	r22,r19,r22
   44908:	b12d883a 	add	r22,r22,r4
   4490c:	003fe906 	br	448b4 <two_way_long_needle+0x328>
   44910:	a0bfffc4 	addi	r2,r20,-1
   44914:	a000021e 	bne	r20,zero,44920 <two_way_long_needle+0x394>
   44918:	00001606 	br	44974 <two_way_long_needle+0x3e8>
   4491c:	4000151e 	bne	r8,zero,44974 <two_way_long_needle+0x3e8>
   44920:	1589883a 	add	r4,r2,r22
   44924:	888b883a 	add	r5,r17,r2
   44928:	8109883a 	add	r4,r16,r4
   4492c:	29400003 	ldbu	r5,0(r5)
   44930:	21000003 	ldbu	r4,0(r4)
   44934:	10bfffc4 	addi	r2,r2,-1
   44938:	123fffe0 	cmpeqi	r8,r2,-1
   4493c:	293ff726 	beq	r5,r4,4491c <two_way_long_needle+0x390>
   44940:	d8800017 	ldw	r2,0(sp)
   44944:	003fda06 	br	448b0 <two_way_long_needle+0x324>
   44948:	a005883a 	mov	r2,r20
   4494c:	003fc906 	br	44874 <two_way_long_needle+0x2e8>
   44950:	3a8f883a 	add	r7,r7,r10
   44954:	01400044 	movi	r5,1
   44958:	003f3e06 	br	44654 <two_way_long_needle+0xc8>
   4495c:	41d1883a 	add	r8,r8,r7
   44960:	01c00044 	movi	r7,1
   44964:	003f2306 	br	445f4 <two_way_long_needle+0x68>
   44968:	04c00044 	movi	r19,1
   4496c:	0029883a 	mov	r20,zero
   44970:	003f4c06 	br	446a4 <two_way_long_needle+0x118>
   44974:	3805883a 	mov	r2,r7
   44978:	003f8406 	br	4478c <two_way_long_needle+0x200>
   4497c:	4805883a 	mov	r2,r9
   44980:	003f8206 	br	4478c <two_way_long_needle+0x200>

00044984 <strstr>:
   44984:	deffea04 	addi	sp,sp,-88
   44988:	dcc01315 	stw	r19,76(sp)
   4498c:	dc001015 	stw	r16,64(sp)
   44990:	dfc01515 	stw	ra,84(sp)
   44994:	dd001415 	stw	r20,80(sp)
   44998:	dc801215 	stw	r18,72(sp)
   4499c:	dc401115 	stw	r17,68(sp)
   449a0:	2c400003 	ldbu	r17,0(r5)
   449a4:	2827883a 	mov	r19,r5
   449a8:	2021883a 	mov	r16,r4
   449ac:	89403fcc 	andi	r5,r17,255
   449b0:	28003b26 	beq	r5,zero,44aa0 <strstr+0x11c>
   449b4:	98800043 	ldbu	r2,1(r19)
   449b8:	10004226 	beq	r2,zero,44ac4 <strstr+0x140>
   449bc:	98c00083 	ldbu	r3,2(r19)
   449c0:	18005126 	beq	r3,zero,44b08 <strstr+0x184>
   449c4:	998000c3 	ldbu	r6,3(r19)
   449c8:	30005c26 	beq	r6,zero,44b3c <strstr+0x1b8>
   449cc:	99000103 	ldbu	r4,4(r19)
   449d0:	20006b26 	beq	r4,zero,44b80 <strstr+0x1fc>
   449d4:	9809883a 	mov	r4,r19
   449d8:	00444f40 	call	444f4 <strlen>
   449dc:	11408014 	ori	r5,r2,512
   449e0:	8009883a 	mov	r4,r16
   449e4:	1029883a 	mov	r20,r2
   449e8:	004e4c40 	call	4e4c4 <strnlen>
   449ec:	15004436 	bltu	r2,r20,44b00 <strstr+0x17c>
   449f0:	a0c03fe8 	cmpgeui	r3,r20,255
   449f4:	1800761e 	bne	r3,zero,44bd0 <strstr+0x24c>
   449f8:	1505c83a 	sub	r2,r2,r20
   449fc:	01801004 	movi	r6,64
   44a00:	a1400044 	addi	r5,r20,1
   44a04:	d809883a 	mov	r4,sp
   44a08:	80a5883a 	add	r18,r16,r2
   44a0c:	00439100 	call	43910 <memset>
   44a10:	a0000c26 	beq	r20,zero,44a44 <strstr+0xc0>
   44a14:	98800044 	addi	r2,r19,1
   44a18:	9d0b883a 	add	r5,r19,r20
   44a1c:	1509883a 	add	r4,r2,r20
   44a20:	00000206 	br	44a2c <strstr+0xa8>
   44a24:	14400003 	ldbu	r17,0(r2)
   44a28:	10800044 	addi	r2,r2,1
   44a2c:	8c400fcc 	andi	r17,r17,63
   44a30:	89801004 	addi	r6,r17,64
   44a34:	2087c83a 	sub	r3,r4,r2
   44a38:	36e3883a 	add	r17,r6,sp
   44a3c:	88fff005 	stb	r3,-64(r17)
   44a40:	28bff81e 	bne	r5,r2,44a24 <strstr+0xa0>
   44a44:	843fffc4 	addi	r16,r16,-1
   44a48:	8505883a 	add	r2,r16,r20
   44a4c:	10800003 	ldbu	r2,0(r2)
   44a50:	10800fcc 	andi	r2,r2,63
   44a54:	10801004 	addi	r2,r2,64
   44a58:	16c5883a 	add	r2,r2,sp
   44a5c:	113ff003 	ldbu	r4,-64(r2)
   44a60:	8121883a 	add	r16,r16,r4
   44a64:	9400032e 	bgeu	r18,r16,44a74 <strstr+0xf0>
   44a68:	00001e06 	br	44ae4 <strstr+0x160>
   44a6c:	8461883a 	add	r16,r16,r17
   44a70:	94001c36 	bltu	r18,r16,44ae4 <strstr+0x160>
   44a74:	8505883a 	add	r2,r16,r20
   44a78:	10c00003 	ldbu	r3,0(r2)
   44a7c:	8009883a 	mov	r4,r16
   44a80:	a00d883a 	mov	r6,r20
   44a84:	18c00fcc 	andi	r3,r3,63
   44a88:	18801004 	addi	r2,r3,64
   44a8c:	16c7883a 	add	r3,r2,sp
   44a90:	980b883a 	mov	r5,r19
   44a94:	1c7ff003 	ldbu	r17,-64(r3)
   44a98:	004cadc0 	call	4cadc <memcmp>
   44a9c:	103ff31e 	bne	r2,zero,44a6c <strstr+0xe8>
   44aa0:	8005883a 	mov	r2,r16
   44aa4:	dfc01517 	ldw	ra,84(sp)
   44aa8:	dd001417 	ldw	r20,80(sp)
   44aac:	dcc01317 	ldw	r19,76(sp)
   44ab0:	dc801217 	ldw	r18,72(sp)
   44ab4:	dc401117 	ldw	r17,68(sp)
   44ab8:	dc001017 	ldw	r16,64(sp)
   44abc:	dec01604 	addi	sp,sp,88
   44ac0:	f800283a 	ret
   44ac4:	dfc01517 	ldw	ra,84(sp)
   44ac8:	dd001417 	ldw	r20,80(sp)
   44acc:	dcc01317 	ldw	r19,76(sp)
   44ad0:	dc801217 	ldw	r18,72(sp)
   44ad4:	dc401117 	ldw	r17,68(sp)
   44ad8:	dc001017 	ldw	r16,64(sp)
   44adc:	dec01604 	addi	sp,sp,88
   44ae0:	00442541 	jmpi	44254 <strchr>
   44ae4:	9509883a 	add	r4,r18,r20
   44ae8:	20800003 	ldbu	r2,0(r4)
   44aec:	10000426 	beq	r2,zero,44b00 <strstr+0x17c>
   44af0:	01420004 	movi	r5,2048
   44af4:	004e4c40 	call	4e4c4 <strnlen>
   44af8:	90a5883a 	add	r18,r18,r2
   44afc:	943fd12e 	bgeu	r18,r16,44a44 <strstr+0xc0>
   44b00:	0021883a 	mov	r16,zero
   44b04:	003fe606 	br	44aa0 <strstr+0x11c>
   44b08:	280a943a 	slli	r5,r5,16
   44b0c:	21000003 	ldbu	r4,0(r4)
   44b10:	288ab03a 	or	r5,r5,r2
   44b14:	00000106 	br	44b1c <strstr+0x198>
   44b18:	1021883a 	mov	r16,r2
   44b1c:	1806943a 	slli	r3,r3,16
   44b20:	203ff726 	beq	r4,zero,44b00 <strstr+0x17c>
   44b24:	20c6b03a 	or	r3,r4,r3
   44b28:	80800044 	addi	r2,r16,1
   44b2c:	81000043 	ldbu	r4,1(r16)
   44b30:	28fff91e 	bne	r5,r3,44b18 <strstr+0x194>
   44b34:	843fffc4 	addi	r16,r16,-1
   44b38:	003fd906 	br	44aa0 <strstr+0x11c>
   44b3c:	280a963a 	slli	r5,r5,24
   44b40:	1004943a 	slli	r2,r2,16
   44b44:	1806923a 	slli	r3,r3,8
   44b48:	21000003 	ldbu	r4,0(r4)
   44b4c:	2884b03a 	or	r2,r5,r2
   44b50:	10c4b03a 	or	r2,r2,r3
   44b54:	0007883a 	mov	r3,zero
   44b58:	00000106 	br	44b60 <strstr+0x1dc>
   44b5c:	2821883a 	mov	r16,r5
   44b60:	20c6b03a 	or	r3,r4,r3
   44b64:	1806923a 	slli	r3,r3,8
   44b68:	203fe526 	beq	r4,zero,44b00 <strstr+0x17c>
   44b6c:	81000043 	ldbu	r4,1(r16)
   44b70:	81400044 	addi	r5,r16,1
   44b74:	10fff91e 	bne	r2,r3,44b5c <strstr+0x1d8>
   44b78:	843fff84 	addi	r16,r16,-2
   44b7c:	003fc806 	br	44aa0 <strstr+0x11c>
   44b80:	280a963a 	slli	r5,r5,24
   44b84:	1004943a 	slli	r2,r2,16
   44b88:	1806923a 	slli	r3,r3,8
   44b8c:	81000003 	ldbu	r4,0(r16)
   44b90:	2884b03a 	or	r2,r5,r2
   44b94:	1184b03a 	or	r2,r2,r6
   44b98:	10c4b03a 	or	r2,r2,r3
   44b9c:	203fd826 	beq	r4,zero,44b00 <strstr+0x17c>
   44ba0:	0007883a 	mov	r3,zero
   44ba4:	00000106 	br	44bac <strstr+0x228>
   44ba8:	10c00726 	beq	r2,r3,44bc8 <strstr+0x244>
   44bac:	1806923a 	slli	r3,r3,8
   44bb0:	800b883a 	mov	r5,r16
   44bb4:	84000044 	addi	r16,r16,1
   44bb8:	20c6b03a 	or	r3,r4,r3
   44bbc:	81000003 	ldbu	r4,0(r16)
   44bc0:	203ff91e 	bne	r4,zero,44ba8 <strstr+0x224>
   44bc4:	10ffce1e 	bne	r2,r3,44b00 <strstr+0x17c>
   44bc8:	2c3fff44 	addi	r16,r5,-3
   44bcc:	003fb406 	br	44aa0 <strstr+0x11c>
   44bd0:	a00f883a 	mov	r7,r20
   44bd4:	980d883a 	mov	r6,r19
   44bd8:	100b883a 	mov	r5,r2
   44bdc:	8009883a 	mov	r4,r16
   44be0:	dfc01517 	ldw	ra,84(sp)
   44be4:	dd001417 	ldw	r20,80(sp)
   44be8:	dcc01317 	ldw	r19,76(sp)
   44bec:	dc801217 	ldw	r18,72(sp)
   44bf0:	dc401117 	ldw	r17,68(sp)
   44bf4:	dc001017 	ldw	r16,64(sp)
   44bf8:	dec01604 	addi	sp,sp,88
   44bfc:	004458c1 	jmpi	4458c <two_way_long_needle>

00044c00 <___svfprintf_internal_r>:
   44c00:	deffbf04 	addi	sp,sp,-260
   44c04:	dfc04015 	stw	ra,256(sp)
   44c08:	dd803d15 	stw	r22,244(sp)
   44c0c:	dcc03a15 	stw	r19,232(sp)
   44c10:	dc803915 	stw	r18,228(sp)
   44c14:	2027883a 	mov	r19,r4
   44c18:	2825883a 	mov	r18,r5
   44c1c:	302d883a 	mov	r22,r6
   44c20:	d9c00615 	stw	r7,24(sp)
   44c24:	df003f15 	stw	fp,252(sp)
   44c28:	ddc03e15 	stw	r23,248(sp)
   44c2c:	dd403c15 	stw	r21,240(sp)
   44c30:	dd003b15 	stw	r20,236(sp)
   44c34:	dc403815 	stw	r17,224(sp)
   44c38:	dc003715 	stw	r16,220(sp)
   44c3c:	004c9040 	call	4c904 <_localeconv_r>
   44c40:	10800017 	ldw	r2,0(r2)
   44c44:	1009883a 	mov	r4,r2
   44c48:	d8800d15 	stw	r2,52(sp)
   44c4c:	00444f40 	call	444f4 <strlen>
   44c50:	90c0030b 	ldhu	r3,12(r18)
   44c54:	d8800c15 	stw	r2,48(sp)
   44c58:	18c0200c 	andi	r3,r3,128
   44c5c:	18000226 	beq	r3,zero,44c68 <___svfprintf_internal_r+0x68>
   44c60:	90800417 	ldw	r2,16(r18)
   44c64:	10052926 	beq	r2,zero,4610c <___svfprintf_internal_r+0x150c>
   44c68:	d8802704 	addi	r2,sp,156
   44c6c:	b02f883a 	mov	r23,r22
   44c70:	d8801a15 	stw	r2,104(sp)
   44c74:	d8001c15 	stw	zero,112(sp)
   44c78:	d8001b15 	stw	zero,108(sp)
   44c7c:	d8000815 	stw	zero,32(sp)
   44c80:	d8000915 	stw	zero,36(sp)
   44c84:	d8000a15 	stw	zero,40(sp)
   44c88:	d8000b15 	stw	zero,44(sp)
   44c8c:	d8001015 	stw	zero,64(sp)
   44c90:	d8000515 	stw	zero,20(sp)
   44c94:	102d883a 	mov	r22,r2
   44c98:	b8800007 	ldb	r2,0(r23)
   44c9c:	1000d526 	beq	r2,zero,44ff4 <___svfprintf_internal_r+0x3f4>
   44ca0:	b821883a 	mov	r16,r23
   44ca4:	00000306 	br	44cb4 <___svfprintf_internal_r+0xb4>
   44ca8:	80800047 	ldb	r2,1(r16)
   44cac:	84000044 	addi	r16,r16,1
   44cb0:	10010626 	beq	r2,zero,450cc <___svfprintf_internal_r+0x4cc>
   44cb4:	10800958 	cmpnei	r2,r2,37
   44cb8:	103ffb1e 	bne	r2,zero,44ca8 <___svfprintf_internal_r+0xa8>
   44cbc:	85e3c83a 	sub	r17,r16,r23
   44cc0:	85c1041e 	bne	r16,r23,450d4 <___svfprintf_internal_r+0x4d4>
   44cc4:	80800003 	ldbu	r2,0(r16)
   44cc8:	10803fcc 	andi	r2,r2,255
   44ccc:	1080201c 	xori	r2,r2,128
   44cd0:	10bfe004 	addi	r2,r2,-128
   44cd4:	1000c726 	beq	r2,zero,44ff4 <___svfprintf_internal_r+0x3f4>
   44cd8:	82c00047 	ldb	r11,1(r16)
   44cdc:	85c00044 	addi	r23,r16,1
   44ce0:	d8001345 	stb	zero,77(sp)
   44ce4:	0009883a 	mov	r4,zero
   44ce8:	000b883a 	mov	r5,zero
   44cec:	023fffc4 	movi	r8,-1
   44cf0:	0021883a 	mov	r16,zero
   44cf4:	0019883a 	mov	r12,zero
   44cf8:	bdc00044 	addi	r23,r23,1
   44cfc:	5839883a 	mov	fp,r11
   44d00:	e0bff804 	addi	r2,fp,-32
   44d04:	10c01668 	cmpgeui	r3,r2,89
   44d08:	18006a1e 	bne	r3,zero,44eb4 <___svfprintf_internal_r+0x2b4>
   44d0c:	100490ba 	slli	r2,r2,2
   44d10:	00c00134 	movhi	r3,4
   44d14:	10c7883a 	add	r3,r2,r3
   44d18:	18934817 	ldw	r2,19744(r3)
   44d1c:	1000683a 	jmp	r2
   44d20:	0004555c 	xori	zero,zero,4437
   44d24:	00044eb4 	movhi	zero,4410
   44d28:	00044eb4 	movhi	zero,4410
   44d2c:	00045550 	cmplti	zero,zero,4437
   44d30:	00044eb4 	movhi	zero,4410
   44d34:	00044eb4 	movhi	zero,4410
   44d38:	00044eb4 	movhi	zero,4410
   44d3c:	00044eb4 	movhi	zero,4410
   44d40:	00044eb4 	movhi	zero,4410
   44d44:	00044eb4 	movhi	zero,4410
   44d48:	000453ac 	andhi	zero,zero,4430
   44d4c:	00045540 	call	4554 <__reset-0x3baac>
   44d50:	00044eb4 	movhi	zero,4410
   44d54:	000453c4 	movi	zero,4431
   44d58:	000453dc 	xori	zero,zero,4431
   44d5c:	00044eb4 	movhi	zero,4410
   44d60:	00045534 	movhi	zero,4436
   44d64:	00044e84 	movi	zero,4410
   44d68:	00044e84 	movi	zero,4410
   44d6c:	00044e84 	movi	zero,4410
   44d70:	00044e84 	movi	zero,4410
   44d74:	00044e84 	movi	zero,4410
   44d78:	00044e84 	movi	zero,4410
   44d7c:	00044e84 	movi	zero,4410
   44d80:	00044e84 	movi	zero,4410
   44d84:	00044e84 	movi	zero,4410
   44d88:	00044eb4 	movhi	zero,4410
   44d8c:	00044eb4 	movhi	zero,4410
   44d90:	00044eb4 	movhi	zero,4410
   44d94:	00044eb4 	movhi	zero,4410
   44d98:	00044eb4 	movhi	zero,4410
   44d9c:	00044eb4 	movhi	zero,4410
   44da0:	00044eb4 	movhi	zero,4410
   44da4:	00044eb4 	movhi	zero,4410
   44da8:	00044eb4 	movhi	zero,4410
   44dac:	00044eb4 	movhi	zero,4410
   44db0:	00045420 	cmpeqi	zero,zero,4432
   44db4:	00045130 	cmpltui	zero,zero,4420
   44db8:	00044eb4 	movhi	zero,4410
   44dbc:	00045130 	cmpltui	zero,zero,4420
   44dc0:	00044eb4 	movhi	zero,4410
   44dc4:	00044eb4 	movhi	zero,4410
   44dc8:	00044eb4 	movhi	zero,4410
   44dcc:	00044eb4 	movhi	zero,4410
   44dd0:	000453d0 	cmplti	zero,zero,4431
   44dd4:	00044eb4 	movhi	zero,4410
   44dd8:	00044eb4 	movhi	zero,4410
   44ddc:	00045064 	muli	zero,zero,4417
   44de0:	00044eb4 	movhi	zero,4410
   44de4:	00044eb4 	movhi	zero,4410
   44de8:	00044eb4 	movhi	zero,4410
   44dec:	00044eb4 	movhi	zero,4410
   44df0:	00044eb4 	movhi	zero,4410
   44df4:	0004503c 	xorhi	zero,zero,4416
   44df8:	00044eb4 	movhi	zero,4410
   44dfc:	00044eb4 	movhi	zero,4410
   44e00:	000455e4 	muli	zero,zero,4439
   44e04:	00044eb4 	movhi	zero,4410
   44e08:	00044eb4 	movhi	zero,4410
   44e0c:	00044eb4 	movhi	zero,4410
   44e10:	00044eb4 	movhi	zero,4410
   44e14:	00044eb4 	movhi	zero,4410
   44e18:	00044eb4 	movhi	zero,4410
   44e1c:	00044eb4 	movhi	zero,4410
   44e20:	00044eb4 	movhi	zero,4410
   44e24:	00044eb4 	movhi	zero,4410
   44e28:	00044eb4 	movhi	zero,4410
   44e2c:	000455bc 	xorhi	zero,zero,4438
   44e30:	00045338 	rdprs	zero,zero,4428
   44e34:	00045130 	cmpltui	zero,zero,4420
   44e38:	00045130 	cmpltui	zero,zero,4420
   44e3c:	00045130 	cmpltui	zero,zero,4420
   44e40:	000455b0 	cmpltui	zero,zero,4438
   44e44:	00045338 	rdprs	zero,zero,4428
   44e48:	00044eb4 	movhi	zero,4410
   44e4c:	00044eb4 	movhi	zero,4410
   44e50:	00045588 	cmpgei	zero,zero,4438
   44e54:	00044eb4 	movhi	zero,4410
   44e58:	00045718 	cmpnei	zero,zero,4444
   44e5c:	00045068 	cmpgeui	zero,zero,4417
   44e60:	000456d8 	cmpnei	zero,zero,4443
   44e64:	000456cc 	andi	zero,zero,4443
   44e68:	00044eb4 	movhi	zero,4410
   44e6c:	00045674 	movhi	zero,4441
   44e70:	00044eb4 	movhi	zero,4410
   44e74:	00045040 	call	4504 <__reset-0x3bafc>
   44e78:	00044eb4 	movhi	zero,4410
   44e7c:	00044eb4 	movhi	zero,4410
   44e80:	0004562c 	andhi	zero,zero,4440
   44e84:	0021883a 	mov	r16,zero
   44e88:	e0bff404 	addi	r2,fp,-48
   44e8c:	bf000007 	ldb	fp,0(r23)
   44e90:	840002a4 	muli	r16,r16,10
   44e94:	bdc00044 	addi	r23,r23,1
   44e98:	1421883a 	add	r16,r2,r16
   44e9c:	e0bff404 	addi	r2,fp,-48
   44ea0:	10c002b0 	cmpltui	r3,r2,10
   44ea4:	183ff91e 	bne	r3,zero,44e8c <___svfprintf_internal_r+0x28c>
   44ea8:	e0bff804 	addi	r2,fp,-32
   44eac:	10c01668 	cmpgeui	r3,r2,89
   44eb0:	183f9626 	beq	r3,zero,44d0c <___svfprintf_internal_r+0x10c>
   44eb4:	21003fcc 	andi	r4,r4,255
   44eb8:	2006581e 	bne	r4,zero,4681c <___svfprintf_internal_r+0x1c1c>
   44ebc:	e0004d26 	beq	fp,zero,44ff4 <___svfprintf_internal_r+0x3f4>
   44ec0:	df001d05 	stb	fp,116(sp)
   44ec4:	d8001345 	stb	zero,77(sp)
   44ec8:	05000044 	movi	r20,1
   44ecc:	05400044 	movi	r21,1
   44ed0:	dc401d04 	addi	r17,sp,116
   44ed4:	db000415 	stw	r12,16(sp)
   44ed8:	0011883a 	mov	r8,zero
   44edc:	d8000715 	stw	zero,28(sp)
   44ee0:	d8800417 	ldw	r2,16(sp)
   44ee4:	1380008c 	andi	r14,r2,2
   44ee8:	70000126 	beq	r14,zero,44ef0 <___svfprintf_internal_r+0x2f0>
   44eec:	a5000084 	addi	r20,r20,2
   44ef0:	d8800417 	ldw	r2,16(sp)
   44ef4:	d8c01c17 	ldw	r3,112(sp)
   44ef8:	1340210c 	andi	r13,r2,132
   44efc:	6800021e 	bne	r13,zero,44f08 <___svfprintf_internal_r+0x308>
   44f00:	850fc83a 	sub	r7,r16,r20
   44f04:	01c34f16 	blt	zero,r7,45c44 <___svfprintf_internal_r+0x1044>
   44f08:	d8801347 	ldb	r2,77(sp)
   44f0c:	10000c26 	beq	r2,zero,44f40 <___svfprintf_internal_r+0x340>
   44f10:	d8801b17 	ldw	r2,108(sp)
   44f14:	d9001344 	addi	r4,sp,77
   44f18:	18c00044 	addi	r3,r3,1
   44f1c:	10800044 	addi	r2,r2,1
   44f20:	b1000015 	stw	r4,0(r22)
   44f24:	01000044 	movi	r4,1
   44f28:	d8801b15 	stw	r2,108(sp)
   44f2c:	b1000115 	stw	r4,4(r22)
   44f30:	d8c01c15 	stw	r3,112(sp)
   44f34:	10800208 	cmpgei	r2,r2,8
   44f38:	1003831e 	bne	r2,zero,45d48 <___svfprintf_internal_r+0x1148>
   44f3c:	b5800204 	addi	r22,r22,8
   44f40:	70000c26 	beq	r14,zero,44f74 <___svfprintf_internal_r+0x374>
   44f44:	d8801b17 	ldw	r2,108(sp)
   44f48:	d9001384 	addi	r4,sp,78
   44f4c:	18c00084 	addi	r3,r3,2
   44f50:	10800044 	addi	r2,r2,1
   44f54:	b1000015 	stw	r4,0(r22)
   44f58:	01000084 	movi	r4,2
   44f5c:	d8801b15 	stw	r2,108(sp)
   44f60:	b1000115 	stw	r4,4(r22)
   44f64:	d8c01c15 	stw	r3,112(sp)
   44f68:	10800208 	cmpgei	r2,r2,8
   44f6c:	1003841e 	bne	r2,zero,45d80 <___svfprintf_internal_r+0x1180>
   44f70:	b5800204 	addi	r22,r22,8
   44f74:	6b402018 	cmpnei	r13,r13,128
   44f78:	68024026 	beq	r13,zero,4587c <___svfprintf_internal_r+0xc7c>
   44f7c:	4551c83a 	sub	r8,r8,r21
   44f80:	02027816 	blt	zero,r8,45964 <___svfprintf_internal_r+0xd64>
   44f84:	d8800417 	ldw	r2,16(sp)
   44f88:	1080400c 	andi	r2,r2,256
   44f8c:	1001f21e 	bne	r2,zero,45758 <___svfprintf_internal_r+0xb58>
   44f90:	d8801b17 	ldw	r2,108(sp)
   44f94:	1d47883a 	add	r3,r3,r21
   44f98:	b4400015 	stw	r17,0(r22)
   44f9c:	10800044 	addi	r2,r2,1
   44fa0:	b5400115 	stw	r21,4(r22)
   44fa4:	d8801b15 	stw	r2,108(sp)
   44fa8:	d8c01c15 	stw	r3,112(sp)
   44fac:	10800208 	cmpgei	r2,r2,8
   44fb0:	1002e11e 	bne	r2,zero,45b38 <___svfprintf_internal_r+0xf38>
   44fb4:	b5800204 	addi	r22,r22,8
   44fb8:	d8800417 	ldw	r2,16(sp)
   44fbc:	1440010c 	andi	r17,r2,4
   44fc0:	88000226 	beq	r17,zero,44fcc <___svfprintf_internal_r+0x3cc>
   44fc4:	8523c83a 	sub	r17,r16,r20
   44fc8:	0440ac16 	blt	zero,r17,4527c <___svfprintf_internal_r+0x67c>
   44fcc:	8500010e 	bge	r16,r20,44fd4 <___svfprintf_internal_r+0x3d4>
   44fd0:	a021883a 	mov	r16,r20
   44fd4:	d8800517 	ldw	r2,20(sp)
   44fd8:	1405883a 	add	r2,r2,r16
   44fdc:	d8800515 	stw	r2,20(sp)
   44fe0:	1802a71e 	bne	r3,zero,45a80 <___svfprintf_internal_r+0xe80>
   44fe4:	b8800007 	ldb	r2,0(r23)
   44fe8:	d8001b15 	stw	zero,108(sp)
   44fec:	dd802704 	addi	r22,sp,156
   44ff0:	103f2b1e 	bne	r2,zero,44ca0 <___svfprintf_internal_r+0xa0>
   44ff4:	d8801c17 	ldw	r2,112(sp)
   44ff8:	10060a1e 	bne	r2,zero,46824 <___svfprintf_internal_r+0x1c24>
   44ffc:	9080030b 	ldhu	r2,12(r18)
   45000:	1080100c 	andi	r2,r2,64
   45004:	10068d1e 	bne	r2,zero,46a3c <___svfprintf_internal_r+0x1e3c>
   45008:	d8800517 	ldw	r2,20(sp)
   4500c:	dfc04017 	ldw	ra,256(sp)
   45010:	df003f17 	ldw	fp,252(sp)
   45014:	ddc03e17 	ldw	r23,248(sp)
   45018:	dd803d17 	ldw	r22,244(sp)
   4501c:	dd403c17 	ldw	r21,240(sp)
   45020:	dd003b17 	ldw	r20,236(sp)
   45024:	dcc03a17 	ldw	r19,232(sp)
   45028:	dc803917 	ldw	r18,228(sp)
   4502c:	dc403817 	ldw	r17,224(sp)
   45030:	dc003717 	ldw	r16,220(sp)
   45034:	dec04104 	addi	sp,sp,260
   45038:	f800283a 	ret
   4503c:	63000414 	ori	r12,r12,16
   45040:	6080080c 	andi	r2,r12,32
   45044:	10008126 	beq	r2,zero,4524c <___svfprintf_internal_r+0x64c>
   45048:	d8c00617 	ldw	r3,24(sp)
   4504c:	00800044 	movi	r2,1
   45050:	1d000017 	ldw	r20,0(r3)
   45054:	1d400117 	ldw	r21,4(r3)
   45058:	18c00204 	addi	r3,r3,8
   4505c:	d8c00615 	stw	r3,24(sp)
   45060:	00000906 	br	45088 <___svfprintf_internal_r+0x488>
   45064:	63000414 	ori	r12,r12,16
   45068:	6080080c 	andi	r2,r12,32
   4506c:	10006b26 	beq	r2,zero,4521c <___svfprintf_internal_r+0x61c>
   45070:	d8c00617 	ldw	r3,24(sp)
   45074:	0005883a 	mov	r2,zero
   45078:	1d000017 	ldw	r20,0(r3)
   4507c:	1d400117 	ldw	r21,4(r3)
   45080:	18c00204 	addi	r3,r3,8
   45084:	d8c00615 	stw	r3,24(sp)
   45088:	d8001345 	stb	zero,77(sp)
   4508c:	40ffffe0 	cmpeqi	r3,r8,-1
   45090:	001b883a 	mov	r13,zero
   45094:	1800ff1e 	bne	r3,zero,45494 <___svfprintf_internal_r+0x894>
   45098:	047fdfc4 	movi	r17,-129
   4509c:	6448703a 	and	r4,r12,r17
   450a0:	a546b03a 	or	r3,r20,r21
   450a4:	d9000415 	stw	r4,16(sp)
   450a8:	1802e41e 	bne	r3,zero,45c3c <___svfprintf_internal_r+0x103c>
   450ac:	40025e1e 	bne	r8,zero,45a28 <___svfprintf_internal_r+0xe28>
   450b0:	1003991e 	bne	r2,zero,45f18 <___svfprintf_internal_r+0x1318>
   450b4:	6540004c 	andi	r21,r12,1
   450b8:	a803f026 	beq	r21,zero,4607c <___svfprintf_internal_r+0x147c>
   450bc:	00800c04 	movi	r2,48
   450c0:	d88026c5 	stb	r2,155(sp)
   450c4:	dc4026c4 	addi	r17,sp,155
   450c8:	00011006 	br	4550c <___svfprintf_internal_r+0x90c>
   450cc:	85e3c83a 	sub	r17,r16,r23
   450d0:	85ffc826 	beq	r16,r23,44ff4 <___svfprintf_internal_r+0x3f4>
   450d4:	d8c01c17 	ldw	r3,112(sp)
   450d8:	d8801b17 	ldw	r2,108(sp)
   450dc:	b5c00015 	stw	r23,0(r22)
   450e0:	1c47883a 	add	r3,r3,r17
   450e4:	10800044 	addi	r2,r2,1
   450e8:	d8801b15 	stw	r2,108(sp)
   450ec:	b4400115 	stw	r17,4(r22)
   450f0:	d8c01c15 	stw	r3,112(sp)
   450f4:	10800208 	cmpgei	r2,r2,8
   450f8:	1000061e 	bne	r2,zero,45114 <___svfprintf_internal_r+0x514>
   450fc:	b5800204 	addi	r22,r22,8
   45100:	d8c00517 	ldw	r3,20(sp)
   45104:	80800003 	ldbu	r2,0(r16)
   45108:	1c47883a 	add	r3,r3,r17
   4510c:	d8c00515 	stw	r3,20(sp)
   45110:	003eed06 	br	44cc8 <___svfprintf_internal_r+0xc8>
   45114:	d9801a04 	addi	r6,sp,104
   45118:	900b883a 	mov	r5,r18
   4511c:	9809883a 	mov	r4,r19
   45120:	00509380 	call	50938 <__ssprint_r>
   45124:	103fb51e 	bne	r2,zero,44ffc <___svfprintf_internal_r+0x3fc>
   45128:	dd802704 	addi	r22,sp,156
   4512c:	003ff406 	br	45100 <___svfprintf_internal_r+0x500>
   45130:	21003fcc 	andi	r4,r4,255
   45134:	2006271e 	bne	r4,zero,469d4 <___svfprintf_internal_r+0x1dd4>
   45138:	d8c00617 	ldw	r3,24(sp)
   4513c:	6080020c 	andi	r2,r12,8
   45140:	19000204 	addi	r4,r3,8
   45144:	d9000e15 	stw	r4,56(sp)
   45148:	1003ce1e 	bne	r2,zero,46084 <___svfprintf_internal_r+0x1484>
   4514c:	d8800617 	ldw	r2,24(sp)
   45150:	10c00017 	ldw	r3,0(r2)
   45154:	10800117 	ldw	r2,4(r2)
   45158:	d8c00915 	stw	r3,36(sp)
   4515c:	d8800a15 	stw	r2,40(sp)
   45160:	dd400a17 	ldw	r21,40(sp)
   45164:	dd000917 	ldw	r20,36(sp)
   45168:	00a00034 	movhi	r2,32768
   4516c:	10bfffc4 	addi	r2,r2,-1
   45170:	a8a2703a 	and	r17,r21,r2
   45174:	01dffc34 	movhi	r7,32752
   45178:	01bfffc4 	movi	r6,-1
   4517c:	39ffffc4 	addi	r7,r7,-1
   45180:	a009883a 	mov	r4,r20
   45184:	880b883a 	mov	r5,r17
   45188:	da000615 	stw	r8,24(sp)
   4518c:	db000415 	stw	r12,16(sp)
   45190:	005957c0 	call	5957c <__unorddf2>
   45194:	db000417 	ldw	r12,16(sp)
   45198:	da000617 	ldw	r8,24(sp)
   4519c:	1004481e 	bne	r2,zero,462c0 <___svfprintf_internal_r+0x16c0>
   451a0:	01dffc34 	movhi	r7,32752
   451a4:	01bfffc4 	movi	r6,-1
   451a8:	39ffffc4 	addi	r7,r7,-1
   451ac:	a009883a 	mov	r4,r20
   451b0:	880b883a 	mov	r5,r17
   451b4:	00585140 	call	58514 <__ledf2>
   451b8:	db000417 	ldw	r12,16(sp)
   451bc:	da000617 	ldw	r8,24(sp)
   451c0:	00843f0e 	bge	zero,r2,462c0 <___svfprintf_internal_r+0x16c0>
   451c4:	000d883a 	mov	r6,zero
   451c8:	000f883a 	mov	r7,zero
   451cc:	a009883a 	mov	r4,r20
   451d0:	a80b883a 	mov	r5,r21
   451d4:	00585140 	call	58514 <__ledf2>
   451d8:	db000417 	ldw	r12,16(sp)
   451dc:	10057116 	blt	r2,zero,467a4 <___svfprintf_internal_r+0x1ba4>
   451e0:	db401343 	ldbu	r13,77(sp)
   451e4:	e0801210 	cmplti	r2,fp,72
   451e8:	1004e11e 	bne	r2,zero,46570 <___svfprintf_internal_r+0x1970>
   451ec:	044001b4 	movhi	r17,6
   451f0:	8c749804 	addi	r17,r17,-11680
   451f4:	00bfdfc4 	movi	r2,-129
   451f8:	6084703a 	and	r2,r12,r2
   451fc:	d8800415 	stw	r2,16(sp)
   45200:	d8800e17 	ldw	r2,56(sp)
   45204:	050000c4 	movi	r20,3
   45208:	054000c4 	movi	r21,3
   4520c:	d8800615 	stw	r2,24(sp)
   45210:	0011883a 	mov	r8,zero
   45214:	d8000715 	stw	zero,28(sp)
   45218:	0000c006 	br	4551c <___svfprintf_internal_r+0x91c>
   4521c:	d8c00617 	ldw	r3,24(sp)
   45220:	6080040c 	andi	r2,r12,16
   45224:	1d000017 	ldw	r20,0(r3)
   45228:	18c00104 	addi	r3,r3,4
   4522c:	d8c00615 	stw	r3,24(sp)
   45230:	1000031e 	bne	r2,zero,45240 <___svfprintf_internal_r+0x640>
   45234:	6080100c 	andi	r2,r12,64
   45238:	10000126 	beq	r2,zero,45240 <___svfprintf_internal_r+0x640>
   4523c:	a53fffcc 	andi	r20,r20,65535
   45240:	002b883a 	mov	r21,zero
   45244:	0005883a 	mov	r2,zero
   45248:	003f8f06 	br	45088 <___svfprintf_internal_r+0x488>
   4524c:	d8c00617 	ldw	r3,24(sp)
   45250:	6080040c 	andi	r2,r12,16
   45254:	1d000017 	ldw	r20,0(r3)
   45258:	18c00104 	addi	r3,r3,4
   4525c:	d8c00615 	stw	r3,24(sp)
   45260:	1000031e 	bne	r2,zero,45270 <___svfprintf_internal_r+0x670>
   45264:	6080100c 	andi	r2,r12,64
   45268:	10000126 	beq	r2,zero,45270 <___svfprintf_internal_r+0x670>
   4526c:	a53fffcc 	andi	r20,r20,65535
   45270:	002b883a 	mov	r21,zero
   45274:	00800044 	movi	r2,1
   45278:	003f8306 	br	45088 <___svfprintf_internal_r+0x488>
   4527c:	030001b4 	movhi	r12,6
   45280:	89000450 	cmplti	r4,r17,17
   45284:	d8801b17 	ldw	r2,108(sp)
   45288:	6334ac04 	addi	r12,r12,-11600
   4528c:	20001b1e 	bne	r4,zero,452fc <___svfprintf_internal_r+0x6fc>
   45290:	05400404 	movi	r21,16
   45294:	6039883a 	mov	fp,r12
   45298:	00000406 	br	452ac <___svfprintf_internal_r+0x6ac>
   4529c:	8c7ffc04 	addi	r17,r17,-16
   452a0:	89000448 	cmpgei	r4,r17,17
   452a4:	b5800204 	addi	r22,r22,8
   452a8:	20001326 	beq	r4,zero,452f8 <___svfprintf_internal_r+0x6f8>
   452ac:	10800044 	addi	r2,r2,1
   452b0:	18c00404 	addi	r3,r3,16
   452b4:	b7000015 	stw	fp,0(r22)
   452b8:	b5400115 	stw	r21,4(r22)
   452bc:	d8c01c15 	stw	r3,112(sp)
   452c0:	d8801b15 	stw	r2,108(sp)
   452c4:	11000208 	cmpgei	r4,r2,8
   452c8:	203ff426 	beq	r4,zero,4529c <___svfprintf_internal_r+0x69c>
   452cc:	d9801a04 	addi	r6,sp,104
   452d0:	900b883a 	mov	r5,r18
   452d4:	9809883a 	mov	r4,r19
   452d8:	00509380 	call	50938 <__ssprint_r>
   452dc:	103f471e 	bne	r2,zero,44ffc <___svfprintf_internal_r+0x3fc>
   452e0:	8c7ffc04 	addi	r17,r17,-16
   452e4:	89000448 	cmpgei	r4,r17,17
   452e8:	d8c01c17 	ldw	r3,112(sp)
   452ec:	d8801b17 	ldw	r2,108(sp)
   452f0:	dd802704 	addi	r22,sp,156
   452f4:	203fed1e 	bne	r4,zero,452ac <___svfprintf_internal_r+0x6ac>
   452f8:	e019883a 	mov	r12,fp
   452fc:	10800044 	addi	r2,r2,1
   45300:	1c47883a 	add	r3,r3,r17
   45304:	d8801b15 	stw	r2,108(sp)
   45308:	b3000015 	stw	r12,0(r22)
   4530c:	b4400115 	stw	r17,4(r22)
   45310:	d8c01c15 	stw	r3,112(sp)
   45314:	10800210 	cmplti	r2,r2,8
   45318:	103f2c1e 	bne	r2,zero,44fcc <___svfprintf_internal_r+0x3cc>
   4531c:	d9801a04 	addi	r6,sp,104
   45320:	900b883a 	mov	r5,r18
   45324:	9809883a 	mov	r4,r19
   45328:	00509380 	call	50938 <__ssprint_r>
   4532c:	103f331e 	bne	r2,zero,44ffc <___svfprintf_internal_r+0x3fc>
   45330:	d8c01c17 	ldw	r3,112(sp)
   45334:	003f2506 	br	44fcc <___svfprintf_internal_r+0x3cc>
   45338:	21003fcc 	andi	r4,r4,255
   4533c:	2005a71e 	bne	r4,zero,469dc <___svfprintf_internal_r+0x1ddc>
   45340:	6080080c 	andi	r2,r12,32
   45344:	10003b26 	beq	r2,zero,45434 <___svfprintf_internal_r+0x834>
   45348:	d8c00617 	ldw	r3,24(sp)
   4534c:	18800117 	ldw	r2,4(r3)
   45350:	1d000017 	ldw	r20,0(r3)
   45354:	18c00204 	addi	r3,r3,8
   45358:	d8c00615 	stw	r3,24(sp)
   4535c:	102b883a 	mov	r21,r2
   45360:	10004216 	blt	r2,zero,4546c <___svfprintf_internal_r+0x86c>
   45364:	40bfffd8 	cmpnei	r2,r8,-1
   45368:	db401343 	ldbu	r13,77(sp)
   4536c:	10000626 	beq	r2,zero,45388 <___svfprintf_internal_r+0x788>
   45370:	047fdfc4 	movi	r17,-129
   45374:	6446703a 	and	r3,r12,r17
   45378:	a544b03a 	or	r2,r20,r21
   4537c:	d8c00415 	stw	r3,16(sp)
   45380:	1002e426 	beq	r2,zero,45f14 <___svfprintf_internal_r+0x1314>
   45384:	db000417 	ldw	r12,16(sp)
   45388:	a8038f1e 	bne	r21,zero,461c8 <___svfprintf_internal_r+0x15c8>
   4538c:	a08002a8 	cmpgeui	r2,r20,10
   45390:	10038d1e 	bne	r2,zero,461c8 <___svfprintf_internal_r+0x15c8>
   45394:	a5000c04 	addi	r20,r20,48
   45398:	dd0026c5 	stb	r20,155(sp)
   4539c:	db000415 	stw	r12,16(sp)
   453a0:	05400044 	movi	r21,1
   453a4:	dc4026c4 	addi	r17,sp,155
   453a8:	00005806 	br	4550c <___svfprintf_internal_r+0x90c>
   453ac:	d8800617 	ldw	r2,24(sp)
   453b0:	14000017 	ldw	r16,0(r2)
   453b4:	10800104 	addi	r2,r2,4
   453b8:	80032d0e 	bge	r16,zero,46070 <___svfprintf_internal_r+0x1470>
   453bc:	0421c83a 	sub	r16,zero,r16
   453c0:	d8800615 	stw	r2,24(sp)
   453c4:	bac00007 	ldb	r11,0(r23)
   453c8:	63000114 	ori	r12,r12,4
   453cc:	003e4a06 	br	44cf8 <___svfprintf_internal_r+0xf8>
   453d0:	bac00007 	ldb	r11,0(r23)
   453d4:	63000214 	ori	r12,r12,8
   453d8:	003e4706 	br	44cf8 <___svfprintf_internal_r+0xf8>
   453dc:	bf000007 	ldb	fp,0(r23)
   453e0:	b8c00044 	addi	r3,r23,1
   453e4:	e0800aa0 	cmpeqi	r2,fp,42
   453e8:	1005d51e 	bne	r2,zero,46b40 <___svfprintf_internal_r+0x1f40>
   453ec:	e0bff404 	addi	r2,fp,-48
   453f0:	118002b0 	cmpltui	r6,r2,10
   453f4:	182f883a 	mov	r23,r3
   453f8:	0011883a 	mov	r8,zero
   453fc:	303e4026 	beq	r6,zero,44d00 <___svfprintf_internal_r+0x100>
   45400:	bf000007 	ldb	fp,0(r23)
   45404:	420002a4 	muli	r8,r8,10
   45408:	bdc00044 	addi	r23,r23,1
   4540c:	4091883a 	add	r8,r8,r2
   45410:	e0bff404 	addi	r2,fp,-48
   45414:	10c002b0 	cmpltui	r3,r2,10
   45418:	183ff91e 	bne	r3,zero,45400 <___svfprintf_internal_r+0x800>
   4541c:	003e3806 	br	44d00 <___svfprintf_internal_r+0x100>
   45420:	21003fcc 	andi	r4,r4,255
   45424:	2005651e 	bne	r4,zero,469bc <___svfprintf_internal_r+0x1dbc>
   45428:	63000414 	ori	r12,r12,16
   4542c:	6080080c 	andi	r2,r12,32
   45430:	103fc51e 	bne	r2,zero,45348 <___svfprintf_internal_r+0x748>
   45434:	d8c00617 	ldw	r3,24(sp)
   45438:	6080040c 	andi	r2,r12,16
   4543c:	1d000017 	ldw	r20,0(r3)
   45440:	18c00104 	addi	r3,r3,4
   45444:	d8c00615 	stw	r3,24(sp)
   45448:	1002f21e 	bne	r2,zero,46014 <___svfprintf_internal_r+0x1414>
   4544c:	6080100c 	andi	r2,r12,64
   45450:	1002f026 	beq	r2,zero,46014 <___svfprintf_internal_r+0x1414>
   45454:	a53fffcc 	andi	r20,r20,65535
   45458:	a520001c 	xori	r20,r20,32768
   4545c:	a5200004 	addi	r20,r20,-32768
   45460:	a02bd7fa 	srai	r21,r20,31
   45464:	a805883a 	mov	r2,r21
   45468:	103fbe0e 	bge	r2,zero,45364 <___svfprintf_internal_r+0x764>
   4546c:	a004c03a 	cmpne	r2,r20,zero
   45470:	056bc83a 	sub	r21,zero,r21
   45474:	a8abc83a 	sub	r21,r21,r2
   45478:	00800b44 	movi	r2,45
   4547c:	d8801345 	stb	r2,77(sp)
   45480:	40ffffe0 	cmpeqi	r3,r8,-1
   45484:	0529c83a 	sub	r20,zero,r20
   45488:	03400b44 	movi	r13,45
   4548c:	00800044 	movi	r2,1
   45490:	183f0126 	beq	r3,zero,45098 <___svfprintf_internal_r+0x498>
   45494:	10c00060 	cmpeqi	r3,r2,1
   45498:	183fbb1e 	bne	r3,zero,45388 <___svfprintf_internal_r+0x788>
   4549c:	108000a0 	cmpeqi	r2,r2,2
   454a0:	1001661e 	bne	r2,zero,45a3c <___svfprintf_internal_r+0xe3c>
   454a4:	dc402704 	addi	r17,sp,156
   454a8:	a006d0fa 	srli	r3,r20,3
   454ac:	a808977a 	slli	r4,r21,29
   454b0:	a82ad0fa 	srli	r21,r21,3
   454b4:	a50001cc 	andi	r20,r20,7
   454b8:	a0800c04 	addi	r2,r20,48
   454bc:	20e8b03a 	or	r20,r4,r3
   454c0:	88bfffc5 	stb	r2,-1(r17)
   454c4:	a546b03a 	or	r3,r20,r21
   454c8:	880b883a 	mov	r5,r17
   454cc:	8c7fffc4 	addi	r17,r17,-1
   454d0:	183ff51e 	bne	r3,zero,454a8 <___svfprintf_internal_r+0x8a8>
   454d4:	60c0004c 	andi	r3,r12,1
   454d8:	18016526 	beq	r3,zero,45a70 <___svfprintf_internal_r+0xe70>
   454dc:	10803fcc 	andi	r2,r2,255
   454e0:	1080201c 	xori	r2,r2,128
   454e4:	10bfe004 	addi	r2,r2,-128
   454e8:	10800c18 	cmpnei	r2,r2,48
   454ec:	10016026 	beq	r2,zero,45a70 <___svfprintf_internal_r+0xe70>
   454f0:	00800c04 	movi	r2,48
   454f4:	297fff84 	addi	r5,r5,-2
   454f8:	88bfffc5 	stb	r2,-1(r17)
   454fc:	d8802704 	addi	r2,sp,156
   45500:	116bc83a 	sub	r21,r2,r5
   45504:	db000415 	stw	r12,16(sp)
   45508:	2823883a 	mov	r17,r5
   4550c:	a829883a 	mov	r20,r21
   45510:	aa00010e 	bge	r21,r8,45518 <___svfprintf_internal_r+0x918>
   45514:	4029883a 	mov	r20,r8
   45518:	d8000715 	stw	zero,28(sp)
   4551c:	6b403fcc 	andi	r13,r13,255
   45520:	6b40201c 	xori	r13,r13,128
   45524:	6b7fe004 	addi	r13,r13,-128
   45528:	683e6d26 	beq	r13,zero,44ee0 <___svfprintf_internal_r+0x2e0>
   4552c:	a5000044 	addi	r20,r20,1
   45530:	003e6b06 	br	44ee0 <___svfprintf_internal_r+0x2e0>
   45534:	bac00007 	ldb	r11,0(r23)
   45538:	63002014 	ori	r12,r12,128
   4553c:	003dee06 	br	44cf8 <___svfprintf_internal_r+0xf8>
   45540:	bac00007 	ldb	r11,0(r23)
   45544:	01000044 	movi	r4,1
   45548:	01400ac4 	movi	r5,43
   4554c:	003dea06 	br	44cf8 <___svfprintf_internal_r+0xf8>
   45550:	bac00007 	ldb	r11,0(r23)
   45554:	63000054 	ori	r12,r12,1
   45558:	003de706 	br	44cf8 <___svfprintf_internal_r+0xf8>
   4555c:	28803fcc 	andi	r2,r5,255
   45560:	1080201c 	xori	r2,r2,128
   45564:	10bfe004 	addi	r2,r2,-128
   45568:	bf000003 	ldbu	fp,0(r23)
   4556c:	10000c1e 	bne	r2,zero,455a0 <___svfprintf_internal_r+0x9a0>
   45570:	e2c03fcc 	andi	r11,fp,255
   45574:	5ac0201c 	xori	r11,r11,128
   45578:	01000044 	movi	r4,1
   4557c:	01400804 	movi	r5,32
   45580:	5affe004 	addi	r11,r11,-128
   45584:	003ddc06 	br	44cf8 <___svfprintf_internal_r+0xf8>
   45588:	bac00007 	ldb	r11,0(r23)
   4558c:	58801b18 	cmpnei	r2,r11,108
   45590:	1002b51e 	bne	r2,zero,46068 <___svfprintf_internal_r+0x1468>
   45594:	bf000043 	ldbu	fp,1(r23)
   45598:	63000814 	ori	r12,r12,32
   4559c:	bdc00044 	addi	r23,r23,1
   455a0:	e2c03fcc 	andi	r11,fp,255
   455a4:	5ac0201c 	xori	r11,r11,128
   455a8:	5affe004 	addi	r11,r11,-128
   455ac:	003dd206 	br	44cf8 <___svfprintf_internal_r+0xf8>
   455b0:	bac00007 	ldb	r11,0(r23)
   455b4:	63001014 	ori	r12,r12,64
   455b8:	003dcf06 	br	44cf8 <___svfprintf_internal_r+0xf8>
   455bc:	d8c00617 	ldw	r3,24(sp)
   455c0:	d8001345 	stb	zero,77(sp)
   455c4:	05000044 	movi	r20,1
   455c8:	18800017 	ldw	r2,0(r3)
   455cc:	18c00104 	addi	r3,r3,4
   455d0:	d8c00615 	stw	r3,24(sp)
   455d4:	d8801d05 	stb	r2,116(sp)
   455d8:	05400044 	movi	r21,1
   455dc:	dc401d04 	addi	r17,sp,116
   455e0:	003e3c06 	br	44ed4 <___svfprintf_internal_r+0x2d4>
   455e4:	21003fcc 	andi	r4,r4,255
   455e8:	2004fe1e 	bne	r4,zero,469e4 <___svfprintf_internal_r+0x1de4>
   455ec:	008001b4 	movhi	r2,6
   455f0:	10b4a004 	addi	r2,r2,-11648
   455f4:	d8800b15 	stw	r2,44(sp)
   455f8:	6080080c 	andi	r2,r12,32
   455fc:	10001226 	beq	r2,zero,45648 <___svfprintf_internal_r+0xa48>
   45600:	d8800617 	ldw	r2,24(sp)
   45604:	15000017 	ldw	r20,0(r2)
   45608:	15400117 	ldw	r21,4(r2)
   4560c:	10800204 	addi	r2,r2,8
   45610:	d8800615 	stw	r2,24(sp)
   45614:	6080004c 	andi	r2,r12,1
   45618:	10000226 	beq	r2,zero,45624 <___svfprintf_internal_r+0xa24>
   4561c:	a544b03a 	or	r2,r20,r21
   45620:	1002a41e 	bne	r2,zero,460b4 <___svfprintf_internal_r+0x14b4>
   45624:	00800084 	movi	r2,2
   45628:	003e9706 	br	45088 <___svfprintf_internal_r+0x488>
   4562c:	21003fcc 	andi	r4,r4,255
   45630:	2004e61e 	bne	r4,zero,469cc <___svfprintf_internal_r+0x1dcc>
   45634:	008001b4 	movhi	r2,6
   45638:	10b49b04 	addi	r2,r2,-11668
   4563c:	d8800b15 	stw	r2,44(sp)
   45640:	6080080c 	andi	r2,r12,32
   45644:	103fee1e 	bne	r2,zero,45600 <___svfprintf_internal_r+0xa00>
   45648:	d8c00617 	ldw	r3,24(sp)
   4564c:	6080040c 	andi	r2,r12,16
   45650:	1d000017 	ldw	r20,0(r3)
   45654:	18c00104 	addi	r3,r3,4
   45658:	d8c00615 	stw	r3,24(sp)
   4565c:	10026b1e 	bne	r2,zero,4600c <___svfprintf_internal_r+0x140c>
   45660:	6080100c 	andi	r2,r12,64
   45664:	10026926 	beq	r2,zero,4600c <___svfprintf_internal_r+0x140c>
   45668:	a53fffcc 	andi	r20,r20,65535
   4566c:	002b883a 	mov	r21,zero
   45670:	003fe806 	br	45614 <___svfprintf_internal_r+0xa14>
   45674:	d8800617 	ldw	r2,24(sp)
   45678:	d8001345 	stb	zero,77(sp)
   4567c:	14400017 	ldw	r17,0(r2)
   45680:	10c00104 	addi	r3,r2,4
   45684:	88038026 	beq	r17,zero,46488 <___svfprintf_internal_r+0x1888>
   45688:	40bfffe0 	cmpeqi	r2,r8,-1
   4568c:	1002a81e 	bne	r2,zero,46130 <___svfprintf_internal_r+0x1530>
   45690:	400d883a 	mov	r6,r8
   45694:	000b883a 	mov	r5,zero
   45698:	8809883a 	mov	r4,r17
   4569c:	d8c00715 	stw	r3,28(sp)
   456a0:	db000615 	stw	r12,24(sp)
   456a4:	da000415 	stw	r8,16(sp)
   456a8:	00437400 	call	43740 <memchr>
   456ac:	da000417 	ldw	r8,16(sp)
   456b0:	db000617 	ldw	r12,24(sp)
   456b4:	d8c00717 	ldw	r3,28(sp)
   456b8:	1004b026 	beq	r2,zero,4697c <___svfprintf_internal_r+0x1d7c>
   456bc:	146bc83a 	sub	r21,r2,r17
   456c0:	a829883a 	mov	r20,r21
   456c4:	d8c00615 	stw	r3,24(sp)
   456c8:	003e0206 	br	44ed4 <___svfprintf_internal_r+0x2d4>
   456cc:	bac00007 	ldb	r11,0(r23)
   456d0:	63000814 	ori	r12,r12,32
   456d4:	003d8806 	br	44cf8 <___svfprintf_internal_r+0xf8>
   456d8:	d8c00617 	ldw	r3,24(sp)
   456dc:	00800c04 	movi	r2,48
   456e0:	d8801385 	stb	r2,78(sp)
   456e4:	00801e04 	movi	r2,120
   456e8:	010001b4 	movhi	r4,6
   456ec:	d88013c5 	stb	r2,79(sp)
   456f0:	18800104 	addi	r2,r3,4
   456f4:	d8800615 	stw	r2,24(sp)
   456f8:	20b49b04 	addi	r2,r4,-11668
   456fc:	d8800b15 	stw	r2,44(sp)
   45700:	1d000017 	ldw	r20,0(r3)
   45704:	002b883a 	mov	r21,zero
   45708:	63000094 	ori	r12,r12,2
   4570c:	00800084 	movi	r2,2
   45710:	07001e04 	movi	fp,120
   45714:	003e5c06 	br	45088 <___svfprintf_internal_r+0x488>
   45718:	21003fcc 	andi	r4,r4,255
   4571c:	2004a91e 	bne	r4,zero,469c4 <___svfprintf_internal_r+0x1dc4>
   45720:	d9000617 	ldw	r4,24(sp)
   45724:	6080080c 	andi	r2,r12,32
   45728:	20c00104 	addi	r3,r4,4
   4572c:	10025a1e 	bne	r2,zero,46098 <___svfprintf_internal_r+0x1498>
   45730:	6080040c 	andi	r2,r12,16
   45734:	1002cc1e 	bne	r2,zero,46268 <___svfprintf_internal_r+0x1668>
   45738:	6300100c 	andi	r12,r12,64
   4573c:	6002ca26 	beq	r12,zero,46268 <___svfprintf_internal_r+0x1668>
   45740:	d8800617 	ldw	r2,24(sp)
   45744:	d8c00615 	stw	r3,24(sp)
   45748:	d8c00517 	ldw	r3,20(sp)
   4574c:	10800017 	ldw	r2,0(r2)
   45750:	10c0000d 	sth	r3,0(r2)
   45754:	003d5006 	br	44c98 <___svfprintf_internal_r+0x98>
   45758:	e2c01990 	cmplti	r11,fp,102
   4575c:	5800fe1e 	bne	r11,zero,45b58 <___svfprintf_internal_r+0xf58>
   45760:	d9000917 	ldw	r4,36(sp)
   45764:	d9400a17 	ldw	r5,40(sp)
   45768:	000d883a 	mov	r6,zero
   4576c:	000f883a 	mov	r7,zero
   45770:	d8c00e15 	stw	r3,56(sp)
   45774:	00583ac0 	call	583ac <__eqdf2>
   45778:	d8c00e17 	ldw	r3,56(sp)
   4577c:	10018c1e 	bne	r2,zero,45db0 <___svfprintf_internal_r+0x11b0>
   45780:	d8801b17 	ldw	r2,108(sp)
   45784:	010001b4 	movhi	r4,6
   45788:	2134a704 	addi	r4,r4,-11620
   4578c:	10800044 	addi	r2,r2,1
   45790:	18c00044 	addi	r3,r3,1
   45794:	b1000015 	stw	r4,0(r22)
   45798:	01000044 	movi	r4,1
   4579c:	d8801b15 	stw	r2,108(sp)
   457a0:	b1000115 	stw	r4,4(r22)
   457a4:	d8c01c15 	stw	r3,112(sp)
   457a8:	10800208 	cmpgei	r2,r2,8
   457ac:	10031c1e 	bne	r2,zero,46420 <___svfprintf_internal_r+0x1820>
   457b0:	b5800204 	addi	r22,r22,8
   457b4:	d8801417 	ldw	r2,80(sp)
   457b8:	d9000817 	ldw	r4,32(sp)
   457bc:	11000316 	blt	r2,r4,457cc <___svfprintf_internal_r+0xbcc>
   457c0:	d8800417 	ldw	r2,16(sp)
   457c4:	1080004c 	andi	r2,r2,1
   457c8:	103dfb26 	beq	r2,zero,44fb8 <___svfprintf_internal_r+0x3b8>
   457cc:	d8800d17 	ldw	r2,52(sp)
   457d0:	d9000c17 	ldw	r4,48(sp)
   457d4:	b0800015 	stw	r2,0(r22)
   457d8:	d8801b17 	ldw	r2,108(sp)
   457dc:	1907883a 	add	r3,r3,r4
